ARM GAS  C:\Users\Ali\AppData\Local\Temp\cc4pL5T6.s 			page 1


   1              		.cpu cortex-m4
   2              		.arch armv7e-m
   3              		.fpu fpv4-sp-d16
   4              		.eabi_attribute 27, 1
   5              		.eabi_attribute 28, 1
   6              		.eabi_attribute 20, 1
   7              		.eabi_attribute 21, 1
   8              		.eabi_attribute 23, 3
   9              		.eabi_attribute 24, 1
  10              		.eabi_attribute 25, 1
  11              		.eabi_attribute 26, 1
  12              		.eabi_attribute 30, 1
  13              		.eabi_attribute 34, 1
  14              		.eabi_attribute 18, 4
  15              		.file	"can_manager.c"
  16              		.text
  17              	.Ltext0:
  18              		.cfi_sections	.debug_frame
  19              		.file 1 "Core/Src/can_manager.c"
  20              		.section	.text.CAN_ConfigureFilters,"ax",%progbits
  21              		.align	1
  22              		.syntax unified
  23              		.thumb
  24              		.thumb_func
  26              	CAN_ConfigureFilters:
  27              	.LFB293:
   1:Core/Src/can_manager.c **** /* USER CODE BEGIN Header */
   2:Core/Src/can_manager.c **** /**
   3:Core/Src/can_manager.c ****   ******************************************************************************
   4:Core/Src/can_manager.c ****   * @file           : can_manager.c
   5:Core/Src/can_manager.c ****   * @brief          : CAN bus manager implementation
   6:Core/Src/can_manager.c ****   ******************************************************************************
   7:Core/Src/can_manager.c ****   * @attention
   8:Core/Src/can_manager.c ****   *
   9:Core/Src/can_manager.c ****   * Copyright (c) 2025 STMicroelectronics.
  10:Core/Src/can_manager.c ****   * All rights reserved.
  11:Core/Src/can_manager.c ****   *
  12:Core/Src/can_manager.c ****   * This software is licensed under terms that can be found in the LICENSE file
  13:Core/Src/can_manager.c ****   * in the root directory of this software component.
  14:Core/Src/can_manager.c ****   * If no LICENSE file comes with this software, it is provided AS-IS.
  15:Core/Src/can_manager.c ****   *
  16:Core/Src/can_manager.c ****   ******************************************************************************
  17:Core/Src/can_manager.c ****   */
  18:Core/Src/can_manager.c **** /* USER CODE END Header */
  19:Core/Src/can_manager.c **** 
  20:Core/Src/can_manager.c **** /* Includes ------------------------------------------------------------------*/
  21:Core/Src/can_manager.c **** #include "can_manager.h"
  22:Core/Src/can_manager.c **** #include "error_manager.h"
  23:Core/Src/can_manager.c **** #include "config_manager.h"
  24:Core/Src/can_manager.c **** 
  25:Core/Src/can_manager.c **** /* Private variables ---------------------------------------------------------*/
  26:Core/Src/can_manager.c **** osMessageQueueId_t CANTxQueueHandle = NULL;
  27:Core/Src/can_manager.c **** osMessageQueueId_t CANRxQueueHandle = NULL;
  28:Core/Src/can_manager.c **** 
  29:Core/Src/can_manager.c **** static CAN_RxCallback_t rx_callback = NULL;
  30:Core/Src/can_manager.c **** static CAN_Statistics_t can_stats = {0};
  31:Core/Src/can_manager.c **** 
ARM GAS  C:\Users\Ali\AppData\Local\Temp\cc4pL5T6.s 			page 2


  32:Core/Src/can_manager.c **** /* Private function prototypes -----------------------------------------------*/
  33:Core/Src/can_manager.c **** static void CAN_ProcessTxQueue(void);
  34:Core/Src/can_manager.c **** static void CAN_ProcessRxMessage(CAN_Message_t *msg);
  35:Core/Src/can_manager.c **** static HAL_StatusTypeDef CAN_TransmitMessage(CAN_Message_t *msg);
  36:Core/Src/can_manager.c **** static void CAN_ConfigureFilters(void);
  37:Core/Src/can_manager.c **** static void CAN_ConfigureFilters(void);
  38:Core/Src/can_manager.c **** 
  39:Core/Src/can_manager.c **** /* Function Implementations --------------------------------------------------*/
  40:Core/Src/can_manager.c **** 
  41:Core/Src/can_manager.c **** /**
  42:Core/Src/can_manager.c ****   * @brief  Initialize CAN manager
  43:Core/Src/can_manager.c ****   * @retval HAL_StatusTypeDef
  44:Core/Src/can_manager.c ****   */
  45:Core/Src/can_manager.c **** HAL_StatusTypeDef CAN_Manager_Init(void)
  46:Core/Src/can_manager.c **** {
  47:Core/Src/can_manager.c ****     // Create TX message queue
  48:Core/Src/can_manager.c ****     CANTxQueueHandle = osMessageQueueNew(CAN_TX_QUEUE_SIZE, sizeof(CAN_Message_t), NULL);
  49:Core/Src/can_manager.c ****     if (CANTxQueueHandle == NULL) {
  50:Core/Src/can_manager.c ****         return HAL_ERROR;
  51:Core/Src/can_manager.c ****     }
  52:Core/Src/can_manager.c ****     
  53:Core/Src/can_manager.c ****     // Create RX message queue
  54:Core/Src/can_manager.c ****     CANRxQueueHandle = osMessageQueueNew(CAN_RX_QUEUE_SIZE, sizeof(CAN_Message_t), NULL);
  55:Core/Src/can_manager.c ****     if (CANRxQueueHandle == NULL) {
  56:Core/Src/can_manager.c ****         return HAL_ERROR;
  57:Core/Src/can_manager.c ****     }
  58:Core/Src/can_manager.c ****     
  59:Core/Src/can_manager.c ****     // NOTE: CAN filter is now configured in MX_CAN1_Init() BEFORE HAL_CAN_Start()
  60:Core/Src/can_manager.c ****     // This is critical - filters must be configured before starting CAN!
  61:Core/Src/can_manager.c ****     
  62:Core/Src/can_manager.c ****     // Activate CAN RX FIFO notifications (CAN must already be started)
  63:Core/Src/can_manager.c ****     if (HAL_CAN_ActivateNotification(&hcan1, CAN_IT_RX_FIFO0_MSG_PENDING | 
  64:Core/Src/can_manager.c ****                                               CAN_IT_RX_FIFO1_MSG_PENDING |
  65:Core/Src/can_manager.c ****                                               CAN_IT_ERROR |
  66:Core/Src/can_manager.c ****                                               CAN_IT_BUSOFF) != HAL_OK) {
  67:Core/Src/can_manager.c ****         return HAL_ERROR;
  68:Core/Src/can_manager.c ****     }
  69:Core/Src/can_manager.c ****     
  70:Core/Src/can_manager.c ****     // Reset statistics
  71:Core/Src/can_manager.c ****     CAN_ResetStatistics();
  72:Core/Src/can_manager.c ****     
  73:Core/Src/can_manager.c ****     return HAL_OK;
  74:Core/Src/can_manager.c **** }
  75:Core/Src/can_manager.c **** 
  76:Core/Src/can_manager.c **** /**
  77:Core/Src/can_manager.c ****   * @brief  Configure CAN filters to accept messages for current module ID
  78:Core/Src/can_manager.c ****   * @retval None
  79:Core/Src/can_manager.c ****   * @note   TEMPORARY: Accept ALL extended CAN messages for debugging
  80:Core/Src/can_manager.c ****   *         TODO: Restore module-specific filtering once RX is working
  81:Core/Src/can_manager.c ****   */
  82:Core/Src/can_manager.c **** static void CAN_ConfigureFilters(void)
  83:Core/Src/can_manager.c **** {
  28              		.loc 1 83 1 view -0
  29              		.cfi_startproc
  30              		@ args = 0, pretend = 0, frame = 40
  31              		@ frame_needed = 0, uses_anonymous_args = 0
  32 0000 00B5     		push	{lr}
ARM GAS  C:\Users\Ali\AppData\Local\Temp\cc4pL5T6.s 			page 3


  33              		.cfi_def_cfa_offset 4
  34              		.cfi_offset 14, -4
  35 0002 8BB0     		sub	sp, sp, #44
  36              		.cfi_def_cfa_offset 48
  84:Core/Src/can_manager.c ****     CAN_FilterTypeDef filterConfig;
  37              		.loc 1 84 5 view .LVU1
  85:Core/Src/can_manager.c ****     
  86:Core/Src/can_manager.c ****     // TEMPORARY DEBUG: Accept ALL extended CAN IDs
  87:Core/Src/can_manager.c ****     // This disables filtering to verify RX path is working
  88:Core/Src/can_manager.c ****     
  89:Core/Src/can_manager.c ****     filterConfig.FilterBank = 0;
  38              		.loc 1 89 5 view .LVU2
  39              		.loc 1 89 29 is_stmt 0 view .LVU3
  40 0004 0023     		movs	r3, #0
  41 0006 0593     		str	r3, [sp, #20]
  90:Core/Src/can_manager.c ****     filterConfig.FilterMode = CAN_FILTERMODE_IDMASK;
  42              		.loc 1 90 5 is_stmt 1 view .LVU4
  43              		.loc 1 90 29 is_stmt 0 view .LVU5
  44 0008 0693     		str	r3, [sp, #24]
  91:Core/Src/can_manager.c ****     filterConfig.FilterScale = CAN_FILTERSCALE_32BIT;
  45              		.loc 1 91 5 is_stmt 1 view .LVU6
  46              		.loc 1 91 30 is_stmt 0 view .LVU7
  47 000a 0122     		movs	r2, #1
  48 000c 0792     		str	r2, [sp, #28]
  92:Core/Src/can_manager.c ****     
  93:Core/Src/can_manager.c ****     // Accept all extended IDs: ID=0, Mask=0 means "don't care about any bits"
  94:Core/Src/can_manager.c ****     filterConfig.FilterIdHigh = 0x0000;
  49              		.loc 1 94 5 is_stmt 1 view .LVU8
  50              		.loc 1 94 31 is_stmt 0 view .LVU9
  51 000e 0093     		str	r3, [sp]
  95:Core/Src/can_manager.c ****     filterConfig.FilterIdLow = 0x0004;   // Only IDE bit set (extended ID)
  52              		.loc 1 95 5 is_stmt 1 view .LVU10
  53              		.loc 1 95 30 is_stmt 0 view .LVU11
  54 0010 0421     		movs	r1, #4
  55 0012 0191     		str	r1, [sp, #4]
  96:Core/Src/can_manager.c ****     filterConfig.FilterMaskIdHigh = 0x0000;  // Don't care about any ID bits
  56              		.loc 1 96 5 is_stmt 1 view .LVU12
  57              		.loc 1 96 35 is_stmt 0 view .LVU13
  58 0014 0293     		str	r3, [sp, #8]
  97:Core/Src/can_manager.c ****     filterConfig.FilterMaskIdLow = 0x0004;   // But we DO care about IDE bit (only extended)
  59              		.loc 1 97 5 is_stmt 1 view .LVU14
  60              		.loc 1 97 34 is_stmt 0 view .LVU15
  61 0016 0391     		str	r1, [sp, #12]
  98:Core/Src/can_manager.c ****     
  99:Core/Src/can_manager.c ****     filterConfig.FilterFIFOAssignment = CAN_RX_FIFO0;
  62              		.loc 1 99 5 is_stmt 1 view .LVU16
  63              		.loc 1 99 39 is_stmt 0 view .LVU17
  64 0018 0493     		str	r3, [sp, #16]
 100:Core/Src/can_manager.c ****     filterConfig.FilterActivation = ENABLE;
  65              		.loc 1 100 5 is_stmt 1 view .LVU18
  66              		.loc 1 100 35 is_stmt 0 view .LVU19
  67 001a 0892     		str	r2, [sp, #32]
 101:Core/Src/can_manager.c ****     filterConfig.SlaveStartFilterBank = 14;
  68              		.loc 1 101 5 is_stmt 1 view .LVU20
  69              		.loc 1 101 39 is_stmt 0 view .LVU21
  70 001c 0E23     		movs	r3, #14
  71 001e 0993     		str	r3, [sp, #36]
ARM GAS  C:\Users\Ali\AppData\Local\Temp\cc4pL5T6.s 			page 4


 102:Core/Src/can_manager.c ****     
 103:Core/Src/can_manager.c ****     HAL_CAN_ConfigFilter(&hcan1, &filterConfig);
  72              		.loc 1 103 5 is_stmt 1 view .LVU22
  73 0020 6946     		mov	r1, sp
  74 0022 0348     		ldr	r0, .L3
  75 0024 FFF7FEFF 		bl	HAL_CAN_ConfigFilter
  76              	.LVL0:
 104:Core/Src/can_manager.c **** }
  77              		.loc 1 104 1 is_stmt 0 view .LVU23
  78 0028 0BB0     		add	sp, sp, #44
  79              		.cfi_def_cfa_offset 4
  80              		@ sp needed
  81 002a 5DF804FB 		ldr	pc, [sp], #4
  82              	.L4:
  83 002e 00BF     		.align	2
  84              	.L3:
  85 0030 00000000 		.word	hcan1
  86              		.cfi_endproc
  87              	.LFE293:
  89              		.section	.text.CAN_TransmitMessage,"ax",%progbits
  90              		.align	1
  91              		.syntax unified
  92              		.thumb
  93              		.thumb_func
  95              	CAN_TransmitMessage:
  96              	.LVL1:
  97              	.LFB297:
 105:Core/Src/can_manager.c **** 
 106:Core/Src/can_manager.c **** /**
 107:Core/Src/can_manager.c ****   * @brief  Reconfigure CAN filters for new module ID
 108:Core/Src/can_manager.c ****   * @note   Call this after changing module ID to update RX filters
 109:Core/Src/can_manager.c ****   * @retval HAL_StatusTypeDef
 110:Core/Src/can_manager.c ****   */
 111:Core/Src/can_manager.c **** HAL_StatusTypeDef CAN_ReconfigureFilters(void)
 112:Core/Src/can_manager.c **** {
 113:Core/Src/can_manager.c ****     // Reconfigure filters with new module ID
 114:Core/Src/can_manager.c ****     CAN_ConfigureFilters();
 115:Core/Src/can_manager.c ****     return HAL_OK;
 116:Core/Src/can_manager.c **** }
 117:Core/Src/can_manager.c **** 
 118:Core/Src/can_manager.c **** /**
 119:Core/Src/can_manager.c ****   * @brief  Send CAN message (non-blocking, queues message)
 120:Core/Src/can_manager.c ****   * @param  id: CAN message ID (29-bit extended, max 0x1FFFFFFF)
 121:Core/Src/can_manager.c ****   * @param  data: Pointer to data buffer (up to 8 bytes)
 122:Core/Src/can_manager.c ****   * @param  length: Data length (0-8 bytes)
 123:Core/Src/can_manager.c ****   * @param  priority: Message priority (0 = highest, 3 = lowest)
 124:Core/Src/can_manager.c ****   * @retval HAL_StatusTypeDef
 125:Core/Src/can_manager.c ****   */
 126:Core/Src/can_manager.c **** HAL_StatusTypeDef CAN_SendMessage(uint32_t id, uint8_t *data, uint8_t length, uint8_t priority)
 127:Core/Src/can_manager.c **** {
 128:Core/Src/can_manager.c ****     CAN_Message_t msg;
 129:Core/Src/can_manager.c ****     
 130:Core/Src/can_manager.c ****     // Validate inputs (29-bit extended ID max)
 131:Core/Src/can_manager.c ****     if (length > 8 || id > 0x1FFFFFFF) {
 132:Core/Src/can_manager.c ****         return HAL_ERROR;
 133:Core/Src/can_manager.c ****     }
 134:Core/Src/can_manager.c ****     
ARM GAS  C:\Users\Ali\AppData\Local\Temp\cc4pL5T6.s 			page 5


 135:Core/Src/can_manager.c ****     // ID is already configured with module offset at startup
 136:Core/Src/can_manager.c ****     // No need to apply offset here anymore
 137:Core/Src/can_manager.c ****     
 138:Core/Src/can_manager.c ****     // Prepare message
 139:Core/Src/can_manager.c ****     msg.id = id;
 140:Core/Src/can_manager.c ****     msg.length = length;
 141:Core/Src/can_manager.c ****     msg.priority = priority;
 142:Core/Src/can_manager.c ****     msg.timestamp = osKernelGetTickCount();
 143:Core/Src/can_manager.c ****     
 144:Core/Src/can_manager.c ****     // Copy data
 145:Core/Src/can_manager.c ****     if (data != NULL && length > 0) {
 146:Core/Src/can_manager.c ****         memcpy(msg.data, data, length);
 147:Core/Src/can_manager.c ****     }
 148:Core/Src/can_manager.c ****     
 149:Core/Src/can_manager.c ****     // Add to queue (non-blocking with timeout in ms)
 150:Core/Src/can_manager.c ****     if (osMessageQueuePut(CANTxQueueHandle, &msg, priority, CAN_TX_TIMEOUT_MS) != osOK) {
 151:Core/Src/can_manager.c ****         can_stats.tx_queue_full_count++;
 152:Core/Src/can_manager.c ****         return HAL_ERROR;
 153:Core/Src/can_manager.c ****     }
 154:Core/Src/can_manager.c ****     
 155:Core/Src/can_manager.c ****     return HAL_OK;
 156:Core/Src/can_manager.c **** }
 157:Core/Src/can_manager.c **** 
 158:Core/Src/can_manager.c **** /**
 159:Core/Src/can_manager.c ****   * @brief  Send CAN message with extended ID (legacy compatibility)
 160:Core/Src/can_manager.c ****   * @note   All IDs are extended in this application, this calls CAN_SendMessage
 161:Core/Src/can_manager.c ****   * @param  id: Extended CAN message ID (29-bit)
 162:Core/Src/can_manager.c ****   * @param  data: Pointer to data buffer (up to 8 bytes)
 163:Core/Src/can_manager.c ****   * @param  length: Data length (0-8 bytes)
 164:Core/Src/can_manager.c ****   * @param  priority: Message priority (0 = highest, 3 = lowest)
 165:Core/Src/can_manager.c ****   * @retval HAL_StatusTypeDef
 166:Core/Src/can_manager.c ****   */
 167:Core/Src/can_manager.c **** HAL_StatusTypeDef CAN_SendMessageExt(uint32_t id, uint8_t *data, uint8_t length, uint8_t priority)
 168:Core/Src/can_manager.c **** {
 169:Core/Src/can_manager.c ****     // Simply call CAN_SendMessage since all IDs are extended
 170:Core/Src/can_manager.c ****     return CAN_SendMessage(id, data, length, priority);
 171:Core/Src/can_manager.c **** }
 172:Core/Src/can_manager.c **** 
 173:Core/Src/can_manager.c **** /**
 174:Core/Src/can_manager.c ****   * @brief  Transmit single message to CAN hardware
 175:Core/Src/can_manager.c ****   * @param  msg: Pointer to message structure
 176:Core/Src/can_manager.c ****   * @retval HAL_StatusTypeDef
 177:Core/Src/can_manager.c ****   */
 178:Core/Src/can_manager.c **** static HAL_StatusTypeDef CAN_TransmitMessage(CAN_Message_t *msg)
 179:Core/Src/can_manager.c **** {
  98              		.loc 1 179 1 is_stmt 1 view -0
  99              		.cfi_startproc
 100              		@ args = 0, pretend = 0, frame = 32
 101              		@ frame_needed = 0, uses_anonymous_args = 0
 102              		.loc 1 179 1 is_stmt 0 view .LVU25
 103 0000 30B5     		push	{r4, r5, lr}
 104              		.cfi_def_cfa_offset 12
 105              		.cfi_offset 4, -12
 106              		.cfi_offset 5, -8
 107              		.cfi_offset 14, -4
 108 0002 89B0     		sub	sp, sp, #36
 109              		.cfi_def_cfa_offset 48
ARM GAS  C:\Users\Ali\AppData\Local\Temp\cc4pL5T6.s 			page 6


 110 0004 0546     		mov	r5, r0
 180:Core/Src/can_manager.c ****     CAN_TxHeaderTypeDef TxHeader;
 111              		.loc 1 180 5 is_stmt 1 view .LVU26
 181:Core/Src/can_manager.c ****     uint32_t TxMailbox;
 112              		.loc 1 181 5 view .LVU27
 182:Core/Src/can_manager.c ****     HAL_StatusTypeDef status;
 113              		.loc 1 182 5 view .LVU28
 183:Core/Src/can_manager.c ****     uint8_t retry_count = 0;
 114              		.loc 1 183 5 view .LVU29
 115              	.LVL2:
 184:Core/Src/can_manager.c ****     
 185:Core/Src/can_manager.c ****     // Configure TX header for extended ID
 186:Core/Src/can_manager.c ****     TxHeader.ExtId = msg->id;
 116              		.loc 1 186 5 view .LVU30
 117              		.loc 1 186 25 is_stmt 0 view .LVU31
 118 0006 0368     		ldr	r3, [r0]
 119              		.loc 1 186 20 view .LVU32
 120 0008 0393     		str	r3, [sp, #12]
 187:Core/Src/can_manager.c ****     TxHeader.StdId = 0;
 121              		.loc 1 187 5 is_stmt 1 view .LVU33
 122              		.loc 1 187 20 is_stmt 0 view .LVU34
 123 000a 0024     		movs	r4, #0
 124 000c 0294     		str	r4, [sp, #8]
 188:Core/Src/can_manager.c ****     TxHeader.RTR = CAN_RTR_DATA;
 125              		.loc 1 188 5 is_stmt 1 view .LVU35
 126              		.loc 1 188 18 is_stmt 0 view .LVU36
 127 000e 0594     		str	r4, [sp, #20]
 189:Core/Src/can_manager.c ****     TxHeader.IDE = CAN_ID_EXT;
 128              		.loc 1 189 5 is_stmt 1 view .LVU37
 129              		.loc 1 189 18 is_stmt 0 view .LVU38
 130 0010 0423     		movs	r3, #4
 131 0012 0493     		str	r3, [sp, #16]
 190:Core/Src/can_manager.c ****     TxHeader.DLC = msg->length;
 132              		.loc 1 190 5 is_stmt 1 view .LVU39
 133              		.loc 1 190 23 is_stmt 0 view .LVU40
 134 0014 037B     		ldrb	r3, [r0, #12]	@ zero_extendqisi2
 135              		.loc 1 190 18 view .LVU41
 136 0016 0693     		str	r3, [sp, #24]
 191:Core/Src/can_manager.c ****     TxHeader.TransmitGlobalTime = DISABLE;
 137              		.loc 1 191 5 is_stmt 1 view .LVU42
 138              		.loc 1 191 33 is_stmt 0 view .LVU43
 139 0018 8DF81C40 		strb	r4, [sp, #28]
 192:Core/Src/can_manager.c ****     
 193:Core/Src/can_manager.c ****     // Attempt transmission with retries
 194:Core/Src/can_manager.c ****     while (retry_count < CAN_MAX_RETRIES) {
 140              		.loc 1 194 5 is_stmt 1 view .LVU44
 141              	.LVL3:
 142              	.L6:
 143              		.loc 1 194 24 view .LVU45
 144 001c 022C     		cmp	r4, #2
 145 001e 14D8     		bhi	.L9
 195:Core/Src/can_manager.c ****         status = HAL_CAN_AddTxMessage(&hcan1, &TxHeader, msg->data, &TxMailbox);
 146              		.loc 1 195 9 view .LVU46
 147              		.loc 1 195 18 is_stmt 0 view .LVU47
 148 0020 01AB     		add	r3, sp, #4
 149 0022 2A1D     		adds	r2, r5, #4
 150 0024 02A9     		add	r1, sp, #8
ARM GAS  C:\Users\Ali\AppData\Local\Temp\cc4pL5T6.s 			page 7


 151 0026 0D48     		ldr	r0, .L13
 152 0028 FFF7FEFF 		bl	HAL_CAN_AddTxMessage
 153              	.LVL4:
 196:Core/Src/can_manager.c ****         
 197:Core/Src/can_manager.c ****         if (status == HAL_OK) {
 154              		.loc 1 197 9 is_stmt 1 view .LVU48
 155              		.loc 1 197 12 is_stmt 0 view .LVU49
 156 002c 0346     		mov	r3, r0
 157 002e 38B1     		cbz	r0, .L12
 198:Core/Src/can_manager.c ****             can_stats.tx_success_count++;
 199:Core/Src/can_manager.c ****             return HAL_OK;
 200:Core/Src/can_manager.c ****         }
 201:Core/Src/can_manager.c ****         
 202:Core/Src/can_manager.c ****         retry_count++;
 158              		.loc 1 202 9 is_stmt 1 view .LVU50
 159              		.loc 1 202 20 is_stmt 0 view .LVU51
 160 0030 0134     		adds	r4, r4, #1
 161              	.LVL5:
 162              		.loc 1 202 20 view .LVU52
 163 0032 E4B2     		uxtb	r4, r4
 164              	.LVL6:
 203:Core/Src/can_manager.c ****         
 204:Core/Src/can_manager.c ****         // Brief delay before retry (1ms)
 205:Core/Src/can_manager.c ****         if (retry_count < CAN_MAX_RETRIES) {
 165              		.loc 1 205 9 is_stmt 1 view .LVU53
 166              		.loc 1 205 12 is_stmt 0 view .LVU54
 167 0034 022C     		cmp	r4, #2
 168 0036 08D8     		bhi	.L9
 206:Core/Src/can_manager.c ****             osDelay(1);
 169              		.loc 1 206 13 is_stmt 1 view .LVU55
 170 0038 0120     		movs	r0, #1
 171              	.LVL7:
 172              		.loc 1 206 13 is_stmt 0 view .LVU56
 173 003a FFF7FEFF 		bl	osDelay
 174              	.LVL8:
 175              		.loc 1 206 13 view .LVU57
 176 003e EDE7     		b	.L6
 177              	.LVL9:
 178              	.L12:
 198:Core/Src/can_manager.c ****             can_stats.tx_success_count++;
 179              		.loc 1 198 13 is_stmt 1 view .LVU58
 198:Core/Src/can_manager.c ****             can_stats.tx_success_count++;
 180              		.loc 1 198 22 is_stmt 0 view .LVU59
 181 0040 0749     		ldr	r1, .L13+4
 182 0042 0A68     		ldr	r2, [r1]
 198:Core/Src/can_manager.c ****             can_stats.tx_success_count++;
 183              		.loc 1 198 39 view .LVU60
 184 0044 0132     		adds	r2, r2, #1
 185 0046 0A60     		str	r2, [r1]
 199:Core/Src/can_manager.c ****         }
 186              		.loc 1 199 13 is_stmt 1 view .LVU61
 199:Core/Src/can_manager.c ****         }
 187              		.loc 1 199 20 is_stmt 0 view .LVU62
 188 0048 04E0     		b	.L8
 189              	.LVL10:
 190              	.L9:
 207:Core/Src/can_manager.c ****         }
ARM GAS  C:\Users\Ali\AppData\Local\Temp\cc4pL5T6.s 			page 8


 208:Core/Src/can_manager.c ****     }
 209:Core/Src/can_manager.c ****     
 210:Core/Src/can_manager.c ****     // All retries failed
 211:Core/Src/can_manager.c ****     can_stats.tx_error_count++;
 191              		.loc 1 211 5 is_stmt 1 view .LVU63
 192              		.loc 1 211 14 is_stmt 0 view .LVU64
 193 004a 054A     		ldr	r2, .L13+4
 194 004c 5368     		ldr	r3, [r2, #4]
 195              		.loc 1 211 29 view .LVU65
 196 004e 0133     		adds	r3, r3, #1
 197 0050 5360     		str	r3, [r2, #4]
 212:Core/Src/can_manager.c ****     return HAL_ERROR;
 198              		.loc 1 212 5 is_stmt 1 view .LVU66
 199              		.loc 1 212 12 is_stmt 0 view .LVU67
 200 0052 0123     		movs	r3, #1
 201              	.L8:
 213:Core/Src/can_manager.c **** }
 202              		.loc 1 213 1 view .LVU68
 203 0054 1846     		mov	r0, r3
 204 0056 09B0     		add	sp, sp, #36
 205              		.cfi_def_cfa_offset 12
 206              		@ sp needed
 207 0058 30BD     		pop	{r4, r5, pc}
 208              	.LVL11:
 209              	.L14:
 210              		.loc 1 213 1 view .LVU69
 211 005a 00BF     		.align	2
 212              	.L13:
 213 005c 00000000 		.word	hcan1
 214 0060 00000000 		.word	can_stats
 215              		.cfi_endproc
 216              	.LFE297:
 218              		.section	.text.CAN_ProcessTxQueue,"ax",%progbits
 219              		.align	1
 220              		.syntax unified
 221              		.thumb
 222              		.thumb_func
 224              	CAN_ProcessTxQueue:
 225              	.LFB298:
 214:Core/Src/can_manager.c **** 
 215:Core/Src/can_manager.c **** /**
 216:Core/Src/can_manager.c ****   * @brief  Process TX queue and transmit messages
 217:Core/Src/can_manager.c ****   * @retval None
 218:Core/Src/can_manager.c ****   */
 219:Core/Src/can_manager.c **** static void CAN_ProcessTxQueue(void)
 220:Core/Src/can_manager.c **** {
 226              		.loc 1 220 1 is_stmt 1 view -0
 227              		.cfi_startproc
 228              		@ args = 0, pretend = 0, frame = 24
 229              		@ frame_needed = 0, uses_anonymous_args = 0
 230 0000 00B5     		push	{lr}
 231              		.cfi_def_cfa_offset 4
 232              		.cfi_offset 14, -4
 233 0002 87B0     		sub	sp, sp, #28
 234              		.cfi_def_cfa_offset 32
 221:Core/Src/can_manager.c ****     CAN_Message_t msg;
 235              		.loc 1 221 5 view .LVU71
ARM GAS  C:\Users\Ali\AppData\Local\Temp\cc4pL5T6.s 			page 9


 222:Core/Src/can_manager.c ****     
 223:Core/Src/can_manager.c ****     // Try to send as many messages as possible
 224:Core/Src/can_manager.c ****     while (osMessageQueueGet(CANTxQueueHandle, &msg, NULL, 0) == osOK) {
 236              		.loc 1 224 5 view .LVU72
 237              	.L16:
 238              		.loc 1 224 63 view .LVU73
 239              		.loc 1 224 12 is_stmt 0 view .LVU74
 240 0004 0023     		movs	r3, #0
 241 0006 1A46     		mov	r2, r3
 242 0008 01A9     		add	r1, sp, #4
 243 000a 0648     		ldr	r0, .L20
 244 000c 0068     		ldr	r0, [r0]
 245 000e FFF7FEFF 		bl	osMessageQueueGet
 246              	.LVL12:
 247              		.loc 1 224 63 discriminator 1 view .LVU75
 248 0012 20B9     		cbnz	r0, .L15
 225:Core/Src/can_manager.c ****         // Transmit the message
 226:Core/Src/can_manager.c ****         if (CAN_TransmitMessage(&msg) != HAL_OK) {
 249              		.loc 1 226 9 is_stmt 1 view .LVU76
 250              		.loc 1 226 13 is_stmt 0 view .LVU77
 251 0014 01A8     		add	r0, sp, #4
 252 0016 FFF7FEFF 		bl	CAN_TransmitMessage
 253              	.LVL13:
 254              		.loc 1 226 12 discriminator 1 view .LVU78
 255 001a 0028     		cmp	r0, #0
 256 001c F2D0     		beq	.L16
 257              	.L15:
 227:Core/Src/can_manager.c ****             // If transmission failed, could re-queue message here if desired
 228:Core/Src/can_manager.c ****             // For now, we just count it as an error
 229:Core/Src/can_manager.c ****             break;  // Stop processing queue if hardware is busy
 230:Core/Src/can_manager.c ****         }
 231:Core/Src/can_manager.c ****     }
 232:Core/Src/can_manager.c **** }
 258              		.loc 1 232 1 view .LVU79
 259 001e 07B0     		add	sp, sp, #28
 260              		.cfi_def_cfa_offset 4
 261              		@ sp needed
 262 0020 5DF804FB 		ldr	pc, [sp], #4
 263              	.L21:
 264              		.align	2
 265              	.L20:
 266 0024 00000000 		.word	CANTxQueueHandle
 267              		.cfi_endproc
 268              	.LFE298:
 270              		.section	.text.CAN_ReconfigureFilters,"ax",%progbits
 271              		.align	1
 272              		.global	CAN_ReconfigureFilters
 273              		.syntax unified
 274              		.thumb
 275              		.thumb_func
 277              	CAN_ReconfigureFilters:
 278              	.LFB294:
 112:Core/Src/can_manager.c ****     // Reconfigure filters with new module ID
 279              		.loc 1 112 1 is_stmt 1 view -0
 280              		.cfi_startproc
 281              		@ args = 0, pretend = 0, frame = 0
 282              		@ frame_needed = 0, uses_anonymous_args = 0
ARM GAS  C:\Users\Ali\AppData\Local\Temp\cc4pL5T6.s 			page 10


 283 0000 08B5     		push	{r3, lr}
 284              		.cfi_def_cfa_offset 8
 285              		.cfi_offset 3, -8
 286              		.cfi_offset 14, -4
 114:Core/Src/can_manager.c ****     return HAL_OK;
 287              		.loc 1 114 5 view .LVU81
 288 0002 FFF7FEFF 		bl	CAN_ConfigureFilters
 289              	.LVL14:
 115:Core/Src/can_manager.c **** }
 290              		.loc 1 115 5 view .LVU82
 116:Core/Src/can_manager.c **** 
 291              		.loc 1 116 1 is_stmt 0 view .LVU83
 292 0006 0020     		movs	r0, #0
 293 0008 08BD     		pop	{r3, pc}
 294              		.cfi_endproc
 295              	.LFE294:
 297              		.section	.text.CAN_SendMessage,"ax",%progbits
 298              		.align	1
 299              		.global	CAN_SendMessage
 300              		.syntax unified
 301              		.thumb
 302              		.thumb_func
 304              	CAN_SendMessage:
 305              	.LVL15:
 306              	.LFB295:
 127:Core/Src/can_manager.c ****     CAN_Message_t msg;
 307              		.loc 1 127 1 is_stmt 1 view -0
 308              		.cfi_startproc
 309              		@ args = 0, pretend = 0, frame = 24
 310              		@ frame_needed = 0, uses_anonymous_args = 0
 128:Core/Src/can_manager.c ****     
 311              		.loc 1 128 5 view .LVU85
 131:Core/Src/can_manager.c ****         return HAL_ERROR;
 312              		.loc 1 131 5 view .LVU86
 131:Core/Src/can_manager.c ****         return HAL_ERROR;
 313              		.loc 1 131 8 is_stmt 0 view .LVU87
 314 0000 082A     		cmp	r2, #8
 315 0002 2AD8     		bhi	.L27
 127:Core/Src/can_manager.c ****     CAN_Message_t msg;
 316              		.loc 1 127 1 view .LVU88
 317 0004 70B5     		push	{r4, r5, r6, lr}
 318              		.cfi_def_cfa_offset 16
 319              		.cfi_offset 4, -16
 320              		.cfi_offset 5, -12
 321              		.cfi_offset 6, -8
 322              		.cfi_offset 14, -4
 323 0006 86B0     		sub	sp, sp, #24
 324              		.cfi_def_cfa_offset 40
 325 0008 0E46     		mov	r6, r1
 326 000a 1446     		mov	r4, r2
 327 000c 1D46     		mov	r5, r3
 131:Core/Src/can_manager.c ****         return HAL_ERROR;
 328              		.loc 1 131 20 discriminator 1 view .LVU89
 329 000e B0F1005F 		cmp	r0, #536870912
 330 0012 02D3     		bcc	.L34
 132:Core/Src/can_manager.c ****     }
 331              		.loc 1 132 16 view .LVU90
ARM GAS  C:\Users\Ali\AppData\Local\Temp\cc4pL5T6.s 			page 11


 332 0014 0120     		movs	r0, #1
 333              	.LVL16:
 334              	.L25:
 156:Core/Src/can_manager.c **** 
 335              		.loc 1 156 1 view .LVU91
 336 0016 06B0     		add	sp, sp, #24
 337              		.cfi_remember_state
 338              		.cfi_def_cfa_offset 16
 339              		@ sp needed
 340 0018 70BD     		pop	{r4, r5, r6, pc}
 341              	.LVL17:
 342              	.L34:
 343              		.cfi_restore_state
 139:Core/Src/can_manager.c ****     msg.length = length;
 344              		.loc 1 139 5 is_stmt 1 view .LVU92
 139:Core/Src/can_manager.c ****     msg.length = length;
 345              		.loc 1 139 12 is_stmt 0 view .LVU93
 346 001a 0190     		str	r0, [sp, #4]
 140:Core/Src/can_manager.c ****     msg.priority = priority;
 347              		.loc 1 140 5 is_stmt 1 view .LVU94
 140:Core/Src/can_manager.c ****     msg.priority = priority;
 348              		.loc 1 140 16 is_stmt 0 view .LVU95
 349 001c 8DF81020 		strb	r2, [sp, #16]
 141:Core/Src/can_manager.c ****     msg.timestamp = osKernelGetTickCount();
 350              		.loc 1 141 5 is_stmt 1 view .LVU96
 141:Core/Src/can_manager.c ****     msg.timestamp = osKernelGetTickCount();
 351              		.loc 1 141 18 is_stmt 0 view .LVU97
 352 0020 8DF81130 		strb	r3, [sp, #17]
 142:Core/Src/can_manager.c ****     
 353              		.loc 1 142 5 is_stmt 1 view .LVU98
 142:Core/Src/can_manager.c ****     
 354              		.loc 1 142 21 is_stmt 0 view .LVU99
 355 0024 FFF7FEFF 		bl	osKernelGetTickCount
 356              	.LVL18:
 142:Core/Src/can_manager.c ****     
 357              		.loc 1 142 19 discriminator 1 view .LVU100
 358 0028 0590     		str	r0, [sp, #20]
 145:Core/Src/can_manager.c ****         memcpy(msg.data, data, length);
 359              		.loc 1 145 5 is_stmt 1 view .LVU101
 145:Core/Src/can_manager.c ****         memcpy(msg.data, data, length);
 360              		.loc 1 145 8 is_stmt 0 view .LVU102
 361 002a 06B1     		cbz	r6, .L26
 145:Core/Src/can_manager.c ****         memcpy(msg.data, data, length);
 362              		.loc 1 145 22 discriminator 1 view .LVU103
 363 002c 4CB9     		cbnz	r4, .L35
 364              	.L26:
 150:Core/Src/can_manager.c ****         can_stats.tx_queue_full_count++;
 365              		.loc 1 150 5 is_stmt 1 view .LVU104
 150:Core/Src/can_manager.c ****         can_stats.tx_queue_full_count++;
 366              		.loc 1 150 9 is_stmt 0 view .LVU105
 367 002e 6423     		movs	r3, #100
 368 0030 2A46     		mov	r2, r5
 369 0032 01A9     		add	r1, sp, #4
 370 0034 0A48     		ldr	r0, .L37
 371 0036 0068     		ldr	r0, [r0]
 372 0038 FFF7FEFF 		bl	osMessageQueuePut
 373              	.LVL19:
ARM GAS  C:\Users\Ali\AppData\Local\Temp\cc4pL5T6.s 			page 12


 150:Core/Src/can_manager.c ****         can_stats.tx_queue_full_count++;
 374              		.loc 1 150 8 discriminator 1 view .LVU106
 375 003c 38B9     		cbnz	r0, .L36
 155:Core/Src/can_manager.c **** }
 376              		.loc 1 155 12 view .LVU107
 377 003e 0020     		movs	r0, #0
 378 0040 E9E7     		b	.L25
 379              	.L35:
 146:Core/Src/can_manager.c ****     }
 380              		.loc 1 146 9 is_stmt 1 view .LVU108
 381 0042 2246     		mov	r2, r4
 382 0044 3146     		mov	r1, r6
 383 0046 02A8     		add	r0, sp, #8
 384 0048 FFF7FEFF 		bl	memcpy
 385              	.LVL20:
 386 004c EFE7     		b	.L26
 387              	.L36:
 151:Core/Src/can_manager.c ****         return HAL_ERROR;
 388              		.loc 1 151 9 view .LVU109
 151:Core/Src/can_manager.c ****         return HAL_ERROR;
 389              		.loc 1 151 18 is_stmt 0 view .LVU110
 390 004e 054A     		ldr	r2, .L37+4
 391 0050 9368     		ldr	r3, [r2, #8]
 151:Core/Src/can_manager.c ****         return HAL_ERROR;
 392              		.loc 1 151 38 view .LVU111
 393 0052 0133     		adds	r3, r3, #1
 394 0054 9360     		str	r3, [r2, #8]
 152:Core/Src/can_manager.c ****     }
 395              		.loc 1 152 9 is_stmt 1 view .LVU112
 152:Core/Src/can_manager.c ****     }
 396              		.loc 1 152 16 is_stmt 0 view .LVU113
 397 0056 0120     		movs	r0, #1
 398 0058 DDE7     		b	.L25
 399              	.LVL21:
 400              	.L27:
 401              		.cfi_def_cfa_offset 0
 402              		.cfi_restore 4
 403              		.cfi_restore 5
 404              		.cfi_restore 6
 405              		.cfi_restore 14
 132:Core/Src/can_manager.c ****     }
 406              		.loc 1 132 16 view .LVU114
 407 005a 0120     		movs	r0, #1
 408              	.LVL22:
 156:Core/Src/can_manager.c **** 
 409              		.loc 1 156 1 view .LVU115
 410 005c 7047     		bx	lr
 411              	.L38:
 412 005e 00BF     		.align	2
 413              	.L37:
 414 0060 00000000 		.word	CANTxQueueHandle
 415 0064 00000000 		.word	can_stats
 416              		.cfi_endproc
 417              	.LFE295:
 419              		.section	.text.CAN_SendMessageExt,"ax",%progbits
 420              		.align	1
 421              		.global	CAN_SendMessageExt
ARM GAS  C:\Users\Ali\AppData\Local\Temp\cc4pL5T6.s 			page 13


 422              		.syntax unified
 423              		.thumb
 424              		.thumb_func
 426              	CAN_SendMessageExt:
 427              	.LVL23:
 428              	.LFB296:
 168:Core/Src/can_manager.c ****     // Simply call CAN_SendMessage since all IDs are extended
 429              		.loc 1 168 1 is_stmt 1 view -0
 430              		.cfi_startproc
 431              		@ args = 0, pretend = 0, frame = 0
 432              		@ frame_needed = 0, uses_anonymous_args = 0
 168:Core/Src/can_manager.c ****     // Simply call CAN_SendMessage since all IDs are extended
 433              		.loc 1 168 1 is_stmt 0 view .LVU117
 434 0000 08B5     		push	{r3, lr}
 435              		.cfi_def_cfa_offset 8
 436              		.cfi_offset 3, -8
 437              		.cfi_offset 14, -4
 170:Core/Src/can_manager.c **** }
 438              		.loc 1 170 5 is_stmt 1 view .LVU118
 170:Core/Src/can_manager.c **** }
 439              		.loc 1 170 12 is_stmt 0 view .LVU119
 440 0002 FFF7FEFF 		bl	CAN_SendMessage
 441              	.LVL24:
 171:Core/Src/can_manager.c **** 
 442              		.loc 1 171 1 view .LVU120
 443 0006 08BD     		pop	{r3, pc}
 444              		.cfi_endproc
 445              	.LFE296:
 447              		.section	.text.CAN_RegisterRxCallback,"ax",%progbits
 448              		.align	1
 449              		.global	CAN_RegisterRxCallback
 450              		.syntax unified
 451              		.thumb
 452              		.thumb_func
 454              	CAN_RegisterRxCallback:
 455              	.LVL25:
 456              	.LFB301:
 233:Core/Src/can_manager.c **** 
 234:Core/Src/can_manager.c **** /**
 235:Core/Src/can_manager.c ****   * @brief  Process received CAN message
 236:Core/Src/can_manager.c ****   * @param  msg: Pointer to received message
 237:Core/Src/can_manager.c ****   * @retval None
 238:Core/Src/can_manager.c ****   */
 239:Core/Src/can_manager.c **** static void CAN_ProcessRxMessage(CAN_Message_t *msg)
 240:Core/Src/can_manager.c **** {
 241:Core/Src/can_manager.c ****     can_stats.rx_message_count++;
 242:Core/Src/can_manager.c ****     
 243:Core/Src/can_manager.c ****     // Check for configuration command message
 244:Core/Src/can_manager.c ****     // Hardware filter already ensures this is for our module ID
 245:Core/Src/can_manager.c ****     uint32_t base_id = msg->id & 0xFFFF0FFF;  // Strip module ID to get base ID
 246:Core/Src/can_manager.c ****     if (base_id == (CAN_CONFIG_CMD_ID & 0xFFFF0FFF)) {
 247:Core/Src/can_manager.c ****         // Process configuration command
 248:Core/Src/can_manager.c ****         Config_ProcessCANCommand(msg->data, msg->length);
 249:Core/Src/can_manager.c ****         return;
 250:Core/Src/can_manager.c ****     }
 251:Core/Src/can_manager.c ****     
 252:Core/Src/can_manager.c ****     // Check for debug info request (broadcast message - no module ID)
ARM GAS  C:\Users\Ali\AppData\Local\Temp\cc4pL5T6.s 			page 14


 253:Core/Src/can_manager.c ****     if (msg->id == CAN_DEBUG_REQUEST_ID) {
 254:Core/Src/can_manager.c ****         // Send debug info response
 255:Core/Src/can_manager.c ****         CAN_SendDebugInfo();
 256:Core/Src/can_manager.c ****         return;
 257:Core/Src/can_manager.c ****     }
 258:Core/Src/can_manager.c ****     
 259:Core/Src/can_manager.c ****     // Call registered callback if available
 260:Core/Src/can_manager.c ****     if (rx_callback != NULL) {
 261:Core/Src/can_manager.c ****         rx_callback(msg);
 262:Core/Src/can_manager.c ****     }
 263:Core/Src/can_manager.c ****     
 264:Core/Src/can_manager.c ****     // Add your message processing logic here
 265:Core/Src/can_manager.c ****     // Example: Switch based on message ID
 266:Core/Src/can_manager.c ****     switch (msg->id) {
 267:Core/Src/can_manager.c ****         case 0x100:
 268:Core/Src/can_manager.c ****             // Handle message ID 0x100
 269:Core/Src/can_manager.c ****             // TODO: Add your message handling logic
 270:Core/Src/can_manager.c ****             break;
 271:Core/Src/can_manager.c ****             
 272:Core/Src/can_manager.c ****         case 0x200:
 273:Core/Src/can_manager.c ****             // Handle message ID 0x200
 274:Core/Src/can_manager.c ****             // TODO: Add your message handling logic
 275:Core/Src/can_manager.c ****             break;
 276:Core/Src/can_manager.c ****             
 277:Core/Src/can_manager.c ****         default:
 278:Core/Src/can_manager.c ****             // Unknown message ID
 279:Core/Src/can_manager.c ****             break;
 280:Core/Src/can_manager.c ****     }
 281:Core/Src/can_manager.c **** }
 282:Core/Src/can_manager.c **** 
 283:Core/Src/can_manager.c **** /**
 284:Core/Src/can_manager.c ****   * @brief  Main CAN manager task
 285:Core/Src/can_manager.c ****   * @param  argument: Not used
 286:Core/Src/can_manager.c ****   * @retval None
 287:Core/Src/can_manager.c ****   */
 288:Core/Src/can_manager.c **** void CAN_ManagerTask(void *argument)
 289:Core/Src/can_manager.c **** {
 290:Core/Src/can_manager.c ****     CAN_Message_t rx_msg;
 291:Core/Src/can_manager.c ****     uint32_t last_heartbeat_tick = 0;
 292:Core/Src/can_manager.c ****     uint32_t last_stats_tick = 0;
 293:Core/Src/can_manager.c ****     uint32_t last_uptime_tick = 0;
 294:Core/Src/can_manager.c ****     uint32_t current_tick = 0;
 295:Core/Src/can_manager.c ****     
 296:Core/Src/can_manager.c ****     // Wait 100ms for system to stabilize
 297:Core/Src/can_manager.c ****     osDelay(100);
 298:Core/Src/can_manager.c ****     
 299:Core/Src/can_manager.c ****     // Initialize timing
 300:Core/Src/can_manager.c ****     last_heartbeat_tick = osKernelGetTickCount();
 301:Core/Src/can_manager.c ****     last_stats_tick = osKernelGetTickCount();
 302:Core/Src/can_manager.c ****     last_uptime_tick = osKernelGetTickCount();
 303:Core/Src/can_manager.c ****     
 304:Core/Src/can_manager.c ****     /* Infinite loop */
 305:Core/Src/can_manager.c ****     for(;;)
 306:Core/Src/can_manager.c ****     {
 307:Core/Src/can_manager.c ****         current_tick = osKernelGetTickCount();
 308:Core/Src/can_manager.c ****         
 309:Core/Src/can_manager.c ****         // Process any received messages from RX queue
ARM GAS  C:\Users\Ali\AppData\Local\Temp\cc4pL5T6.s 			page 15


 310:Core/Src/can_manager.c ****         while (osMessageQueueGet(CANRxQueueHandle, &rx_msg, NULL, 0) == osOK) {
 311:Core/Src/can_manager.c ****             CAN_ProcessRxMessage(&rx_msg);
 312:Core/Src/can_manager.c ****         }
 313:Core/Src/can_manager.c ****         
 314:Core/Src/can_manager.c ****         // Process TX queue and send pending messages
 315:Core/Src/can_manager.c ****         CAN_ProcessTxQueue();
 316:Core/Src/can_manager.c ****         
 317:Core/Src/can_manager.c ****         // Send heartbeat message at regular intervals
 318:Core/Src/can_manager.c ****         if ((current_tick - last_heartbeat_tick) >= CAN_HEARTBEAT_INTERVAL_MS) {
 319:Core/Src/can_manager.c ****             CAN_SendHeartbeat();
 320:Core/Src/can_manager.c ****             last_heartbeat_tick = current_tick;
 321:Core/Src/can_manager.c ****         }
 322:Core/Src/can_manager.c ****         
 323:Core/Src/can_manager.c ****         // Send statistics message at regular intervals (every 1 second)
 324:Core/Src/can_manager.c ****         if ((current_tick - last_stats_tick) >= 1000) {
 325:Core/Src/can_manager.c ****             CAN_SendStatistics();
 326:Core/Src/can_manager.c ****             last_stats_tick = current_tick;
 327:Core/Src/can_manager.c ****         }
 328:Core/Src/can_manager.c ****         
 329:Core/Src/can_manager.c ****         // Update uptime counter every second
 330:Core/Src/can_manager.c ****         if ((current_tick - last_uptime_tick) >= 1000) {
 331:Core/Src/can_manager.c ****             ErrorMgr_UpdateUptime();
 332:Core/Src/can_manager.c ****             last_uptime_tick = current_tick;
 333:Core/Src/can_manager.c ****         }
 334:Core/Src/can_manager.c ****         
 335:Core/Src/can_manager.c ****         // Small delay to prevent task from hogging CPU (10ms)
 336:Core/Src/can_manager.c ****         // The task will wake up on new messages or periodically
 337:Core/Src/can_manager.c ****         osDelay(10);
 338:Core/Src/can_manager.c ****     }
 339:Core/Src/can_manager.c **** }
 340:Core/Src/can_manager.c **** 
 341:Core/Src/can_manager.c **** /**
 342:Core/Src/can_manager.c ****   * @brief  Register callback for received CAN messages
 343:Core/Src/can_manager.c ****   * @param  callback: Function to call when message is received
 344:Core/Src/can_manager.c ****   * @retval None
 345:Core/Src/can_manager.c ****   */
 346:Core/Src/can_manager.c **** void CAN_RegisterRxCallback(CAN_RxCallback_t callback)
 347:Core/Src/can_manager.c **** {
 457              		.loc 1 347 1 is_stmt 1 view -0
 458              		.cfi_startproc
 459              		@ args = 0, pretend = 0, frame = 0
 460              		@ frame_needed = 0, uses_anonymous_args = 0
 461              		@ link register save eliminated.
 348:Core/Src/can_manager.c ****     rx_callback = callback;
 462              		.loc 1 348 5 view .LVU122
 463              		.loc 1 348 17 is_stmt 0 view .LVU123
 464 0000 014B     		ldr	r3, .L42
 465 0002 1860     		str	r0, [r3]
 349:Core/Src/can_manager.c **** }
 466              		.loc 1 349 1 view .LVU124
 467 0004 7047     		bx	lr
 468              	.L43:
 469 0006 00BF     		.align	2
 470              	.L42:
 471 0008 00000000 		.word	rx_callback
 472              		.cfi_endproc
 473              	.LFE301:
ARM GAS  C:\Users\Ali\AppData\Local\Temp\cc4pL5T6.s 			page 16


 475              		.section	.text.CAN_GetStatistics,"ax",%progbits
 476              		.align	1
 477              		.global	CAN_GetStatistics
 478              		.syntax unified
 479              		.thumb
 480              		.thumb_func
 482              	CAN_GetStatistics:
 483              	.LVL26:
 484              	.LFB302:
 350:Core/Src/can_manager.c **** 
 351:Core/Src/can_manager.c **** /**
 352:Core/Src/can_manager.c ****   * @brief  Get CAN statistics
 353:Core/Src/can_manager.c ****   * @param  stats: Pointer to statistics structure
 354:Core/Src/can_manager.c ****   * @retval None
 355:Core/Src/can_manager.c ****   */
 356:Core/Src/can_manager.c **** void CAN_GetStatistics(CAN_Statistics_t *stats)
 357:Core/Src/can_manager.c **** {
 485              		.loc 1 357 1 is_stmt 1 view -0
 486              		.cfi_startproc
 487              		@ args = 0, pretend = 0, frame = 0
 488              		@ frame_needed = 0, uses_anonymous_args = 0
 489              		@ link register save eliminated.
 358:Core/Src/can_manager.c ****     if (stats != NULL) {
 490              		.loc 1 358 5 view .LVU126
 491              		.loc 1 358 8 is_stmt 0 view .LVU127
 492 0000 98B1     		cbz	r0, .L47
 357:Core/Src/can_manager.c ****     if (stats != NULL) {
 493              		.loc 1 357 1 view .LVU128
 494 0002 10B4     		push	{r4}
 495              		.cfi_def_cfa_offset 4
 496              		.cfi_offset 4, -4
 497 0004 8446     		mov	ip, r0
 359:Core/Src/can_manager.c ****         memcpy(stats, &can_stats, sizeof(CAN_Statistics_t));
 498              		.loc 1 359 9 is_stmt 1 view .LVU129
 499 0006 094C     		ldr	r4, .L50
 500 0008 0FCC     		ldmia	r4!, {r0, r1, r2, r3}
 501              	.LVL27:
 502              		.loc 1 359 9 is_stmt 0 view .LVU130
 503 000a CCF80000 		str	r0, [ip]	@ unaligned
 504 000e CCF80410 		str	r1, [ip, #4]	@ unaligned
 505 0012 CCF80820 		str	r2, [ip, #8]	@ unaligned
 506 0016 CCF80C30 		str	r3, [ip, #12]	@ unaligned
 507 001a 03CC     		ldmia	r4!, {r0, r1}
 508 001c CCF81000 		str	r0, [ip, #16]	@ unaligned
 509 0020 CCF81410 		str	r1, [ip, #20]	@ unaligned
 360:Core/Src/can_manager.c ****     }
 361:Core/Src/can_manager.c **** }
 510              		.loc 1 361 1 view .LVU131
 511 0024 5DF8044B 		ldr	r4, [sp], #4
 512              		.cfi_restore 4
 513              		.cfi_def_cfa_offset 0
 514 0028 7047     		bx	lr
 515              	.LVL28:
 516              	.L47:
 517              		.loc 1 361 1 view .LVU132
 518 002a 7047     		bx	lr
 519              	.L51:
ARM GAS  C:\Users\Ali\AppData\Local\Temp\cc4pL5T6.s 			page 17


 520              		.align	2
 521              	.L50:
 522 002c 00000000 		.word	can_stats
 523              		.cfi_endproc
 524              	.LFE302:
 526              		.section	.text.CAN_ResetStatistics,"ax",%progbits
 527              		.align	1
 528              		.global	CAN_ResetStatistics
 529              		.syntax unified
 530              		.thumb
 531              		.thumb_func
 533              	CAN_ResetStatistics:
 534              	.LFB303:
 362:Core/Src/can_manager.c **** 
 363:Core/Src/can_manager.c **** /**
 364:Core/Src/can_manager.c ****   * @brief  Reset CAN statistics
 365:Core/Src/can_manager.c ****   * @retval None
 366:Core/Src/can_manager.c ****   */
 367:Core/Src/can_manager.c **** void CAN_ResetStatistics(void)
 368:Core/Src/can_manager.c **** {
 535              		.loc 1 368 1 is_stmt 1 view -0
 536              		.cfi_startproc
 537              		@ args = 0, pretend = 0, frame = 0
 538              		@ frame_needed = 0, uses_anonymous_args = 0
 539              		@ link register save eliminated.
 369:Core/Src/can_manager.c ****     memset(&can_stats, 0, sizeof(CAN_Statistics_t));
 540              		.loc 1 369 5 view .LVU134
 541 0000 044B     		ldr	r3, .L53
 542 0002 0022     		movs	r2, #0
 543 0004 1A60     		str	r2, [r3]
 544 0006 5A60     		str	r2, [r3, #4]
 545 0008 9A60     		str	r2, [r3, #8]
 546 000a DA60     		str	r2, [r3, #12]
 547 000c 1A61     		str	r2, [r3, #16]
 548 000e 5A61     		str	r2, [r3, #20]
 370:Core/Src/can_manager.c **** }
 549              		.loc 1 370 1 is_stmt 0 view .LVU135
 550 0010 7047     		bx	lr
 551              	.L54:
 552 0012 00BF     		.align	2
 553              	.L53:
 554 0014 00000000 		.word	can_stats
 555              		.cfi_endproc
 556              	.LFE303:
 558              		.section	.text.CAN_Manager_Init,"ax",%progbits
 559              		.align	1
 560              		.global	CAN_Manager_Init
 561              		.syntax unified
 562              		.thumb
 563              		.thumb_func
 565              	CAN_Manager_Init:
 566              	.LFB292:
  46:Core/Src/can_manager.c ****     // Create TX message queue
 567              		.loc 1 46 1 is_stmt 1 view -0
 568              		.cfi_startproc
 569              		@ args = 0, pretend = 0, frame = 0
 570              		@ frame_needed = 0, uses_anonymous_args = 0
ARM GAS  C:\Users\Ali\AppData\Local\Temp\cc4pL5T6.s 			page 18


 571 0000 10B5     		push	{r4, lr}
 572              		.cfi_def_cfa_offset 8
 573              		.cfi_offset 4, -8
 574              		.cfi_offset 14, -4
  48:Core/Src/can_manager.c ****     if (CANTxQueueHandle == NULL) {
 575              		.loc 1 48 5 view .LVU137
  48:Core/Src/can_manager.c ****     if (CANTxQueueHandle == NULL) {
 576              		.loc 1 48 24 is_stmt 0 view .LVU138
 577 0002 0022     		movs	r2, #0
 578 0004 1421     		movs	r1, #20
 579 0006 4020     		movs	r0, #64
 580 0008 FFF7FEFF 		bl	osMessageQueueNew
 581              	.LVL29:
  48:Core/Src/can_manager.c ****     if (CANTxQueueHandle == NULL) {
 582              		.loc 1 48 22 discriminator 1 view .LVU139
 583 000c 0D4B     		ldr	r3, .L62
 584 000e 1860     		str	r0, [r3]
  49:Core/Src/can_manager.c ****         return HAL_ERROR;
 585              		.loc 1 49 5 is_stmt 1 view .LVU140
  49:Core/Src/can_manager.c ****         return HAL_ERROR;
 586              		.loc 1 49 8 is_stmt 0 view .LVU141
 587 0010 98B1     		cbz	r0, .L57
  54:Core/Src/can_manager.c ****     if (CANRxQueueHandle == NULL) {
 588              		.loc 1 54 5 is_stmt 1 view .LVU142
  54:Core/Src/can_manager.c ****     if (CANRxQueueHandle == NULL) {
 589              		.loc 1 54 24 is_stmt 0 view .LVU143
 590 0012 0022     		movs	r2, #0
 591 0014 1421     		movs	r1, #20
 592 0016 2020     		movs	r0, #32
 593 0018 FFF7FEFF 		bl	osMessageQueueNew
 594              	.LVL30:
  54:Core/Src/can_manager.c ****     if (CANRxQueueHandle == NULL) {
 595              		.loc 1 54 22 discriminator 1 view .LVU144
 596 001c 0A4B     		ldr	r3, .L62+4
 597 001e 1860     		str	r0, [r3]
  55:Core/Src/can_manager.c ****         return HAL_ERROR;
 598              		.loc 1 55 5 is_stmt 1 view .LVU145
  55:Core/Src/can_manager.c ****         return HAL_ERROR;
 599              		.loc 1 55 8 is_stmt 0 view .LVU146
 600 0020 70B1     		cbz	r0, .L58
  63:Core/Src/can_manager.c ****                                               CAN_IT_RX_FIFO1_MSG_PENDING |
 601              		.loc 1 63 5 is_stmt 1 view .LVU147
  63:Core/Src/can_manager.c ****                                               CAN_IT_RX_FIFO1_MSG_PENDING |
 602              		.loc 1 63 9 is_stmt 0 view .LVU148
 603 0022 48F21241 		movw	r1, #33810
 604 0026 0948     		ldr	r0, .L62+8
 605 0028 FFF7FEFF 		bl	HAL_CAN_ActivateNotification
 606              	.LVL31:
  63:Core/Src/can_manager.c ****                                               CAN_IT_RX_FIFO1_MSG_PENDING |
 607              		.loc 1 63 8 discriminator 1 view .LVU149
 608 002c 0446     		mov	r4, r0
 609 002e 08B1     		cbz	r0, .L61
  67:Core/Src/can_manager.c ****     }
 610              		.loc 1 67 16 view .LVU150
 611 0030 0124     		movs	r4, #1
 612 0032 03E0     		b	.L56
 613              	.L61:
ARM GAS  C:\Users\Ali\AppData\Local\Temp\cc4pL5T6.s 			page 19


  71:Core/Src/can_manager.c ****     
 614              		.loc 1 71 5 is_stmt 1 view .LVU151
 615 0034 FFF7FEFF 		bl	CAN_ResetStatistics
 616              	.LVL32:
  73:Core/Src/can_manager.c **** }
 617              		.loc 1 73 5 view .LVU152
  73:Core/Src/can_manager.c **** }
 618              		.loc 1 73 12 is_stmt 0 view .LVU153
 619 0038 00E0     		b	.L56
 620              	.L57:
  50:Core/Src/can_manager.c ****     }
 621              		.loc 1 50 16 view .LVU154
 622 003a 0124     		movs	r4, #1
 623              	.L56:
  74:Core/Src/can_manager.c **** 
 624              		.loc 1 74 1 view .LVU155
 625 003c 2046     		mov	r0, r4
 626 003e 10BD     		pop	{r4, pc}
 627              	.L58:
  56:Core/Src/can_manager.c ****     }
 628              		.loc 1 56 16 view .LVU156
 629 0040 0124     		movs	r4, #1
 630 0042 FBE7     		b	.L56
 631              	.L63:
 632              		.align	2
 633              	.L62:
 634 0044 00000000 		.word	CANTxQueueHandle
 635 0048 00000000 		.word	CANRxQueueHandle
 636 004c 00000000 		.word	hcan1
 637              		.cfi_endproc
 638              	.LFE292:
 640              		.section	.text.CAN_GetTxQueueCount,"ax",%progbits
 641              		.align	1
 642              		.global	CAN_GetTxQueueCount
 643              		.syntax unified
 644              		.thumb
 645              		.thumb_func
 647              	CAN_GetTxQueueCount:
 648              	.LFB304:
 371:Core/Src/can_manager.c **** 
 372:Core/Src/can_manager.c **** /**
 373:Core/Src/can_manager.c ****   * @brief  Get TX queue fill level
 374:Core/Src/can_manager.c ****   * @retval Number of messages waiting in TX queue
 375:Core/Src/can_manager.c ****   */
 376:Core/Src/can_manager.c **** uint32_t CAN_GetTxQueueCount(void)
 377:Core/Src/can_manager.c **** {
 649              		.loc 1 377 1 is_stmt 1 view -0
 650              		.cfi_startproc
 651              		@ args = 0, pretend = 0, frame = 0
 652              		@ frame_needed = 0, uses_anonymous_args = 0
 653 0000 08B5     		push	{r3, lr}
 654              		.cfi_def_cfa_offset 8
 655              		.cfi_offset 3, -8
 656              		.cfi_offset 14, -4
 378:Core/Src/can_manager.c ****     return osMessageQueueGetCount(CANTxQueueHandle);
 657              		.loc 1 378 5 view .LVU158
 658              		.loc 1 378 12 is_stmt 0 view .LVU159
ARM GAS  C:\Users\Ali\AppData\Local\Temp\cc4pL5T6.s 			page 20


 659 0002 024B     		ldr	r3, .L66
 660 0004 1868     		ldr	r0, [r3]
 661 0006 FFF7FEFF 		bl	osMessageQueueGetCount
 662              	.LVL33:
 379:Core/Src/can_manager.c **** }
 663              		.loc 1 379 1 view .LVU160
 664 000a 08BD     		pop	{r3, pc}
 665              	.L67:
 666              		.align	2
 667              	.L66:
 668 000c 00000000 		.word	CANTxQueueHandle
 669              		.cfi_endproc
 670              	.LFE304:
 672              		.section	.text.CAN_GetRxQueueCount,"ax",%progbits
 673              		.align	1
 674              		.global	CAN_GetRxQueueCount
 675              		.syntax unified
 676              		.thumb
 677              		.thumb_func
 679              	CAN_GetRxQueueCount:
 680              	.LFB305:
 380:Core/Src/can_manager.c **** 
 381:Core/Src/can_manager.c **** /**
 382:Core/Src/can_manager.c ****   * @brief  Get RX queue fill level
 383:Core/Src/can_manager.c ****   * @retval Number of unprocessed received messages
 384:Core/Src/can_manager.c ****   */
 385:Core/Src/can_manager.c **** uint32_t CAN_GetRxQueueCount(void)
 386:Core/Src/can_manager.c **** {
 681              		.loc 1 386 1 is_stmt 1 view -0
 682              		.cfi_startproc
 683              		@ args = 0, pretend = 0, frame = 0
 684              		@ frame_needed = 0, uses_anonymous_args = 0
 685 0000 08B5     		push	{r3, lr}
 686              		.cfi_def_cfa_offset 8
 687              		.cfi_offset 3, -8
 688              		.cfi_offset 14, -4
 387:Core/Src/can_manager.c ****     return osMessageQueueGetCount(CANRxQueueHandle);
 689              		.loc 1 387 5 view .LVU162
 690              		.loc 1 387 12 is_stmt 0 view .LVU163
 691 0002 024B     		ldr	r3, .L70
 692 0004 1868     		ldr	r0, [r3]
 693 0006 FFF7FEFF 		bl	osMessageQueueGetCount
 694              	.LVL34:
 388:Core/Src/can_manager.c **** }
 695              		.loc 1 388 1 view .LVU164
 696 000a 08BD     		pop	{r3, pc}
 697              	.L71:
 698              		.align	2
 699              	.L70:
 700 000c 00000000 		.word	CANRxQueueHandle
 701              		.cfi_endproc
 702              	.LFE305:
 704              		.section	.text.CAN_FlushTxQueue,"ax",%progbits
 705              		.align	1
 706              		.global	CAN_FlushTxQueue
 707              		.syntax unified
 708              		.thumb
ARM GAS  C:\Users\Ali\AppData\Local\Temp\cc4pL5T6.s 			page 21


 709              		.thumb_func
 711              	CAN_FlushTxQueue:
 712              	.LFB306:
 389:Core/Src/can_manager.c **** 
 390:Core/Src/can_manager.c **** /**
 391:Core/Src/can_manager.c ****   * @brief  Flush TX queue (clear all pending messages)
 392:Core/Src/can_manager.c ****   * @retval Number of messages flushed
 393:Core/Src/can_manager.c ****   */
 394:Core/Src/can_manager.c **** uint32_t CAN_FlushTxQueue(void)
 395:Core/Src/can_manager.c **** {
 713              		.loc 1 395 1 is_stmt 1 view -0
 714              		.cfi_startproc
 715              		@ args = 0, pretend = 0, frame = 24
 716              		@ frame_needed = 0, uses_anonymous_args = 0
 717 0000 10B5     		push	{r4, lr}
 718              		.cfi_def_cfa_offset 8
 719              		.cfi_offset 4, -8
 720              		.cfi_offset 14, -4
 721 0002 86B0     		sub	sp, sp, #24
 722              		.cfi_def_cfa_offset 32
 396:Core/Src/can_manager.c ****     CAN_Message_t dummy_msg;
 723              		.loc 1 396 5 view .LVU166
 397:Core/Src/can_manager.c ****     uint32_t count = 0;
 724              		.loc 1 397 5 view .LVU167
 725              	.LVL35:
 398:Core/Src/can_manager.c ****     
 399:Core/Src/can_manager.c ****     while (osMessageQueueGet(CANTxQueueHandle, &dummy_msg, NULL, 0) == osOK) {
 726              		.loc 1 399 5 view .LVU168
 397:Core/Src/can_manager.c ****     uint32_t count = 0;
 727              		.loc 1 397 14 is_stmt 0 view .LVU169
 728 0004 0024     		movs	r4, #0
 729              		.loc 1 399 11 view .LVU170
 730 0006 00E0     		b	.L73
 731              	.LVL36:
 732              	.L74:
 400:Core/Src/can_manager.c ****         count++;
 733              		.loc 1 400 9 is_stmt 1 view .LVU171
 734              		.loc 1 400 14 is_stmt 0 view .LVU172
 735 0008 0134     		adds	r4, r4, #1
 736              	.LVL37:
 737              	.L73:
 399:Core/Src/can_manager.c ****         count++;
 738              		.loc 1 399 69 is_stmt 1 view .LVU173
 399:Core/Src/can_manager.c ****         count++;
 739              		.loc 1 399 12 is_stmt 0 view .LVU174
 740 000a 0023     		movs	r3, #0
 741 000c 1A46     		mov	r2, r3
 742 000e 01A9     		add	r1, sp, #4
 743 0010 0448     		ldr	r0, .L76
 744 0012 0068     		ldr	r0, [r0]
 745 0014 FFF7FEFF 		bl	osMessageQueueGet
 746              	.LVL38:
 399:Core/Src/can_manager.c ****         count++;
 747              		.loc 1 399 69 discriminator 1 view .LVU175
 748 0018 0028     		cmp	r0, #0
 749 001a F5D0     		beq	.L74
 401:Core/Src/can_manager.c ****     }
ARM GAS  C:\Users\Ali\AppData\Local\Temp\cc4pL5T6.s 			page 22


 402:Core/Src/can_manager.c ****     
 403:Core/Src/can_manager.c ****     return count;
 750              		.loc 1 403 5 is_stmt 1 view .LVU176
 404:Core/Src/can_manager.c **** }
 751              		.loc 1 404 1 is_stmt 0 view .LVU177
 752 001c 2046     		mov	r0, r4
 753 001e 06B0     		add	sp, sp, #24
 754              		.cfi_def_cfa_offset 8
 755              		@ sp needed
 756 0020 10BD     		pop	{r4, pc}
 757              	.LVL39:
 758              	.L77:
 759              		.loc 1 404 1 view .LVU178
 760 0022 00BF     		.align	2
 761              	.L76:
 762 0024 00000000 		.word	CANTxQueueHandle
 763              		.cfi_endproc
 764              	.LFE306:
 766              		.section	.text.HAL_CAN_RxFifo0MsgPendingCallback,"ax",%progbits
 767              		.align	1
 768              		.global	HAL_CAN_RxFifo0MsgPendingCallback
 769              		.syntax unified
 770              		.thumb
 771              		.thumb_func
 773              	HAL_CAN_RxFifo0MsgPendingCallback:
 774              	.LVL40:
 775              	.LFB307:
 405:Core/Src/can_manager.c **** 
 406:Core/Src/can_manager.c **** /* CAN RX Interrupt Callbacks ------------------------------------------------*/
 407:Core/Src/can_manager.c **** 
 408:Core/Src/can_manager.c **** /**
 409:Core/Src/can_manager.c ****   * @brief  CAN RX FIFO 0 message pending callback
 410:Core/Src/can_manager.c ****   * @param  hcan: pointer to CAN handle
 411:Core/Src/can_manager.c ****   * @retval None
 412:Core/Src/can_manager.c ****   */
 413:Core/Src/can_manager.c **** void HAL_CAN_RxFifo0MsgPendingCallback(CAN_HandleTypeDef *hcan)
 414:Core/Src/can_manager.c **** {
 776              		.loc 1 414 1 is_stmt 1 view -0
 777              		.cfi_startproc
 778              		@ args = 0, pretend = 0, frame = 48
 779              		@ frame_needed = 0, uses_anonymous_args = 0
 780              		.loc 1 414 1 is_stmt 0 view .LVU180
 781 0000 10B5     		push	{r4, lr}
 782              		.cfi_def_cfa_offset 8
 783              		.cfi_offset 4, -8
 784              		.cfi_offset 14, -4
 785 0002 8CB0     		sub	sp, sp, #48
 786              		.cfi_def_cfa_offset 56
 415:Core/Src/can_manager.c ****     CAN_RxHeaderTypeDef RxHeader;
 787              		.loc 1 415 5 is_stmt 1 view .LVU181
 416:Core/Src/can_manager.c ****     CAN_Message_t msg;
 788              		.loc 1 416 5 view .LVU182
 417:Core/Src/can_manager.c ****     
 418:Core/Src/can_manager.c ****     // Get message from FIFO
 419:Core/Src/can_manager.c ****     if (HAL_CAN_GetRxMessage(hcan, CAN_RX_FIFO0, &RxHeader, msg.data) == HAL_OK) {
 789              		.loc 1 419 5 view .LVU183
 790              		.loc 1 419 9 is_stmt 0 view .LVU184
ARM GAS  C:\Users\Ali\AppData\Local\Temp\cc4pL5T6.s 			page 23


 791 0004 01AB     		add	r3, sp, #4
 792 0006 05AA     		add	r2, sp, #20
 793 0008 0021     		movs	r1, #0
 794 000a FFF7FEFF 		bl	HAL_CAN_GetRxMessage
 795              	.LVL41:
 796              		.loc 1 419 8 discriminator 1 view .LVU185
 797 000e 08B1     		cbz	r0, .L81
 798              	.L78:
 420:Core/Src/can_manager.c ****         // Store message details (all messages are extended ID)
 421:Core/Src/can_manager.c ****         msg.id = RxHeader.ExtId;
 422:Core/Src/can_manager.c ****         msg.length = RxHeader.DLC;
 423:Core/Src/can_manager.c ****         msg.priority = 0;  // RX messages don't have priority
 424:Core/Src/can_manager.c ****         msg.timestamp = osKernelGetTickCount();
 425:Core/Src/can_manager.c ****         
 426:Core/Src/can_manager.c ****         // Add to RX queue (from ISR context)
 427:Core/Src/can_manager.c ****         if (osMessageQueuePut(CANRxQueueHandle, &msg, 0, 0) != osOK) {
 428:Core/Src/can_manager.c ****             can_stats.rx_queue_full_count++;
 429:Core/Src/can_manager.c ****         }
 430:Core/Src/can_manager.c ****     }
 431:Core/Src/can_manager.c **** }
 799              		.loc 1 431 1 view .LVU186
 800 0010 0CB0     		add	sp, sp, #48
 801              		.cfi_remember_state
 802              		.cfi_def_cfa_offset 8
 803              		@ sp needed
 804 0012 10BD     		pop	{r4, pc}
 805              	.L81:
 806              		.cfi_restore_state
 421:Core/Src/can_manager.c ****         msg.length = RxHeader.DLC;
 807              		.loc 1 421 9 is_stmt 1 view .LVU187
 421:Core/Src/can_manager.c ****         msg.length = RxHeader.DLC;
 808              		.loc 1 421 26 is_stmt 0 view .LVU188
 809 0014 069B     		ldr	r3, [sp, #24]
 421:Core/Src/can_manager.c ****         msg.length = RxHeader.DLC;
 810              		.loc 1 421 16 view .LVU189
 811 0016 0093     		str	r3, [sp]
 422:Core/Src/can_manager.c ****         msg.priority = 0;  // RX messages don't have priority
 812              		.loc 1 422 9 is_stmt 1 view .LVU190
 422:Core/Src/can_manager.c ****         msg.priority = 0;  // RX messages don't have priority
 813              		.loc 1 422 30 is_stmt 0 view .LVU191
 814 0018 099B     		ldr	r3, [sp, #36]
 422:Core/Src/can_manager.c ****         msg.priority = 0;  // RX messages don't have priority
 815              		.loc 1 422 20 view .LVU192
 816 001a 8DF80C30 		strb	r3, [sp, #12]
 423:Core/Src/can_manager.c ****         msg.timestamp = osKernelGetTickCount();
 817              		.loc 1 423 9 is_stmt 1 view .LVU193
 423:Core/Src/can_manager.c ****         msg.timestamp = osKernelGetTickCount();
 818              		.loc 1 423 22 is_stmt 0 view .LVU194
 819 001e 0024     		movs	r4, #0
 820 0020 8DF80D40 		strb	r4, [sp, #13]
 424:Core/Src/can_manager.c ****         
 821              		.loc 1 424 9 is_stmt 1 view .LVU195
 424:Core/Src/can_manager.c ****         
 822              		.loc 1 424 25 is_stmt 0 view .LVU196
 823 0024 FFF7FEFF 		bl	osKernelGetTickCount
 824              	.LVL42:
 424:Core/Src/can_manager.c ****         
ARM GAS  C:\Users\Ali\AppData\Local\Temp\cc4pL5T6.s 			page 24


 825              		.loc 1 424 23 discriminator 1 view .LVU197
 826 0028 0490     		str	r0, [sp, #16]
 427:Core/Src/can_manager.c ****             can_stats.rx_queue_full_count++;
 827              		.loc 1 427 9 is_stmt 1 view .LVU198
 427:Core/Src/can_manager.c ****             can_stats.rx_queue_full_count++;
 828              		.loc 1 427 13 is_stmt 0 view .LVU199
 829 002a 2346     		mov	r3, r4
 830 002c 2246     		mov	r2, r4
 831 002e 6946     		mov	r1, sp
 832 0030 0548     		ldr	r0, .L82
 833 0032 0068     		ldr	r0, [r0]
 834 0034 FFF7FEFF 		bl	osMessageQueuePut
 835              	.LVL43:
 427:Core/Src/can_manager.c ****             can_stats.rx_queue_full_count++;
 836              		.loc 1 427 12 discriminator 1 view .LVU200
 837 0038 0028     		cmp	r0, #0
 838 003a E9D0     		beq	.L78
 428:Core/Src/can_manager.c ****         }
 839              		.loc 1 428 13 is_stmt 1 view .LVU201
 428:Core/Src/can_manager.c ****         }
 840              		.loc 1 428 22 is_stmt 0 view .LVU202
 841 003c 034A     		ldr	r2, .L82+4
 842 003e 1369     		ldr	r3, [r2, #16]
 428:Core/Src/can_manager.c ****         }
 843              		.loc 1 428 42 view .LVU203
 844 0040 0133     		adds	r3, r3, #1
 845 0042 1361     		str	r3, [r2, #16]
 846              		.loc 1 431 1 view .LVU204
 847 0044 E4E7     		b	.L78
 848              	.L83:
 849 0046 00BF     		.align	2
 850              	.L82:
 851 0048 00000000 		.word	CANRxQueueHandle
 852 004c 00000000 		.word	can_stats
 853              		.cfi_endproc
 854              	.LFE307:
 856              		.section	.text.HAL_CAN_RxFifo1MsgPendingCallback,"ax",%progbits
 857              		.align	1
 858              		.global	HAL_CAN_RxFifo1MsgPendingCallback
 859              		.syntax unified
 860              		.thumb
 861              		.thumb_func
 863              	HAL_CAN_RxFifo1MsgPendingCallback:
 864              	.LVL44:
 865              	.LFB308:
 432:Core/Src/can_manager.c **** 
 433:Core/Src/can_manager.c **** /**
 434:Core/Src/can_manager.c ****   * @brief  CAN RX FIFO 1 message pending callback
 435:Core/Src/can_manager.c ****   * @param  hcan: pointer to CAN handle
 436:Core/Src/can_manager.c ****   * @retval None
 437:Core/Src/can_manager.c ****   */
 438:Core/Src/can_manager.c **** void HAL_CAN_RxFifo1MsgPendingCallback(CAN_HandleTypeDef *hcan)
 439:Core/Src/can_manager.c **** {
 866              		.loc 1 439 1 is_stmt 1 view -0
 867              		.cfi_startproc
 868              		@ args = 0, pretend = 0, frame = 48
 869              		@ frame_needed = 0, uses_anonymous_args = 0
ARM GAS  C:\Users\Ali\AppData\Local\Temp\cc4pL5T6.s 			page 25


 870              		.loc 1 439 1 is_stmt 0 view .LVU206
 871 0000 10B5     		push	{r4, lr}
 872              		.cfi_def_cfa_offset 8
 873              		.cfi_offset 4, -8
 874              		.cfi_offset 14, -4
 875 0002 8CB0     		sub	sp, sp, #48
 876              		.cfi_def_cfa_offset 56
 440:Core/Src/can_manager.c ****     CAN_RxHeaderTypeDef RxHeader;
 877              		.loc 1 440 5 is_stmt 1 view .LVU207
 441:Core/Src/can_manager.c ****     CAN_Message_t msg;
 878              		.loc 1 441 5 view .LVU208
 442:Core/Src/can_manager.c ****     
 443:Core/Src/can_manager.c ****     // Get message from FIFO
 444:Core/Src/can_manager.c ****     if (HAL_CAN_GetRxMessage(hcan, CAN_RX_FIFO1, &RxHeader, msg.data) == HAL_OK) {
 879              		.loc 1 444 5 view .LVU209
 880              		.loc 1 444 9 is_stmt 0 view .LVU210
 881 0004 01AB     		add	r3, sp, #4
 882 0006 05AA     		add	r2, sp, #20
 883 0008 0121     		movs	r1, #1
 884 000a FFF7FEFF 		bl	HAL_CAN_GetRxMessage
 885              	.LVL45:
 886              		.loc 1 444 8 discriminator 1 view .LVU211
 887 000e 08B1     		cbz	r0, .L87
 888              	.L84:
 445:Core/Src/can_manager.c ****         // Store message details (all messages are extended ID)
 446:Core/Src/can_manager.c ****         msg.id = RxHeader.ExtId;
 447:Core/Src/can_manager.c ****         msg.length = RxHeader.DLC;
 448:Core/Src/can_manager.c ****         msg.priority = 0;  // RX messages don't have priority
 449:Core/Src/can_manager.c ****         msg.timestamp = osKernelGetTickCount();
 450:Core/Src/can_manager.c ****         
 451:Core/Src/can_manager.c ****         // Add to RX queue (from ISR context)
 452:Core/Src/can_manager.c ****         if (osMessageQueuePut(CANRxQueueHandle, &msg, 0, 0) != osOK) {
 453:Core/Src/can_manager.c ****             can_stats.rx_queue_full_count++;
 454:Core/Src/can_manager.c ****         }
 455:Core/Src/can_manager.c ****     }
 456:Core/Src/can_manager.c **** }
 889              		.loc 1 456 1 view .LVU212
 890 0010 0CB0     		add	sp, sp, #48
 891              		.cfi_remember_state
 892              		.cfi_def_cfa_offset 8
 893              		@ sp needed
 894 0012 10BD     		pop	{r4, pc}
 895              	.L87:
 896              		.cfi_restore_state
 446:Core/Src/can_manager.c ****         msg.length = RxHeader.DLC;
 897              		.loc 1 446 9 is_stmt 1 view .LVU213
 446:Core/Src/can_manager.c ****         msg.length = RxHeader.DLC;
 898              		.loc 1 446 26 is_stmt 0 view .LVU214
 899 0014 069B     		ldr	r3, [sp, #24]
 446:Core/Src/can_manager.c ****         msg.length = RxHeader.DLC;
 900              		.loc 1 446 16 view .LVU215
 901 0016 0093     		str	r3, [sp]
 447:Core/Src/can_manager.c ****         msg.priority = 0;  // RX messages don't have priority
 902              		.loc 1 447 9 is_stmt 1 view .LVU216
 447:Core/Src/can_manager.c ****         msg.priority = 0;  // RX messages don't have priority
 903              		.loc 1 447 30 is_stmt 0 view .LVU217
 904 0018 099B     		ldr	r3, [sp, #36]
ARM GAS  C:\Users\Ali\AppData\Local\Temp\cc4pL5T6.s 			page 26


 447:Core/Src/can_manager.c ****         msg.priority = 0;  // RX messages don't have priority
 905              		.loc 1 447 20 view .LVU218
 906 001a 8DF80C30 		strb	r3, [sp, #12]
 448:Core/Src/can_manager.c ****         msg.timestamp = osKernelGetTickCount();
 907              		.loc 1 448 9 is_stmt 1 view .LVU219
 448:Core/Src/can_manager.c ****         msg.timestamp = osKernelGetTickCount();
 908              		.loc 1 448 22 is_stmt 0 view .LVU220
 909 001e 0024     		movs	r4, #0
 910 0020 8DF80D40 		strb	r4, [sp, #13]
 449:Core/Src/can_manager.c ****         
 911              		.loc 1 449 9 is_stmt 1 view .LVU221
 449:Core/Src/can_manager.c ****         
 912              		.loc 1 449 25 is_stmt 0 view .LVU222
 913 0024 FFF7FEFF 		bl	osKernelGetTickCount
 914              	.LVL46:
 449:Core/Src/can_manager.c ****         
 915              		.loc 1 449 23 discriminator 1 view .LVU223
 916 0028 0490     		str	r0, [sp, #16]
 452:Core/Src/can_manager.c ****             can_stats.rx_queue_full_count++;
 917              		.loc 1 452 9 is_stmt 1 view .LVU224
 452:Core/Src/can_manager.c ****             can_stats.rx_queue_full_count++;
 918              		.loc 1 452 13 is_stmt 0 view .LVU225
 919 002a 2346     		mov	r3, r4
 920 002c 2246     		mov	r2, r4
 921 002e 6946     		mov	r1, sp
 922 0030 0548     		ldr	r0, .L88
 923 0032 0068     		ldr	r0, [r0]
 924 0034 FFF7FEFF 		bl	osMessageQueuePut
 925              	.LVL47:
 452:Core/Src/can_manager.c ****             can_stats.rx_queue_full_count++;
 926              		.loc 1 452 12 discriminator 1 view .LVU226
 927 0038 0028     		cmp	r0, #0
 928 003a E9D0     		beq	.L84
 453:Core/Src/can_manager.c ****         }
 929              		.loc 1 453 13 is_stmt 1 view .LVU227
 453:Core/Src/can_manager.c ****         }
 930              		.loc 1 453 22 is_stmt 0 view .LVU228
 931 003c 034A     		ldr	r2, .L88+4
 932 003e 1369     		ldr	r3, [r2, #16]
 453:Core/Src/can_manager.c ****         }
 933              		.loc 1 453 42 view .LVU229
 934 0040 0133     		adds	r3, r3, #1
 935 0042 1361     		str	r3, [r2, #16]
 936              		.loc 1 456 1 view .LVU230
 937 0044 E4E7     		b	.L84
 938              	.L89:
 939 0046 00BF     		.align	2
 940              	.L88:
 941 0048 00000000 		.word	CANRxQueueHandle
 942 004c 00000000 		.word	can_stats
 943              		.cfi_endproc
 944              	.LFE308:
 946              		.section	.text.HAL_CAN_ErrorCallback,"ax",%progbits
 947              		.align	1
 948              		.global	HAL_CAN_ErrorCallback
 949              		.syntax unified
 950              		.thumb
ARM GAS  C:\Users\Ali\AppData\Local\Temp\cc4pL5T6.s 			page 27


 951              		.thumb_func
 953              	HAL_CAN_ErrorCallback:
 954              	.LVL48:
 955              	.LFB309:
 457:Core/Src/can_manager.c **** 
 458:Core/Src/can_manager.c **** /**
 459:Core/Src/can_manager.c ****   * @brief  CAN error callback
 460:Core/Src/can_manager.c ****   * @param  hcan: pointer to CAN handle
 461:Core/Src/can_manager.c ****   * @retval None
 462:Core/Src/can_manager.c ****   */
 463:Core/Src/can_manager.c **** void HAL_CAN_ErrorCallback(CAN_HandleTypeDef *hcan)
 464:Core/Src/can_manager.c **** {
 956              		.loc 1 464 1 is_stmt 1 view -0
 957              		.cfi_startproc
 958              		@ args = 0, pretend = 0, frame = 0
 959              		@ frame_needed = 0, uses_anonymous_args = 0
 960              		.loc 1 464 1 is_stmt 0 view .LVU232
 961 0000 08B5     		push	{r3, lr}
 962              		.cfi_def_cfa_offset 8
 963              		.cfi_offset 3, -8
 964              		.cfi_offset 14, -4
 465:Core/Src/can_manager.c ****     uint32_t error = HAL_CAN_GetError(hcan);
 965              		.loc 1 465 5 is_stmt 1 view .LVU233
 966              		.loc 1 465 22 is_stmt 0 view .LVU234
 967 0002 FFF7FEFF 		bl	HAL_CAN_GetError
 968              	.LVL49:
 466:Core/Src/can_manager.c ****     
 467:Core/Src/can_manager.c ****     // Check for bus-off condition
 468:Core/Src/can_manager.c ****     if (error & HAL_CAN_ERROR_BOF) {
 969              		.loc 1 468 5 is_stmt 1 view .LVU235
 970              		.loc 1 468 8 is_stmt 0 view .LVU236
 971 0006 10F0040F 		tst	r0, #4
 972 000a 00D1     		bne	.L93
 973              	.LVL50:
 974              	.L90:
 469:Core/Src/can_manager.c ****         can_stats.bus_off_count++;
 470:Core/Src/can_manager.c ****         
 471:Core/Src/can_manager.c ****         // Set CAN bus-off error flag
 472:Core/Src/can_manager.c ****         ErrorMgr_SetError(ERROR_CAN_BUS_OFF);
 473:Core/Src/can_manager.c ****         
 474:Core/Src/can_manager.c ****         // Attempt to recover from bus-off
 475:Core/Src/can_manager.c ****         // Note: May need to stop and restart CAN peripheral
 476:Core/Src/can_manager.c ****     }
 477:Core/Src/can_manager.c ****     
 478:Core/Src/can_manager.c ****     // Handle other errors as needed
 479:Core/Src/can_manager.c **** }
 975              		.loc 1 479 1 view .LVU237
 976 000c 08BD     		pop	{r3, pc}
 977              	.LVL51:
 978              	.L93:
 469:Core/Src/can_manager.c ****         can_stats.bus_off_count++;
 979              		.loc 1 469 9 is_stmt 1 view .LVU238
 469:Core/Src/can_manager.c ****         can_stats.bus_off_count++;
 980              		.loc 1 469 18 is_stmt 0 view .LVU239
 981 000e 044A     		ldr	r2, .L94
 982 0010 5369     		ldr	r3, [r2, #20]
 469:Core/Src/can_manager.c ****         can_stats.bus_off_count++;
ARM GAS  C:\Users\Ali\AppData\Local\Temp\cc4pL5T6.s 			page 28


 983              		.loc 1 469 32 view .LVU240
 984 0012 0133     		adds	r3, r3, #1
 985 0014 5361     		str	r3, [r2, #20]
 472:Core/Src/can_manager.c ****         
 986              		.loc 1 472 9 is_stmt 1 view .LVU241
 987 0016 4FF08070 		mov	r0, #16777216
 988              	.LVL52:
 472:Core/Src/can_manager.c ****         
 989              		.loc 1 472 9 is_stmt 0 view .LVU242
 990 001a FFF7FEFF 		bl	ErrorMgr_SetError
 991              	.LVL53:
 992              		.loc 1 479 1 view .LVU243
 993 001e F5E7     		b	.L90
 994              	.L95:
 995              		.align	2
 996              	.L94:
 997 0020 00000000 		.word	can_stats
 998              		.cfi_endproc
 999              	.LFE309:
 1001              		.section	.text.CAN_SendHeartbeat,"ax",%progbits
 1002              		.align	1
 1003              		.global	CAN_SendHeartbeat
 1004              		.syntax unified
 1005              		.thumb
 1006              		.thumb_func
 1008              	CAN_SendHeartbeat:
 1009              	.LFB310:
 480:Core/Src/can_manager.c **** 
 481:Core/Src/can_manager.c **** /**
 482:Core/Src/can_manager.c ****   * @brief  Send BMS heartbeat message
 483:Core/Src/can_manager.c ****   * @note   Heartbeat format (8 bytes):
 484:Core/Src/can_manager.c ****   *         Byte 0: BMS State
 485:Core/Src/can_manager.c ****   *         Byte 1: Error flags byte 0 (Temperature errors)
 486:Core/Src/can_manager.c ****   *         Byte 2: Error flags byte 1 (Voltage errors)
 487:Core/Src/can_manager.c ****   *         Byte 3: Error flags byte 2 (Current errors)
 488:Core/Src/can_manager.c ****   *         Byte 4: Error flags byte 3 (Communication errors)
 489:Core/Src/can_manager.c ****   *         Byte 5: Warning flags summary (any warnings = 0xFF, none = 0x00)
 490:Core/Src/can_manager.c ****   *         Byte 6-7: Fault count (16-bit)
 491:Core/Src/can_manager.c ****   * @retval HAL_StatusTypeDef
 492:Core/Src/can_manager.c ****   */
 493:Core/Src/can_manager.c **** HAL_StatusTypeDef CAN_SendHeartbeat(void)
 494:Core/Src/can_manager.c **** {
 1010              		.loc 1 494 1 is_stmt 1 view -0
 1011              		.cfi_startproc
 1012              		@ args = 0, pretend = 0, frame = 32
 1013              		@ frame_needed = 0, uses_anonymous_args = 0
 1014 0000 00B5     		push	{lr}
 1015              		.cfi_def_cfa_offset 4
 1016              		.cfi_offset 14, -4
 1017 0002 89B0     		sub	sp, sp, #36
 1018              		.cfi_def_cfa_offset 40
 495:Core/Src/can_manager.c ****     Error_Manager_t status;
 1019              		.loc 1 495 5 view .LVU245
 496:Core/Src/can_manager.c ****     uint8_t heartbeat_data[8];
 1020              		.loc 1 496 5 view .LVU246
 497:Core/Src/can_manager.c ****     
 498:Core/Src/can_manager.c ****     // Get current error manager status
ARM GAS  C:\Users\Ali\AppData\Local\Temp\cc4pL5T6.s 			page 29


 499:Core/Src/can_manager.c ****     ErrorMgr_GetStatus(&status);
 1021              		.loc 1 499 5 view .LVU247
 1022 0004 03A8     		add	r0, sp, #12
 1023 0006 FFF7FEFF 		bl	ErrorMgr_GetStatus
 1024              	.LVL54:
 500:Core/Src/can_manager.c ****     
 501:Core/Src/can_manager.c ****     // Pack heartbeat message
 502:Core/Src/can_manager.c ****     heartbeat_data[0] = (uint8_t)status.state;                    // BMS state
 1025              		.loc 1 502 5 view .LVU248
 1026              		.loc 1 502 40 is_stmt 0 view .LVU249
 1027 000a 9DF81430 		ldrb	r3, [sp, #20]	@ zero_extendqisi2
 1028              		.loc 1 502 23 view .LVU250
 1029 000e 8DF80430 		strb	r3, [sp, #4]
 503:Core/Src/can_manager.c ****     heartbeat_data[1] = (uint8_t)(status.error_flags & 0xFF);     // Error byte 0
 1030              		.loc 1 503 5 is_stmt 1 view .LVU251
 1031              		.loc 1 503 41 is_stmt 0 view .LVU252
 1032 0012 039B     		ldr	r3, [sp, #12]
 1033              		.loc 1 503 23 view .LVU253
 1034 0014 8DF80530 		strb	r3, [sp, #5]
 504:Core/Src/can_manager.c ****     heartbeat_data[2] = (uint8_t)((status.error_flags >> 8) & 0xFF);   // Error byte 1
 1035              		.loc 1 504 5 is_stmt 1 view .LVU254
 1036              		.loc 1 504 25 is_stmt 0 view .LVU255
 1037 0018 C3F30722 		ubfx	r2, r3, #8, #8
 1038              		.loc 1 504 23 view .LVU256
 1039 001c 8DF80620 		strb	r2, [sp, #6]
 505:Core/Src/can_manager.c ****     heartbeat_data[3] = (uint8_t)((status.error_flags >> 16) & 0xFF);  // Error byte 2
 1040              		.loc 1 505 5 is_stmt 1 view .LVU257
 1041              		.loc 1 505 25 is_stmt 0 view .LVU258
 1042 0020 C3F30742 		ubfx	r2, r3, #16, #8
 1043              		.loc 1 505 23 view .LVU259
 1044 0024 8DF80720 		strb	r2, [sp, #7]
 506:Core/Src/can_manager.c ****     heartbeat_data[4] = (uint8_t)((status.error_flags >> 24) & 0xFF);  // Error byte 3
 1045              		.loc 1 506 5 is_stmt 1 view .LVU260
 1046              		.loc 1 506 25 is_stmt 0 view .LVU261
 1047 0028 1B0E     		lsrs	r3, r3, #24
 1048              		.loc 1 506 23 view .LVU262
 1049 002a 8DF80830 		strb	r3, [sp, #8]
 507:Core/Src/can_manager.c ****     heartbeat_data[5] = (status.warning_flags != 0) ? 0xFF : 0x00;     // Warning summary
 1050              		.loc 1 507 5 is_stmt 1 view .LVU263
 1051              		.loc 1 507 32 is_stmt 0 view .LVU264
 1052 002e 049B     		ldr	r3, [sp, #16]
 1053              		.loc 1 507 23 view .LVU265
 1054 0030 93B1     		cbz	r3, .L98
 1055              		.loc 1 507 23 discriminator 1 view .LVU266
 1056 0032 FF23     		movs	r3, #255
 1057              	.L97:
 1058              		.loc 1 507 23 discriminator 4 view .LVU267
 1059 0034 8DF80930 		strb	r3, [sp, #9]
 508:Core/Src/can_manager.c ****     heartbeat_data[6] = (uint8_t)(status.fault_count & 0xFF);          // Fault count low byte
 1060              		.loc 1 508 5 is_stmt 1 view .LVU268
 1061              		.loc 1 508 41 is_stmt 0 view .LVU269
 1062 0038 9DF81530 		ldrb	r3, [sp, #21]	@ zero_extendqisi2
 1063              		.loc 1 508 23 view .LVU270
 1064 003c 8DF80A30 		strb	r3, [sp, #10]
 509:Core/Src/can_manager.c ****     heartbeat_data[7] = (uint8_t)((status.fault_count >> 8) & 0xFF);   // Fault count high byte
 1065              		.loc 1 509 5 is_stmt 1 view .LVU271
 1066              		.loc 1 509 25 is_stmt 0 view .LVU272
ARM GAS  C:\Users\Ali\AppData\Local\Temp\cc4pL5T6.s 			page 30


 1067 0040 0023     		movs	r3, #0
 1068              		.loc 1 509 23 view .LVU273
 1069 0042 8DF80B30 		strb	r3, [sp, #11]
 510:Core/Src/can_manager.c ****     
 511:Core/Src/can_manager.c ****     // Send heartbeat with high priority
 512:Core/Src/can_manager.c ****     return CAN_SendMessage(CAN_BMS_HEARTBEAT_ID, heartbeat_data, 8, CAN_PRIORITY_CRITICAL);
 1070              		.loc 1 512 5 is_stmt 1 view .LVU274
 1071              		.loc 1 512 12 is_stmt 0 view .LVU275
 1072 0046 0822     		movs	r2, #8
 1073 0048 01A9     		add	r1, sp, #4
 1074 004a 0448     		ldr	r0, .L100
 1075 004c 0068     		ldr	r0, [r0]
 1076 004e FFF7FEFF 		bl	CAN_SendMessage
 1077              	.LVL55:
 513:Core/Src/can_manager.c **** }
 1078              		.loc 1 513 1 view .LVU276
 1079 0052 09B0     		add	sp, sp, #36
 1080              		.cfi_remember_state
 1081              		.cfi_def_cfa_offset 4
 1082              		@ sp needed
 1083 0054 5DF804FB 		ldr	pc, [sp], #4
 1084              	.L98:
 1085              		.cfi_restore_state
 507:Core/Src/can_manager.c ****     heartbeat_data[6] = (uint8_t)(status.fault_count & 0xFF);          // Fault count low byte
 1086              		.loc 1 507 23 discriminator 2 view .LVU277
 1087 0058 0023     		movs	r3, #0
 1088 005a EBE7     		b	.L97
 1089              	.L101:
 1090              		.align	2
 1091              	.L100:
 1092 005c 00000000 		.word	CAN_BMS_HEARTBEAT_ID
 1093              		.cfi_endproc
 1094              	.LFE310:
 1096              		.section	.text.CAN_SendStatistics,"ax",%progbits
 1097              		.align	1
 1098              		.global	CAN_SendStatistics
 1099              		.syntax unified
 1100              		.thumb
 1101              		.thumb_func
 1103              	CAN_SendStatistics:
 1104              	.LFB311:
 514:Core/Src/can_manager.c **** 
 515:Core/Src/can_manager.c **** /**
 516:Core/Src/can_manager.c ****   * @brief  Send CAN statistics message for diagnostics
 517:Core/Src/can_manager.c ****   * @retval HAL_StatusTypeDef
 518:Core/Src/can_manager.c ****   */
 519:Core/Src/can_manager.c **** HAL_StatusTypeDef CAN_SendStatistics(void)
 520:Core/Src/can_manager.c **** {
 1105              		.loc 1 520 1 is_stmt 1 view -0
 1106              		.cfi_startproc
 1107              		@ args = 0, pretend = 0, frame = 8
 1108              		@ frame_needed = 0, uses_anonymous_args = 0
 1109 0000 00B5     		push	{lr}
 1110              		.cfi_def_cfa_offset 4
 1111              		.cfi_offset 14, -4
 1112 0002 83B0     		sub	sp, sp, #12
 1113              		.cfi_def_cfa_offset 16
ARM GAS  C:\Users\Ali\AppData\Local\Temp\cc4pL5T6.s 			page 31


 521:Core/Src/can_manager.c ****     uint8_t stats_data[8];
 1114              		.loc 1 521 5 view .LVU279
 522:Core/Src/can_manager.c ****     
 523:Core/Src/can_manager.c ****     // Pack CAN statistics message
 524:Core/Src/can_manager.c ****     // Bytes 0-1: RX message count (16-bit)
 525:Core/Src/can_manager.c ****     stats_data[0] = (uint8_t)(can_stats.rx_message_count & 0xFF);
 1115              		.loc 1 525 5 view .LVU280
 1116              		.loc 1 525 40 is_stmt 0 view .LVU281
 1117 0004 124B     		ldr	r3, .L104
 1118 0006 DA68     		ldr	r2, [r3, #12]
 1119              		.loc 1 525 19 view .LVU282
 1120 0008 8DF80020 		strb	r2, [sp]
 526:Core/Src/can_manager.c ****     stats_data[1] = (uint8_t)((can_stats.rx_message_count >> 8) & 0xFF);
 1121              		.loc 1 526 5 is_stmt 1 view .LVU283
 1122              		.loc 1 526 21 is_stmt 0 view .LVU284
 1123 000c C2F30722 		ubfx	r2, r2, #8, #8
 1124              		.loc 1 526 19 view .LVU285
 1125 0010 8DF80120 		strb	r2, [sp, #1]
 527:Core/Src/can_manager.c ****     
 528:Core/Src/can_manager.c ****     // Bytes 2-3: TX success count (16-bit)
 529:Core/Src/can_manager.c ****     stats_data[2] = (uint8_t)(can_stats.tx_success_count & 0xFF);
 1126              		.loc 1 529 5 is_stmt 1 view .LVU286
 1127              		.loc 1 529 40 is_stmt 0 view .LVU287
 1128 0014 1A68     		ldr	r2, [r3]
 1129              		.loc 1 529 19 view .LVU288
 1130 0016 8DF80220 		strb	r2, [sp, #2]
 530:Core/Src/can_manager.c ****     stats_data[3] = (uint8_t)((can_stats.tx_success_count >> 8) & 0xFF);
 1131              		.loc 1 530 5 is_stmt 1 view .LVU289
 1132              		.loc 1 530 21 is_stmt 0 view .LVU290
 1133 001a C2F30722 		ubfx	r2, r2, #8, #8
 1134              		.loc 1 530 19 view .LVU291
 1135 001e 8DF80320 		strb	r2, [sp, #3]
 531:Core/Src/can_manager.c ****     
 532:Core/Src/can_manager.c ****     // Byte 4: TX error count
 533:Core/Src/can_manager.c ****     stats_data[4] = (uint8_t)(can_stats.tx_error_count & 0xFF);
 1136              		.loc 1 533 5 is_stmt 1 view .LVU292
 1137              		.loc 1 533 21 is_stmt 0 view .LVU293
 1138 0022 1A79     		ldrb	r2, [r3, #4]	@ zero_extendqisi2
 1139              		.loc 1 533 19 view .LVU294
 1140 0024 8DF80420 		strb	r2, [sp, #4]
 534:Core/Src/can_manager.c ****     
 535:Core/Src/can_manager.c ****     // Byte 5: RX queue full count
 536:Core/Src/can_manager.c ****     stats_data[5] = (uint8_t)(can_stats.rx_queue_full_count & 0xFF);
 1141              		.loc 1 536 5 is_stmt 1 view .LVU295
 1142              		.loc 1 536 21 is_stmt 0 view .LVU296
 1143 0028 1A7C     		ldrb	r2, [r3, #16]	@ zero_extendqisi2
 1144              		.loc 1 536 19 view .LVU297
 1145 002a 8DF80520 		strb	r2, [sp, #5]
 537:Core/Src/can_manager.c ****     
 538:Core/Src/can_manager.c ****     // Byte 6: Bus-off count
 539:Core/Src/can_manager.c ****     stats_data[6] = (uint8_t)(can_stats.bus_off_count & 0xFF);
 1146              		.loc 1 539 5 is_stmt 1 view .LVU298
 1147              		.loc 1 539 21 is_stmt 0 view .LVU299
 1148 002e 1A7D     		ldrb	r2, [r3, #20]	@ zero_extendqisi2
 1149              		.loc 1 539 19 view .LVU300
 1150 0030 8DF80620 		strb	r2, [sp, #6]
 540:Core/Src/can_manager.c ****     
ARM GAS  C:\Users\Ali\AppData\Local\Temp\cc4pL5T6.s 			page 32


 541:Core/Src/can_manager.c ****     // Byte 7: TX queue full count
 542:Core/Src/can_manager.c ****     stats_data[7] = (uint8_t)(can_stats.tx_queue_full_count & 0xFF);
 1151              		.loc 1 542 5 is_stmt 1 view .LVU301
 1152              		.loc 1 542 21 is_stmt 0 view .LVU302
 1153 0034 1B7A     		ldrb	r3, [r3, #8]	@ zero_extendqisi2
 1154              		.loc 1 542 19 view .LVU303
 1155 0036 8DF80730 		strb	r3, [sp, #7]
 543:Core/Src/can_manager.c ****     
 544:Core/Src/can_manager.c ****     // Send statistics with normal priority
 545:Core/Src/can_manager.c ****     return CAN_SendMessage(CAN_BMS_STATS_ID, stats_data, 8, CAN_PRIORITY_NORMAL);
 1156              		.loc 1 545 5 is_stmt 1 view .LVU304
 1157              		.loc 1 545 12 is_stmt 0 view .LVU305
 1158 003a 0223     		movs	r3, #2
 1159 003c 0822     		movs	r2, #8
 1160 003e 6946     		mov	r1, sp
 1161 0040 0448     		ldr	r0, .L104+4
 1162 0042 0068     		ldr	r0, [r0]
 1163 0044 FFF7FEFF 		bl	CAN_SendMessage
 1164              	.LVL56:
 546:Core/Src/can_manager.c **** }
 1165              		.loc 1 546 1 view .LVU306
 1166 0048 03B0     		add	sp, sp, #12
 1167              		.cfi_def_cfa_offset 4
 1168              		@ sp needed
 1169 004a 5DF804FB 		ldr	pc, [sp], #4
 1170              	.L105:
 1171 004e 00BF     		.align	2
 1172              	.L104:
 1173 0050 00000000 		.word	can_stats
 1174 0054 00000000 		.word	CAN_BMS_STATS_ID
 1175              		.cfi_endproc
 1176              	.LFE311:
 1178              		.section	.text.CAN_SendDebugInfo,"ax",%progbits
 1179              		.align	1
 1180              		.global	CAN_SendDebugInfo
 1181              		.syntax unified
 1182              		.thumb
 1183              		.thumb_func
 1185              	CAN_SendDebugInfo:
 1186              	.LFB312:
 547:Core/Src/can_manager.c **** 
 548:Core/Src/can_manager.c **** /**
 549:Core/Src/can_manager.c ****   * @brief  Send debug information message
 550:Core/Src/can_manager.c ****   * @note   Debug info format (8 bytes):
 551:Core/Src/can_manager.c ****   *         Byte 0: Module ID (0-15)
 552:Core/Src/can_manager.c ****   *         Byte 1: Firmware version major
 553:Core/Src/can_manager.c ****   *         Byte 2: Firmware version minor
 554:Core/Src/can_manager.c ****   *         Byte 3: Firmware version patch
 555:Core/Src/can_manager.c ****   *         Bytes 4-7: Uptime in seconds (32-bit)
 556:Core/Src/can_manager.c ****   * @retval HAL_StatusTypeDef
 557:Core/Src/can_manager.c ****   */
 558:Core/Src/can_manager.c **** HAL_StatusTypeDef CAN_SendDebugInfo(void)
 559:Core/Src/can_manager.c **** {
 1187              		.loc 1 559 1 is_stmt 1 view -0
 1188              		.cfi_startproc
 1189              		@ args = 0, pretend = 0, frame = 8
 1190              		@ frame_needed = 0, uses_anonymous_args = 0
ARM GAS  C:\Users\Ali\AppData\Local\Temp\cc4pL5T6.s 			page 33


 1191 0000 10B5     		push	{r4, lr}
 1192              		.cfi_def_cfa_offset 8
 1193              		.cfi_offset 4, -8
 1194              		.cfi_offset 14, -4
 1195 0002 82B0     		sub	sp, sp, #8
 1196              		.cfi_def_cfa_offset 16
 560:Core/Src/can_manager.c ****     uint8_t debug_data[8];
 1197              		.loc 1 560 5 view .LVU308
 561:Core/Src/can_manager.c ****     
 562:Core/Src/can_manager.c ****     // Get current module ID
 563:Core/Src/can_manager.c ****     extern uint8_t Config_GetModuleID(void);
 1198              		.loc 1 563 5 view .LVU309
 564:Core/Src/can_manager.c ****     uint8_t module_id = Config_GetModuleID();
 1199              		.loc 1 564 5 view .LVU310
 1200              		.loc 1 564 25 is_stmt 0 view .LVU311
 1201 0004 FFF7FEFF 		bl	Config_GetModuleID
 1202              	.LVL57:
 1203 0008 0446     		mov	r4, r0
 1204              	.LVL58:
 565:Core/Src/can_manager.c ****     
 566:Core/Src/can_manager.c ****     // Get uptime in seconds (convert from milliseconds)
 567:Core/Src/can_manager.c ****     uint32_t uptime_sec = osKernelGetTickCount() / 1000;
 1205              		.loc 1 567 5 is_stmt 1 view .LVU312
 1206              		.loc 1 567 27 is_stmt 0 view .LVU313
 1207 000a FFF7FEFF 		bl	osKernelGetTickCount
 1208              	.LVL59:
 1209              		.loc 1 567 14 discriminator 1 view .LVU314
 1210 000e 114B     		ldr	r3, .L108
 1211 0010 A3FB0032 		umull	r3, r2, r3, r0
 1212              	.LVL60:
 568:Core/Src/can_manager.c ****     
 569:Core/Src/can_manager.c ****     // Pack debug information message
 570:Core/Src/can_manager.c ****     debug_data[0] = module_id;          // Byte 0: Module ID
 1213              		.loc 1 570 5 is_stmt 1 view .LVU315
 1214              		.loc 1 570 19 is_stmt 0 view .LVU316
 1215 0014 8DF80040 		strb	r4, [sp]
 571:Core/Src/can_manager.c ****     debug_data[1] = 1;                  // Byte 1: Firmware version major (TODO: define these)
 1216              		.loc 1 571 5 is_stmt 1 view .LVU317
 1217              		.loc 1 571 19 is_stmt 0 view .LVU318
 1218 0018 0123     		movs	r3, #1
 1219 001a 8DF80130 		strb	r3, [sp, #1]
 572:Core/Src/can_manager.c ****     debug_data[2] = 0;                  // Byte 2: Firmware version minor
 1220              		.loc 1 572 5 is_stmt 1 view .LVU319
 1221              		.loc 1 572 19 is_stmt 0 view .LVU320
 1222 001e 0021     		movs	r1, #0
 1223 0020 8DF80210 		strb	r1, [sp, #2]
 573:Core/Src/can_manager.c ****     debug_data[3] = 0;                  // Byte 3: Firmware version patch
 1224              		.loc 1 573 5 is_stmt 1 view .LVU321
 1225              		.loc 1 573 19 is_stmt 0 view .LVU322
 1226 0024 8DF80310 		strb	r1, [sp, #3]
 574:Core/Src/can_manager.c ****     debug_data[4] = (uint8_t)(uptime_sec & 0xFF);           // Byte 4: Uptime LSB
 1227              		.loc 1 574 5 is_stmt 1 view .LVU323
 1228              		.loc 1 574 21 is_stmt 0 view .LVU324
 1229 0028 C2F38711 		ubfx	r1, r2, #6, #8
 1230              		.loc 1 574 19 view .LVU325
 1231 002c 8DF80410 		strb	r1, [sp, #4]
 575:Core/Src/can_manager.c ****     debug_data[5] = (uint8_t)((uptime_sec >> 8) & 0xFF);    // Byte 5: Uptime
ARM GAS  C:\Users\Ali\AppData\Local\Temp\cc4pL5T6.s 			page 34


 1232              		.loc 1 575 5 is_stmt 1 view .LVU326
 1233              		.loc 1 575 21 is_stmt 0 view .LVU327
 1234 0030 C2F38731 		ubfx	r1, r2, #14, #8
 1235              		.loc 1 575 19 view .LVU328
 1236 0034 8DF80510 		strb	r1, [sp, #5]
 576:Core/Src/can_manager.c ****     debug_data[6] = (uint8_t)((uptime_sec >> 16) & 0xFF);   // Byte 6: Uptime
 1237              		.loc 1 576 5 is_stmt 1 view .LVU329
 1238              		.loc 1 576 21 is_stmt 0 view .LVU330
 1239 0038 920D     		lsrs	r2, r2, #22
 1240              	.LVL61:
 1241              		.loc 1 576 19 view .LVU331
 1242 003a 8DF80620 		strb	r2, [sp, #6]
 577:Core/Src/can_manager.c ****     debug_data[7] = (uint8_t)((uptime_sec >> 24) & 0xFF);   // Byte 7: Uptime MSB
 1243              		.loc 1 577 5 is_stmt 1 view .LVU332
 1244              		.loc 1 577 21 is_stmt 0 view .LVU333
 1245 003e 0022     		movs	r2, #0
 1246              		.loc 1 577 19 view .LVU334
 1247 0040 8DF80720 		strb	r2, [sp, #7]
 578:Core/Src/can_manager.c ****     
 579:Core/Src/can_manager.c ****     // Send debug info with high priority
 580:Core/Src/can_manager.c ****     return CAN_SendMessage(CAN_DEBUG_RESPONSE_ID, debug_data, 8, CAN_PRIORITY_HIGH);
 1248              		.loc 1 580 5 is_stmt 1 view .LVU335
 1249              		.loc 1 580 12 is_stmt 0 view .LVU336
 1250 0044 0822     		movs	r2, #8
 1251 0046 6946     		mov	r1, sp
 1252 0048 0348     		ldr	r0, .L108+4
 1253              	.LVL62:
 1254              		.loc 1 580 12 view .LVU337
 1255 004a 0068     		ldr	r0, [r0]
 1256 004c FFF7FEFF 		bl	CAN_SendMessage
 1257              	.LVL63:
 581:Core/Src/can_manager.c **** }
 1258              		.loc 1 581 1 view .LVU338
 1259 0050 02B0     		add	sp, sp, #8
 1260              		.cfi_def_cfa_offset 8
 1261              		@ sp needed
 1262 0052 10BD     		pop	{r4, pc}
 1263              	.LVL64:
 1264              	.L109:
 1265              		.loc 1 581 1 view .LVU339
 1266              		.align	2
 1267              	.L108:
 1268 0054 D34D6210 		.word	274877907
 1269 0058 00000000 		.word	CAN_DEBUG_RESPONSE_ID
 1270              		.cfi_endproc
 1271              	.LFE312:
 1273              		.section	.text.CAN_ProcessRxMessage,"ax",%progbits
 1274              		.align	1
 1275              		.syntax unified
 1276              		.thumb
 1277              		.thumb_func
 1279              	CAN_ProcessRxMessage:
 1280              	.LVL65:
 1281              	.LFB299:
 240:Core/Src/can_manager.c ****     can_stats.rx_message_count++;
 1282              		.loc 1 240 1 is_stmt 1 view -0
 1283              		.cfi_startproc
ARM GAS  C:\Users\Ali\AppData\Local\Temp\cc4pL5T6.s 			page 35


 1284              		@ args = 0, pretend = 0, frame = 0
 1285              		@ frame_needed = 0, uses_anonymous_args = 0
 240:Core/Src/can_manager.c ****     can_stats.rx_message_count++;
 1286              		.loc 1 240 1 is_stmt 0 view .LVU341
 1287 0000 08B5     		push	{r3, lr}
 1288              		.cfi_def_cfa_offset 8
 1289              		.cfi_offset 3, -8
 1290              		.cfi_offset 14, -4
 241:Core/Src/can_manager.c ****     
 1291              		.loc 1 241 5 is_stmt 1 view .LVU342
 241:Core/Src/can_manager.c ****     
 1292              		.loc 1 241 14 is_stmt 0 view .LVU343
 1293 0002 0D4A     		ldr	r2, .L118
 1294 0004 D368     		ldr	r3, [r2, #12]
 241:Core/Src/can_manager.c ****     
 1295              		.loc 1 241 31 view .LVU344
 1296 0006 0133     		adds	r3, r3, #1
 1297 0008 D360     		str	r3, [r2, #12]
 245:Core/Src/can_manager.c ****     if (base_id == (CAN_CONFIG_CMD_ID & 0xFFFF0FFF)) {
 1298              		.loc 1 245 5 is_stmt 1 view .LVU345
 245:Core/Src/can_manager.c ****     if (base_id == (CAN_CONFIG_CMD_ID & 0xFFFF0FFF)) {
 1299              		.loc 1 245 27 is_stmt 0 view .LVU346
 1300 000a 0368     		ldr	r3, [r0]
 245:Core/Src/can_manager.c ****     if (base_id == (CAN_CONFIG_CMD_ID & 0xFFFF0FFF)) {
 1301              		.loc 1 245 14 view .LVU347
 1302 000c 23F47041 		bic	r1, r3, #61440
 1303              	.LVL66:
 246:Core/Src/can_manager.c ****         // Process configuration command
 1304              		.loc 1 246 5 is_stmt 1 view .LVU348
 246:Core/Src/can_manager.c ****         // Process configuration command
 1305              		.loc 1 246 8 is_stmt 0 view .LVU349
 1306 0010 0A4A     		ldr	r2, .L118+4
 1307 0012 9142     		cmp	r1, r2
 1308 0014 07D0     		beq	.L116
 253:Core/Src/can_manager.c ****         // Send debug info response
 1309              		.loc 1 253 5 is_stmt 1 view .LVU350
 253:Core/Src/can_manager.c ****         // Send debug info response
 1310              		.loc 1 253 8 is_stmt 0 view .LVU351
 1311 0016 0A4A     		ldr	r2, .L118+8
 1312 0018 9342     		cmp	r3, r2
 1313 001a 09D0     		beq	.L117
 260:Core/Src/can_manager.c ****         rx_callback(msg);
 1314              		.loc 1 260 5 is_stmt 1 view .LVU352
 260:Core/Src/can_manager.c ****         rx_callback(msg);
 1315              		.loc 1 260 21 is_stmt 0 view .LVU353
 1316 001c 094B     		ldr	r3, .L118+12
 1317 001e 1B68     		ldr	r3, [r3]
 260:Core/Src/can_manager.c ****         rx_callback(msg);
 1318              		.loc 1 260 8 view .LVU354
 1319 0020 03B1     		cbz	r3, .L110
 261:Core/Src/can_manager.c ****     }
 1320              		.loc 1 261 9 is_stmt 1 view .LVU355
 1321 0022 9847     		blx	r3
 1322              	.LVL67:
 266:Core/Src/can_manager.c ****         case 0x100:
 1323              		.loc 1 266 5 view .LVU356
 279:Core/Src/can_manager.c ****     }
ARM GAS  C:\Users\Ali\AppData\Local\Temp\cc4pL5T6.s 			page 36


 1324              		.loc 1 279 13 view .LVU357
 1325              	.L110:
 281:Core/Src/can_manager.c **** 
 1326              		.loc 1 281 1 is_stmt 0 view .LVU358
 1327 0024 08BD     		pop	{r3, pc}
 1328              	.LVL68:
 1329              	.L116:
 248:Core/Src/can_manager.c ****         return;
 1330              		.loc 1 248 9 is_stmt 1 view .LVU359
 1331 0026 017B     		ldrb	r1, [r0, #12]	@ zero_extendqisi2
 1332              	.LVL69:
 248:Core/Src/can_manager.c ****         return;
 1333              		.loc 1 248 9 is_stmt 0 view .LVU360
 1334 0028 0430     		adds	r0, r0, #4
 1335              	.LVL70:
 248:Core/Src/can_manager.c ****         return;
 1336              		.loc 1 248 9 view .LVU361
 1337 002a FFF7FEFF 		bl	Config_ProcessCANCommand
 1338              	.LVL71:
 249:Core/Src/can_manager.c ****     }
 1339              		.loc 1 249 9 is_stmt 1 view .LVU362
 1340 002e F9E7     		b	.L110
 1341              	.LVL72:
 1342              	.L117:
 255:Core/Src/can_manager.c ****         return;
 1343              		.loc 1 255 9 view .LVU363
 1344 0030 FFF7FEFF 		bl	CAN_SendDebugInfo
 1345              	.LVL73:
 256:Core/Src/can_manager.c ****     }
 1346              		.loc 1 256 9 view .LVU364
 1347 0034 F6E7     		b	.L110
 1348              	.L119:
 1349 0036 00BF     		.align	2
 1350              	.L118:
 1351 0038 00000000 		.word	can_stats
 1352 003c 000FF008 		.word	149950208
 1353 0040 100FF008 		.word	149950224
 1354 0044 00000000 		.word	rx_callback
 1355              		.cfi_endproc
 1356              	.LFE299:
 1358              		.section	.text.CAN_ManagerTask,"ax",%progbits
 1359              		.align	1
 1360              		.global	CAN_ManagerTask
 1361              		.syntax unified
 1362              		.thumb
 1363              		.thumb_func
 1365              	CAN_ManagerTask:
 1366              	.LVL74:
 1367              	.LFB300:
 289:Core/Src/can_manager.c ****     CAN_Message_t rx_msg;
 1368              		.loc 1 289 1 view -0
 1369              		.cfi_startproc
 1370              		@ args = 0, pretend = 0, frame = 24
 1371              		@ frame_needed = 0, uses_anonymous_args = 0
 289:Core/Src/can_manager.c ****     CAN_Message_t rx_msg;
 1372              		.loc 1 289 1 is_stmt 0 view .LVU366
 1373 0000 2DE9F041 		push	{r4, r5, r6, r7, r8, lr}
ARM GAS  C:\Users\Ali\AppData\Local\Temp\cc4pL5T6.s 			page 37


 1374              		.cfi_def_cfa_offset 24
 1375              		.cfi_offset 4, -24
 1376              		.cfi_offset 5, -20
 1377              		.cfi_offset 6, -16
 1378              		.cfi_offset 7, -12
 1379              		.cfi_offset 8, -8
 1380              		.cfi_offset 14, -4
 1381 0004 86B0     		sub	sp, sp, #24
 1382              		.cfi_def_cfa_offset 48
 290:Core/Src/can_manager.c ****     uint32_t last_heartbeat_tick = 0;
 1383              		.loc 1 290 5 is_stmt 1 view .LVU367
 291:Core/Src/can_manager.c ****     uint32_t last_stats_tick = 0;
 1384              		.loc 1 291 5 view .LVU368
 1385              	.LVL75:
 292:Core/Src/can_manager.c ****     uint32_t last_uptime_tick = 0;
 1386              		.loc 1 292 5 view .LVU369
 293:Core/Src/can_manager.c ****     uint32_t current_tick = 0;
 1387              		.loc 1 293 5 view .LVU370
 294:Core/Src/can_manager.c ****     
 1388              		.loc 1 294 5 view .LVU371
 297:Core/Src/can_manager.c ****     
 1389              		.loc 1 297 5 view .LVU372
 1390 0006 6420     		movs	r0, #100
 1391              	.LVL76:
 297:Core/Src/can_manager.c ****     
 1392              		.loc 1 297 5 is_stmt 0 view .LVU373
 1393 0008 FFF7FEFF 		bl	osDelay
 1394              	.LVL77:
 300:Core/Src/can_manager.c ****     last_stats_tick = osKernelGetTickCount();
 1395              		.loc 1 300 5 is_stmt 1 view .LVU374
 300:Core/Src/can_manager.c ****     last_stats_tick = osKernelGetTickCount();
 1396              		.loc 1 300 27 is_stmt 0 view .LVU375
 1397 000c FFF7FEFF 		bl	osKernelGetTickCount
 1398              	.LVL78:
 1399 0010 8046     		mov	r8, r0
 1400              	.LVL79:
 301:Core/Src/can_manager.c ****     last_uptime_tick = osKernelGetTickCount();
 1401              		.loc 1 301 5 is_stmt 1 view .LVU376
 301:Core/Src/can_manager.c ****     last_uptime_tick = osKernelGetTickCount();
 1402              		.loc 1 301 23 is_stmt 0 view .LVU377
 1403 0012 FFF7FEFF 		bl	osKernelGetTickCount
 1404              	.LVL80:
 301:Core/Src/can_manager.c ****     last_uptime_tick = osKernelGetTickCount();
 1405              		.loc 1 301 23 view .LVU378
 1406 0016 0746     		mov	r7, r0
 1407              	.LVL81:
 302:Core/Src/can_manager.c ****     
 1408              		.loc 1 302 5 is_stmt 1 view .LVU379
 302:Core/Src/can_manager.c ****     
 1409              		.loc 1 302 24 is_stmt 0 view .LVU380
 1410 0018 FFF7FEFF 		bl	osKernelGetTickCount
 1411              	.LVL82:
 302:Core/Src/can_manager.c ****     
 1412              		.loc 1 302 24 view .LVU381
 1413 001c 0646     		mov	r6, r0
 1414 001e 20E0     		b	.L126
 1415              	.LVL83:
ARM GAS  C:\Users\Ali\AppData\Local\Temp\cc4pL5T6.s 			page 38


 1416              	.L122:
 311:Core/Src/can_manager.c ****         }
 1417              		.loc 1 311 13 is_stmt 1 view .LVU382
 1418 0020 01A8     		add	r0, sp, #4
 1419 0022 FFF7FEFF 		bl	CAN_ProcessRxMessage
 1420              	.LVL84:
 1421              	.L121:
 310:Core/Src/can_manager.c ****             CAN_ProcessRxMessage(&rx_msg);
 1422              		.loc 1 310 70 view .LVU383
 310:Core/Src/can_manager.c ****             CAN_ProcessRxMessage(&rx_msg);
 1423              		.loc 1 310 16 is_stmt 0 view .LVU384
 1424 0026 0023     		movs	r3, #0
 1425 0028 1A46     		mov	r2, r3
 1426 002a 01A9     		add	r1, sp, #4
 1427 002c 134C     		ldr	r4, .L130
 1428 002e 2068     		ldr	r0, [r4]
 1429 0030 FFF7FEFF 		bl	osMessageQueueGet
 1430              	.LVL85:
 310:Core/Src/can_manager.c ****             CAN_ProcessRxMessage(&rx_msg);
 1431              		.loc 1 310 70 discriminator 1 view .LVU385
 1432 0034 0028     		cmp	r0, #0
 1433 0036 F3D0     		beq	.L122
 315:Core/Src/can_manager.c ****         
 1434              		.loc 1 315 9 is_stmt 1 view .LVU386
 1435 0038 FFF7FEFF 		bl	CAN_ProcessTxQueue
 1436              	.LVL86:
 318:Core/Src/can_manager.c ****             CAN_SendHeartbeat();
 1437              		.loc 1 318 9 view .LVU387
 318:Core/Src/can_manager.c ****             CAN_SendHeartbeat();
 1438              		.loc 1 318 27 is_stmt 0 view .LVU388
 1439 003c A5EB0803 		sub	r3, r5, r8
 318:Core/Src/can_manager.c ****             CAN_SendHeartbeat();
 1440              		.loc 1 318 12 view .LVU389
 1441 0040 B3F57A7F 		cmp	r3, #1000
 1442 0044 11D2     		bcs	.L128
 1443              	.L123:
 324:Core/Src/can_manager.c ****             CAN_SendStatistics();
 1444              		.loc 1 324 9 is_stmt 1 view .LVU390
 324:Core/Src/can_manager.c ****             CAN_SendStatistics();
 1445              		.loc 1 324 27 is_stmt 0 view .LVU391
 1446 0046 EB1B     		subs	r3, r5, r7
 324:Core/Src/can_manager.c ****             CAN_SendStatistics();
 1447              		.loc 1 324 12 view .LVU392
 1448 0048 B3F57A7F 		cmp	r3, #1000
 1449 004c 11D2     		bcs	.L129
 1450              	.L124:
 330:Core/Src/can_manager.c ****             ErrorMgr_UpdateUptime();
 1451              		.loc 1 330 9 is_stmt 1 view .LVU393
 330:Core/Src/can_manager.c ****             ErrorMgr_UpdateUptime();
 1452              		.loc 1 330 27 is_stmt 0 view .LVU394
 1453 004e AB1B     		subs	r3, r5, r6
 330:Core/Src/can_manager.c ****             ErrorMgr_UpdateUptime();
 1454              		.loc 1 330 12 view .LVU395
 1455 0050 B3F57A7F 		cmp	r3, #1000
 1456 0054 02D3     		bcc	.L125
 331:Core/Src/can_manager.c ****             last_uptime_tick = current_tick;
 1457              		.loc 1 331 13 is_stmt 1 view .LVU396
ARM GAS  C:\Users\Ali\AppData\Local\Temp\cc4pL5T6.s 			page 39


 1458 0056 FFF7FEFF 		bl	ErrorMgr_UpdateUptime
 1459              	.LVL87:
 332:Core/Src/can_manager.c ****         }
 1460              		.loc 1 332 13 view .LVU397
 332:Core/Src/can_manager.c ****         }
 1461              		.loc 1 332 30 is_stmt 0 view .LVU398
 1462 005a 2E46     		mov	r6, r5
 1463              	.LVL88:
 1464              	.L125:
 337:Core/Src/can_manager.c ****     }
 1465              		.loc 1 337 9 is_stmt 1 view .LVU399
 1466 005c 0A20     		movs	r0, #10
 1467 005e FFF7FEFF 		bl	osDelay
 1468              	.LVL89:
 305:Core/Src/can_manager.c ****     {
 1469              		.loc 1 305 5 view .LVU400
 1470              	.L126:
 305:Core/Src/can_manager.c ****     {
 1471              		.loc 1 305 5 view .LVU401
 307:Core/Src/can_manager.c ****         
 1472              		.loc 1 307 9 view .LVU402
 307:Core/Src/can_manager.c ****         
 1473              		.loc 1 307 24 is_stmt 0 view .LVU403
 1474 0062 FFF7FEFF 		bl	osKernelGetTickCount
 1475              	.LVL90:
 1476 0066 0546     		mov	r5, r0
 1477              	.LVL91:
 310:Core/Src/can_manager.c ****             CAN_ProcessRxMessage(&rx_msg);
 1478              		.loc 1 310 9 is_stmt 1 view .LVU404
 310:Core/Src/can_manager.c ****             CAN_ProcessRxMessage(&rx_msg);
 1479              		.loc 1 310 15 is_stmt 0 view .LVU405
 1480 0068 DDE7     		b	.L121
 1481              	.LVL92:
 1482              	.L128:
 319:Core/Src/can_manager.c ****             last_heartbeat_tick = current_tick;
 1483              		.loc 1 319 13 is_stmt 1 view .LVU406
 1484 006a FFF7FEFF 		bl	CAN_SendHeartbeat
 1485              	.LVL93:
 320:Core/Src/can_manager.c ****         }
 1486              		.loc 1 320 13 view .LVU407
 320:Core/Src/can_manager.c ****         }
 1487              		.loc 1 320 33 is_stmt 0 view .LVU408
 1488 006e A846     		mov	r8, r5
 1489 0070 E9E7     		b	.L123
 1490              	.LVL94:
 1491              	.L129:
 325:Core/Src/can_manager.c ****             last_stats_tick = current_tick;
 1492              		.loc 1 325 13 is_stmt 1 view .LVU409
 1493 0072 FFF7FEFF 		bl	CAN_SendStatistics
 1494              	.LVL95:
 326:Core/Src/can_manager.c ****         }
 1495              		.loc 1 326 13 view .LVU410
 326:Core/Src/can_manager.c ****         }
 1496              		.loc 1 326 29 is_stmt 0 view .LVU411
 1497 0076 2F46     		mov	r7, r5
 1498 0078 E9E7     		b	.L124
 1499              	.L131:
ARM GAS  C:\Users\Ali\AppData\Local\Temp\cc4pL5T6.s 			page 40


 1500 007a 00BF     		.align	2
 1501              	.L130:
 1502 007c 00000000 		.word	CANRxQueueHandle
 1503              		.cfi_endproc
 1504              	.LFE300:
 1506              		.section	.bss.can_stats,"aw",%nobits
 1507              		.align	2
 1510              	can_stats:
 1511 0000 00000000 		.space	24
 1511      00000000 
 1511      00000000 
 1511      00000000 
 1511      00000000 
 1512              		.section	.bss.rx_callback,"aw",%nobits
 1513              		.align	2
 1516              	rx_callback:
 1517 0000 00000000 		.space	4
 1518              		.global	CANRxQueueHandle
 1519              		.section	.bss.CANRxQueueHandle,"aw",%nobits
 1520              		.align	2
 1523              	CANRxQueueHandle:
 1524 0000 00000000 		.space	4
 1525              		.global	CANTxQueueHandle
 1526              		.section	.bss.CANTxQueueHandle,"aw",%nobits
 1527              		.align	2
 1530              	CANTxQueueHandle:
 1531 0000 00000000 		.space	4
 1532              		.text
 1533              	.Letext0:
 1534              		.file 2 "C:/Users/Ali/AppData/Roaming/Code/User/globalStorage/bmd.stm32-for-vscode/@xpack-dev-tool
 1535              		.file 3 "C:/Users/Ali/AppData/Roaming/Code/User/globalStorage/bmd.stm32-for-vscode/@xpack-dev-tool
 1536              		.file 4 "Drivers/CMSIS/Device/ST/STM32L4xx/Include/stm32l432xx.h"
 1537              		.file 5 "Drivers/CMSIS/Device/ST/STM32L4xx/Include/stm32l4xx.h"
 1538              		.file 6 "Drivers/STM32L4xx_HAL_Driver/Inc/stm32l4xx_hal_def.h"
 1539              		.file 7 "Drivers/STM32L4xx_HAL_Driver/Inc/stm32l4xx_hal_can.h"
 1540              		.file 8 "Middlewares/Third_Party/FreeRTOS/Source/CMSIS_RTOS_V2/cmsis_os2.h"
 1541              		.file 9 "Core/Inc/can_ids.h"
 1542              		.file 10 "Core/Inc/can_manager.h"
 1543              		.file 11 "Core/Inc/error_manager.h"
 1544              		.file 12 "C:/Users/Ali/AppData/Roaming/Code/User/globalStorage/bmd.stm32-for-vscode/@xpack-dev-too
 1545              		.file 13 "Core/Inc/config_manager.h"
 1546              		.file 14 "<built-in>"
ARM GAS  C:\Users\Ali\AppData\Local\Temp\cc4pL5T6.s 			page 41

