ARM GAS  C:\Users\Ali\AppData\Local\Temp\ccXUmpZ6.s 			page 1


   1              		.cpu cortex-m4
   2              		.arch armv7e-m
   3              		.fpu fpv4-sp-d16
   4              		.eabi_attribute 27, 1
   5              		.eabi_attribute 28, 1
   6              		.eabi_attribute 20, 1
   7              		.eabi_attribute 21, 1
   8              		.eabi_attribute 23, 3
   9              		.eabi_attribute 24, 1
  10              		.eabi_attribute 25, 1
  11              		.eabi_attribute 26, 1
  12              		.eabi_attribute 30, 1
  13              		.eabi_attribute 34, 1
  14              		.eabi_attribute 18, 4
  15              		.file	"heap_4.c"
  16              		.text
  17              	.Ltext0:
  18              		.cfi_sections	.debug_frame
  19              		.file 1 "Middlewares/Third_Party/FreeRTOS/Source/portable/MemMang/heap_4.c"
  20              		.section	.text.prvHeapInit,"ax",%progbits
  21              		.align	1
  22              		.syntax unified
  23              		.thumb
  24              		.thumb_func
  26              	prvHeapInit:
  27              	.LFB9:
   1:Middlewares/Third_Party/FreeRTOS/Source/portable/MemMang/heap_4.c **** /*
   2:Middlewares/Third_Party/FreeRTOS/Source/portable/MemMang/heap_4.c ****  * FreeRTOS Kernel V10.3.1
   3:Middlewares/Third_Party/FreeRTOS/Source/portable/MemMang/heap_4.c ****  * Copyright (C) 2020 Amazon.com, Inc. or its affiliates.  All Rights Reserved.
   4:Middlewares/Third_Party/FreeRTOS/Source/portable/MemMang/heap_4.c ****  *
   5:Middlewares/Third_Party/FreeRTOS/Source/portable/MemMang/heap_4.c ****  * Permission is hereby granted, free of charge, to any person obtaining a copy of
   6:Middlewares/Third_Party/FreeRTOS/Source/portable/MemMang/heap_4.c ****  * this software and associated documentation files (the "Software"), to deal in
   7:Middlewares/Third_Party/FreeRTOS/Source/portable/MemMang/heap_4.c ****  * the Software without restriction, including without limitation the rights to
   8:Middlewares/Third_Party/FreeRTOS/Source/portable/MemMang/heap_4.c ****  * use, copy, modify, merge, publish, distribute, sublicense, and/or sell copies of
   9:Middlewares/Third_Party/FreeRTOS/Source/portable/MemMang/heap_4.c ****  * the Software, and to permit persons to whom the Software is furnished to do so,
  10:Middlewares/Third_Party/FreeRTOS/Source/portable/MemMang/heap_4.c ****  * subject to the following conditions:
  11:Middlewares/Third_Party/FreeRTOS/Source/portable/MemMang/heap_4.c ****  *
  12:Middlewares/Third_Party/FreeRTOS/Source/portable/MemMang/heap_4.c ****  * The above copyright notice and this permission notice shall be included in all
  13:Middlewares/Third_Party/FreeRTOS/Source/portable/MemMang/heap_4.c ****  * copies or substantial portions of the Software.
  14:Middlewares/Third_Party/FreeRTOS/Source/portable/MemMang/heap_4.c ****  *
  15:Middlewares/Third_Party/FreeRTOS/Source/portable/MemMang/heap_4.c ****  * THE SOFTWARE IS PROVIDED "AS IS", WITHOUT WARRANTY OF ANY KIND, EXPRESS OR
  16:Middlewares/Third_Party/FreeRTOS/Source/portable/MemMang/heap_4.c ****  * IMPLIED, INCLUDING BUT NOT LIMITED TO THE WARRANTIES OF MERCHANTABILITY, FITNESS
  17:Middlewares/Third_Party/FreeRTOS/Source/portable/MemMang/heap_4.c ****  * FOR A PARTICULAR PURPOSE AND NONINFRINGEMENT. IN NO EVENT SHALL THE AUTHORS OR
  18:Middlewares/Third_Party/FreeRTOS/Source/portable/MemMang/heap_4.c ****  * COPYRIGHT HOLDERS BE LIABLE FOR ANY CLAIM, DAMAGES OR OTHER LIABILITY, WHETHER
  19:Middlewares/Third_Party/FreeRTOS/Source/portable/MemMang/heap_4.c ****  * IN AN ACTION OF CONTRACT, TORT OR OTHERWISE, ARISING FROM, OUT OF OR IN
  20:Middlewares/Third_Party/FreeRTOS/Source/portable/MemMang/heap_4.c ****  * CONNECTION WITH THE SOFTWARE OR THE USE OR OTHER DEALINGS IN THE SOFTWARE.
  21:Middlewares/Third_Party/FreeRTOS/Source/portable/MemMang/heap_4.c ****  *
  22:Middlewares/Third_Party/FreeRTOS/Source/portable/MemMang/heap_4.c ****  * http://www.FreeRTOS.org
  23:Middlewares/Third_Party/FreeRTOS/Source/portable/MemMang/heap_4.c ****  * http://aws.amazon.com/freertos
  24:Middlewares/Third_Party/FreeRTOS/Source/portable/MemMang/heap_4.c ****  *
  25:Middlewares/Third_Party/FreeRTOS/Source/portable/MemMang/heap_4.c ****  * 1 tab == 4 spaces!
  26:Middlewares/Third_Party/FreeRTOS/Source/portable/MemMang/heap_4.c ****  */
  27:Middlewares/Third_Party/FreeRTOS/Source/portable/MemMang/heap_4.c **** 
  28:Middlewares/Third_Party/FreeRTOS/Source/portable/MemMang/heap_4.c **** /*
  29:Middlewares/Third_Party/FreeRTOS/Source/portable/MemMang/heap_4.c ****  * A sample implementation of pvPortMalloc() and vPortFree() that combines
  30:Middlewares/Third_Party/FreeRTOS/Source/portable/MemMang/heap_4.c ****  * (coalescences) adjacent memory blocks as they are freed, and in so doing
  31:Middlewares/Third_Party/FreeRTOS/Source/portable/MemMang/heap_4.c ****  * limits memory fragmentation.
ARM GAS  C:\Users\Ali\AppData\Local\Temp\ccXUmpZ6.s 			page 2


  32:Middlewares/Third_Party/FreeRTOS/Source/portable/MemMang/heap_4.c ****  *
  33:Middlewares/Third_Party/FreeRTOS/Source/portable/MemMang/heap_4.c ****  * See heap_1.c, heap_2.c and heap_3.c for alternative implementations, and the
  34:Middlewares/Third_Party/FreeRTOS/Source/portable/MemMang/heap_4.c ****  * memory management pages of http://www.FreeRTOS.org for more information.
  35:Middlewares/Third_Party/FreeRTOS/Source/portable/MemMang/heap_4.c ****  */
  36:Middlewares/Third_Party/FreeRTOS/Source/portable/MemMang/heap_4.c **** #include <stdlib.h>
  37:Middlewares/Third_Party/FreeRTOS/Source/portable/MemMang/heap_4.c **** 
  38:Middlewares/Third_Party/FreeRTOS/Source/portable/MemMang/heap_4.c **** /* Defining MPU_WRAPPERS_INCLUDED_FROM_API_FILE prevents task.h from redefining
  39:Middlewares/Third_Party/FreeRTOS/Source/portable/MemMang/heap_4.c **** all the API functions to use the MPU wrappers.  That should only be done when
  40:Middlewares/Third_Party/FreeRTOS/Source/portable/MemMang/heap_4.c **** task.h is included from an application file. */
  41:Middlewares/Third_Party/FreeRTOS/Source/portable/MemMang/heap_4.c **** #define MPU_WRAPPERS_INCLUDED_FROM_API_FILE
  42:Middlewares/Third_Party/FreeRTOS/Source/portable/MemMang/heap_4.c **** 
  43:Middlewares/Third_Party/FreeRTOS/Source/portable/MemMang/heap_4.c **** #include "FreeRTOS.h"
  44:Middlewares/Third_Party/FreeRTOS/Source/portable/MemMang/heap_4.c **** #include "task.h"
  45:Middlewares/Third_Party/FreeRTOS/Source/portable/MemMang/heap_4.c **** 
  46:Middlewares/Third_Party/FreeRTOS/Source/portable/MemMang/heap_4.c **** #undef MPU_WRAPPERS_INCLUDED_FROM_API_FILE
  47:Middlewares/Third_Party/FreeRTOS/Source/portable/MemMang/heap_4.c **** 
  48:Middlewares/Third_Party/FreeRTOS/Source/portable/MemMang/heap_4.c **** #if( configSUPPORT_DYNAMIC_ALLOCATION == 0 )
  49:Middlewares/Third_Party/FreeRTOS/Source/portable/MemMang/heap_4.c **** 	#error This file must not be used if configSUPPORT_DYNAMIC_ALLOCATION is 0
  50:Middlewares/Third_Party/FreeRTOS/Source/portable/MemMang/heap_4.c **** #endif
  51:Middlewares/Third_Party/FreeRTOS/Source/portable/MemMang/heap_4.c **** 
  52:Middlewares/Third_Party/FreeRTOS/Source/portable/MemMang/heap_4.c **** /* Block sizes must not get too small. */
  53:Middlewares/Third_Party/FreeRTOS/Source/portable/MemMang/heap_4.c **** #define heapMINIMUM_BLOCK_SIZE	( ( size_t ) ( xHeapStructSize << 1 ) )
  54:Middlewares/Third_Party/FreeRTOS/Source/portable/MemMang/heap_4.c **** 
  55:Middlewares/Third_Party/FreeRTOS/Source/portable/MemMang/heap_4.c **** /* Assumes 8bit bytes! */
  56:Middlewares/Third_Party/FreeRTOS/Source/portable/MemMang/heap_4.c **** #define heapBITS_PER_BYTE		( ( size_t ) 8 )
  57:Middlewares/Third_Party/FreeRTOS/Source/portable/MemMang/heap_4.c **** 
  58:Middlewares/Third_Party/FreeRTOS/Source/portable/MemMang/heap_4.c **** /* Allocate the memory for the heap. */
  59:Middlewares/Third_Party/FreeRTOS/Source/portable/MemMang/heap_4.c **** #if( configAPPLICATION_ALLOCATED_HEAP == 1 )
  60:Middlewares/Third_Party/FreeRTOS/Source/portable/MemMang/heap_4.c **** 	/* The application writer has already defined the array used for the RTOS
  61:Middlewares/Third_Party/FreeRTOS/Source/portable/MemMang/heap_4.c **** 	heap - probably so it can be placed in a special segment or address. */
  62:Middlewares/Third_Party/FreeRTOS/Source/portable/MemMang/heap_4.c **** 	extern uint8_t ucHeap[ configTOTAL_HEAP_SIZE ];
  63:Middlewares/Third_Party/FreeRTOS/Source/portable/MemMang/heap_4.c **** #else
  64:Middlewares/Third_Party/FreeRTOS/Source/portable/MemMang/heap_4.c **** 	static uint8_t ucHeap[ configTOTAL_HEAP_SIZE ];
  65:Middlewares/Third_Party/FreeRTOS/Source/portable/MemMang/heap_4.c **** #endif /* configAPPLICATION_ALLOCATED_HEAP */
  66:Middlewares/Third_Party/FreeRTOS/Source/portable/MemMang/heap_4.c **** 
  67:Middlewares/Third_Party/FreeRTOS/Source/portable/MemMang/heap_4.c **** /* Define the linked list structure.  This is used to link free blocks in order
  68:Middlewares/Third_Party/FreeRTOS/Source/portable/MemMang/heap_4.c **** of their memory address. */
  69:Middlewares/Third_Party/FreeRTOS/Source/portable/MemMang/heap_4.c **** typedef struct A_BLOCK_LINK
  70:Middlewares/Third_Party/FreeRTOS/Source/portable/MemMang/heap_4.c **** {
  71:Middlewares/Third_Party/FreeRTOS/Source/portable/MemMang/heap_4.c **** 	struct A_BLOCK_LINK *pxNextFreeBlock;	/*<< The next free block in the list. */
  72:Middlewares/Third_Party/FreeRTOS/Source/portable/MemMang/heap_4.c **** 	size_t xBlockSize;						/*<< The size of the free block. */
  73:Middlewares/Third_Party/FreeRTOS/Source/portable/MemMang/heap_4.c **** } BlockLink_t;
  74:Middlewares/Third_Party/FreeRTOS/Source/portable/MemMang/heap_4.c **** 
  75:Middlewares/Third_Party/FreeRTOS/Source/portable/MemMang/heap_4.c **** /*-----------------------------------------------------------*/
  76:Middlewares/Third_Party/FreeRTOS/Source/portable/MemMang/heap_4.c **** 
  77:Middlewares/Third_Party/FreeRTOS/Source/portable/MemMang/heap_4.c **** /*
  78:Middlewares/Third_Party/FreeRTOS/Source/portable/MemMang/heap_4.c ****  * Inserts a block of memory that is being freed into the correct position in
  79:Middlewares/Third_Party/FreeRTOS/Source/portable/MemMang/heap_4.c ****  * the list of free memory blocks.  The block being freed will be merged with
  80:Middlewares/Third_Party/FreeRTOS/Source/portable/MemMang/heap_4.c ****  * the block in front it and/or the block behind it if the memory blocks are
  81:Middlewares/Third_Party/FreeRTOS/Source/portable/MemMang/heap_4.c ****  * adjacent to each other.
  82:Middlewares/Third_Party/FreeRTOS/Source/portable/MemMang/heap_4.c ****  */
  83:Middlewares/Third_Party/FreeRTOS/Source/portable/MemMang/heap_4.c **** static void prvInsertBlockIntoFreeList( BlockLink_t *pxBlockToInsert );
  84:Middlewares/Third_Party/FreeRTOS/Source/portable/MemMang/heap_4.c **** 
  85:Middlewares/Third_Party/FreeRTOS/Source/portable/MemMang/heap_4.c **** /*
  86:Middlewares/Third_Party/FreeRTOS/Source/portable/MemMang/heap_4.c ****  * Called automatically to setup the required heap structures the first time
  87:Middlewares/Third_Party/FreeRTOS/Source/portable/MemMang/heap_4.c ****  * pvPortMalloc() is called.
  88:Middlewares/Third_Party/FreeRTOS/Source/portable/MemMang/heap_4.c ****  */
ARM GAS  C:\Users\Ali\AppData\Local\Temp\ccXUmpZ6.s 			page 3


  89:Middlewares/Third_Party/FreeRTOS/Source/portable/MemMang/heap_4.c **** static void prvHeapInit( void );
  90:Middlewares/Third_Party/FreeRTOS/Source/portable/MemMang/heap_4.c **** 
  91:Middlewares/Third_Party/FreeRTOS/Source/portable/MemMang/heap_4.c **** /*-----------------------------------------------------------*/
  92:Middlewares/Third_Party/FreeRTOS/Source/portable/MemMang/heap_4.c **** 
  93:Middlewares/Third_Party/FreeRTOS/Source/portable/MemMang/heap_4.c **** /* The size of the structure placed at the beginning of each allocated memory
  94:Middlewares/Third_Party/FreeRTOS/Source/portable/MemMang/heap_4.c **** block must by correctly byte aligned. */
  95:Middlewares/Third_Party/FreeRTOS/Source/portable/MemMang/heap_4.c **** static const size_t xHeapStructSize	= ( sizeof( BlockLink_t ) + ( ( size_t ) ( portBYTE_ALIGNMENT -
  96:Middlewares/Third_Party/FreeRTOS/Source/portable/MemMang/heap_4.c **** 
  97:Middlewares/Third_Party/FreeRTOS/Source/portable/MemMang/heap_4.c **** /* Create a couple of list links to mark the start and end of the list. */
  98:Middlewares/Third_Party/FreeRTOS/Source/portable/MemMang/heap_4.c **** static BlockLink_t xStart, *pxEnd = NULL;
  99:Middlewares/Third_Party/FreeRTOS/Source/portable/MemMang/heap_4.c **** 
 100:Middlewares/Third_Party/FreeRTOS/Source/portable/MemMang/heap_4.c **** /* Keeps track of the number of calls to allocate and free memory as well as the
 101:Middlewares/Third_Party/FreeRTOS/Source/portable/MemMang/heap_4.c **** number of free bytes remaining, but says nothing about fragmentation. */
 102:Middlewares/Third_Party/FreeRTOS/Source/portable/MemMang/heap_4.c **** static size_t xFreeBytesRemaining = 0U;
 103:Middlewares/Third_Party/FreeRTOS/Source/portable/MemMang/heap_4.c **** static size_t xMinimumEverFreeBytesRemaining = 0U;
 104:Middlewares/Third_Party/FreeRTOS/Source/portable/MemMang/heap_4.c **** static size_t xNumberOfSuccessfulAllocations = 0;
 105:Middlewares/Third_Party/FreeRTOS/Source/portable/MemMang/heap_4.c **** static size_t xNumberOfSuccessfulFrees = 0;
 106:Middlewares/Third_Party/FreeRTOS/Source/portable/MemMang/heap_4.c **** 
 107:Middlewares/Third_Party/FreeRTOS/Source/portable/MemMang/heap_4.c **** /* Gets set to the top bit of an size_t type.  When this bit in the xBlockSize
 108:Middlewares/Third_Party/FreeRTOS/Source/portable/MemMang/heap_4.c **** member of an BlockLink_t structure is set then the block belongs to the
 109:Middlewares/Third_Party/FreeRTOS/Source/portable/MemMang/heap_4.c **** application.  When the bit is free the block is still part of the free heap
 110:Middlewares/Third_Party/FreeRTOS/Source/portable/MemMang/heap_4.c **** space. */
 111:Middlewares/Third_Party/FreeRTOS/Source/portable/MemMang/heap_4.c **** static size_t xBlockAllocatedBit = 0;
 112:Middlewares/Third_Party/FreeRTOS/Source/portable/MemMang/heap_4.c **** 
 113:Middlewares/Third_Party/FreeRTOS/Source/portable/MemMang/heap_4.c **** /*-----------------------------------------------------------*/
 114:Middlewares/Third_Party/FreeRTOS/Source/portable/MemMang/heap_4.c **** 
 115:Middlewares/Third_Party/FreeRTOS/Source/portable/MemMang/heap_4.c **** void *pvPortMalloc( size_t xWantedSize )
 116:Middlewares/Third_Party/FreeRTOS/Source/portable/MemMang/heap_4.c **** {
 117:Middlewares/Third_Party/FreeRTOS/Source/portable/MemMang/heap_4.c **** BlockLink_t *pxBlock, *pxPreviousBlock, *pxNewBlockLink;
 118:Middlewares/Third_Party/FreeRTOS/Source/portable/MemMang/heap_4.c **** void *pvReturn = NULL;
 119:Middlewares/Third_Party/FreeRTOS/Source/portable/MemMang/heap_4.c **** 
 120:Middlewares/Third_Party/FreeRTOS/Source/portable/MemMang/heap_4.c **** 	vTaskSuspendAll();
 121:Middlewares/Third_Party/FreeRTOS/Source/portable/MemMang/heap_4.c **** 	{
 122:Middlewares/Third_Party/FreeRTOS/Source/portable/MemMang/heap_4.c **** 		/* If this is the first call to malloc then the heap will require
 123:Middlewares/Third_Party/FreeRTOS/Source/portable/MemMang/heap_4.c **** 		initialisation to setup the list of free blocks. */
 124:Middlewares/Third_Party/FreeRTOS/Source/portable/MemMang/heap_4.c **** 		if( pxEnd == NULL )
 125:Middlewares/Third_Party/FreeRTOS/Source/portable/MemMang/heap_4.c **** 		{
 126:Middlewares/Third_Party/FreeRTOS/Source/portable/MemMang/heap_4.c **** 			prvHeapInit();
 127:Middlewares/Third_Party/FreeRTOS/Source/portable/MemMang/heap_4.c **** 		}
 128:Middlewares/Third_Party/FreeRTOS/Source/portable/MemMang/heap_4.c **** 		else
 129:Middlewares/Third_Party/FreeRTOS/Source/portable/MemMang/heap_4.c **** 		{
 130:Middlewares/Third_Party/FreeRTOS/Source/portable/MemMang/heap_4.c **** 			mtCOVERAGE_TEST_MARKER();
 131:Middlewares/Third_Party/FreeRTOS/Source/portable/MemMang/heap_4.c **** 		}
 132:Middlewares/Third_Party/FreeRTOS/Source/portable/MemMang/heap_4.c **** 
 133:Middlewares/Third_Party/FreeRTOS/Source/portable/MemMang/heap_4.c **** 		/* Check the requested block size is not so large that the top bit is
 134:Middlewares/Third_Party/FreeRTOS/Source/portable/MemMang/heap_4.c **** 		set.  The top bit of the block size member of the BlockLink_t structure
 135:Middlewares/Third_Party/FreeRTOS/Source/portable/MemMang/heap_4.c **** 		is used to determine who owns the block - the application or the
 136:Middlewares/Third_Party/FreeRTOS/Source/portable/MemMang/heap_4.c **** 		kernel, so it must be free. */
 137:Middlewares/Third_Party/FreeRTOS/Source/portable/MemMang/heap_4.c **** 		if( ( xWantedSize & xBlockAllocatedBit ) == 0 )
 138:Middlewares/Third_Party/FreeRTOS/Source/portable/MemMang/heap_4.c **** 		{
 139:Middlewares/Third_Party/FreeRTOS/Source/portable/MemMang/heap_4.c **** 			/* The wanted size is increased so it can contain a BlockLink_t
 140:Middlewares/Third_Party/FreeRTOS/Source/portable/MemMang/heap_4.c **** 			structure in addition to the requested amount of bytes. */
 141:Middlewares/Third_Party/FreeRTOS/Source/portable/MemMang/heap_4.c **** 			if( xWantedSize > 0 )
 142:Middlewares/Third_Party/FreeRTOS/Source/portable/MemMang/heap_4.c **** 			{
 143:Middlewares/Third_Party/FreeRTOS/Source/portable/MemMang/heap_4.c **** 				xWantedSize += xHeapStructSize;
 144:Middlewares/Third_Party/FreeRTOS/Source/portable/MemMang/heap_4.c **** 
 145:Middlewares/Third_Party/FreeRTOS/Source/portable/MemMang/heap_4.c **** 				/* Ensure that blocks are always aligned to the required number
ARM GAS  C:\Users\Ali\AppData\Local\Temp\ccXUmpZ6.s 			page 4


 146:Middlewares/Third_Party/FreeRTOS/Source/portable/MemMang/heap_4.c **** 				of bytes. */
 147:Middlewares/Third_Party/FreeRTOS/Source/portable/MemMang/heap_4.c **** 				if( ( xWantedSize & portBYTE_ALIGNMENT_MASK ) != 0x00 )
 148:Middlewares/Third_Party/FreeRTOS/Source/portable/MemMang/heap_4.c **** 				{
 149:Middlewares/Third_Party/FreeRTOS/Source/portable/MemMang/heap_4.c **** 					/* Byte alignment required. */
 150:Middlewares/Third_Party/FreeRTOS/Source/portable/MemMang/heap_4.c **** 					xWantedSize += ( portBYTE_ALIGNMENT - ( xWantedSize & portBYTE_ALIGNMENT_MASK ) );
 151:Middlewares/Third_Party/FreeRTOS/Source/portable/MemMang/heap_4.c **** 					configASSERT( ( xWantedSize & portBYTE_ALIGNMENT_MASK ) == 0 );
 152:Middlewares/Third_Party/FreeRTOS/Source/portable/MemMang/heap_4.c **** 				}
 153:Middlewares/Third_Party/FreeRTOS/Source/portable/MemMang/heap_4.c **** 				else
 154:Middlewares/Third_Party/FreeRTOS/Source/portable/MemMang/heap_4.c **** 				{
 155:Middlewares/Third_Party/FreeRTOS/Source/portable/MemMang/heap_4.c **** 					mtCOVERAGE_TEST_MARKER();
 156:Middlewares/Third_Party/FreeRTOS/Source/portable/MemMang/heap_4.c **** 				}
 157:Middlewares/Third_Party/FreeRTOS/Source/portable/MemMang/heap_4.c **** 			}
 158:Middlewares/Third_Party/FreeRTOS/Source/portable/MemMang/heap_4.c **** 			else
 159:Middlewares/Third_Party/FreeRTOS/Source/portable/MemMang/heap_4.c **** 			{
 160:Middlewares/Third_Party/FreeRTOS/Source/portable/MemMang/heap_4.c **** 				mtCOVERAGE_TEST_MARKER();
 161:Middlewares/Third_Party/FreeRTOS/Source/portable/MemMang/heap_4.c **** 			}
 162:Middlewares/Third_Party/FreeRTOS/Source/portable/MemMang/heap_4.c **** 
 163:Middlewares/Third_Party/FreeRTOS/Source/portable/MemMang/heap_4.c **** 			if( ( xWantedSize > 0 ) && ( xWantedSize <= xFreeBytesRemaining ) )
 164:Middlewares/Third_Party/FreeRTOS/Source/portable/MemMang/heap_4.c **** 			{
 165:Middlewares/Third_Party/FreeRTOS/Source/portable/MemMang/heap_4.c **** 				/* Traverse the list from the start	(lowest address) block until
 166:Middlewares/Third_Party/FreeRTOS/Source/portable/MemMang/heap_4.c **** 				one	of adequate size is found. */
 167:Middlewares/Third_Party/FreeRTOS/Source/portable/MemMang/heap_4.c **** 				pxPreviousBlock = &xStart;
 168:Middlewares/Third_Party/FreeRTOS/Source/portable/MemMang/heap_4.c **** 				pxBlock = xStart.pxNextFreeBlock;
 169:Middlewares/Third_Party/FreeRTOS/Source/portable/MemMang/heap_4.c **** 				while( ( pxBlock->xBlockSize < xWantedSize ) && ( pxBlock->pxNextFreeBlock != NULL ) )
 170:Middlewares/Third_Party/FreeRTOS/Source/portable/MemMang/heap_4.c **** 				{
 171:Middlewares/Third_Party/FreeRTOS/Source/portable/MemMang/heap_4.c **** 					pxPreviousBlock = pxBlock;
 172:Middlewares/Third_Party/FreeRTOS/Source/portable/MemMang/heap_4.c **** 					pxBlock = pxBlock->pxNextFreeBlock;
 173:Middlewares/Third_Party/FreeRTOS/Source/portable/MemMang/heap_4.c **** 				}
 174:Middlewares/Third_Party/FreeRTOS/Source/portable/MemMang/heap_4.c **** 
 175:Middlewares/Third_Party/FreeRTOS/Source/portable/MemMang/heap_4.c **** 				/* If the end marker was reached then a block of adequate size
 176:Middlewares/Third_Party/FreeRTOS/Source/portable/MemMang/heap_4.c **** 				was	not found. */
 177:Middlewares/Third_Party/FreeRTOS/Source/portable/MemMang/heap_4.c **** 				if( pxBlock != pxEnd )
 178:Middlewares/Third_Party/FreeRTOS/Source/portable/MemMang/heap_4.c **** 				{
 179:Middlewares/Third_Party/FreeRTOS/Source/portable/MemMang/heap_4.c **** 					/* Return the memory space pointed to - jumping over the
 180:Middlewares/Third_Party/FreeRTOS/Source/portable/MemMang/heap_4.c **** 					BlockLink_t structure at its start. */
 181:Middlewares/Third_Party/FreeRTOS/Source/portable/MemMang/heap_4.c **** 					pvReturn = ( void * ) ( ( ( uint8_t * ) pxPreviousBlock->pxNextFreeBlock ) + xHeapStructSize )
 182:Middlewares/Third_Party/FreeRTOS/Source/portable/MemMang/heap_4.c **** 
 183:Middlewares/Third_Party/FreeRTOS/Source/portable/MemMang/heap_4.c **** 					/* This block is being returned for use so must be taken out
 184:Middlewares/Third_Party/FreeRTOS/Source/portable/MemMang/heap_4.c **** 					of the list of free blocks. */
 185:Middlewares/Third_Party/FreeRTOS/Source/portable/MemMang/heap_4.c **** 					pxPreviousBlock->pxNextFreeBlock = pxBlock->pxNextFreeBlock;
 186:Middlewares/Third_Party/FreeRTOS/Source/portable/MemMang/heap_4.c **** 
 187:Middlewares/Third_Party/FreeRTOS/Source/portable/MemMang/heap_4.c **** 					/* If the block is larger than required it can be split into
 188:Middlewares/Third_Party/FreeRTOS/Source/portable/MemMang/heap_4.c **** 					two. */
 189:Middlewares/Third_Party/FreeRTOS/Source/portable/MemMang/heap_4.c **** 					if( ( pxBlock->xBlockSize - xWantedSize ) > heapMINIMUM_BLOCK_SIZE )
 190:Middlewares/Third_Party/FreeRTOS/Source/portable/MemMang/heap_4.c **** 					{
 191:Middlewares/Third_Party/FreeRTOS/Source/portable/MemMang/heap_4.c **** 						/* This block is to be split into two.  Create a new
 192:Middlewares/Third_Party/FreeRTOS/Source/portable/MemMang/heap_4.c **** 						block following the number of bytes requested. The void
 193:Middlewares/Third_Party/FreeRTOS/Source/portable/MemMang/heap_4.c **** 						cast is used to prevent byte alignment warnings from the
 194:Middlewares/Third_Party/FreeRTOS/Source/portable/MemMang/heap_4.c **** 						compiler. */
 195:Middlewares/Third_Party/FreeRTOS/Source/portable/MemMang/heap_4.c **** 						pxNewBlockLink = ( void * ) ( ( ( uint8_t * ) pxBlock ) + xWantedSize );
 196:Middlewares/Third_Party/FreeRTOS/Source/portable/MemMang/heap_4.c **** 						configASSERT( ( ( ( size_t ) pxNewBlockLink ) & portBYTE_ALIGNMENT_MASK ) == 0 );
 197:Middlewares/Third_Party/FreeRTOS/Source/portable/MemMang/heap_4.c **** 
 198:Middlewares/Third_Party/FreeRTOS/Source/portable/MemMang/heap_4.c **** 						/* Calculate the sizes of two blocks split from the
 199:Middlewares/Third_Party/FreeRTOS/Source/portable/MemMang/heap_4.c **** 						single block. */
 200:Middlewares/Third_Party/FreeRTOS/Source/portable/MemMang/heap_4.c **** 						pxNewBlockLink->xBlockSize = pxBlock->xBlockSize - xWantedSize;
 201:Middlewares/Third_Party/FreeRTOS/Source/portable/MemMang/heap_4.c **** 						pxBlock->xBlockSize = xWantedSize;
 202:Middlewares/Third_Party/FreeRTOS/Source/portable/MemMang/heap_4.c **** 
ARM GAS  C:\Users\Ali\AppData\Local\Temp\ccXUmpZ6.s 			page 5


 203:Middlewares/Third_Party/FreeRTOS/Source/portable/MemMang/heap_4.c **** 						/* Insert the new block into the list of free blocks. */
 204:Middlewares/Third_Party/FreeRTOS/Source/portable/MemMang/heap_4.c **** 						prvInsertBlockIntoFreeList( pxNewBlockLink );
 205:Middlewares/Third_Party/FreeRTOS/Source/portable/MemMang/heap_4.c **** 					}
 206:Middlewares/Third_Party/FreeRTOS/Source/portable/MemMang/heap_4.c **** 					else
 207:Middlewares/Third_Party/FreeRTOS/Source/portable/MemMang/heap_4.c **** 					{
 208:Middlewares/Third_Party/FreeRTOS/Source/portable/MemMang/heap_4.c **** 						mtCOVERAGE_TEST_MARKER();
 209:Middlewares/Third_Party/FreeRTOS/Source/portable/MemMang/heap_4.c **** 					}
 210:Middlewares/Third_Party/FreeRTOS/Source/portable/MemMang/heap_4.c **** 
 211:Middlewares/Third_Party/FreeRTOS/Source/portable/MemMang/heap_4.c **** 					xFreeBytesRemaining -= pxBlock->xBlockSize;
 212:Middlewares/Third_Party/FreeRTOS/Source/portable/MemMang/heap_4.c **** 
 213:Middlewares/Third_Party/FreeRTOS/Source/portable/MemMang/heap_4.c **** 					if( xFreeBytesRemaining < xMinimumEverFreeBytesRemaining )
 214:Middlewares/Third_Party/FreeRTOS/Source/portable/MemMang/heap_4.c **** 					{
 215:Middlewares/Third_Party/FreeRTOS/Source/portable/MemMang/heap_4.c **** 						xMinimumEverFreeBytesRemaining = xFreeBytesRemaining;
 216:Middlewares/Third_Party/FreeRTOS/Source/portable/MemMang/heap_4.c **** 					}
 217:Middlewares/Third_Party/FreeRTOS/Source/portable/MemMang/heap_4.c **** 					else
 218:Middlewares/Third_Party/FreeRTOS/Source/portable/MemMang/heap_4.c **** 					{
 219:Middlewares/Third_Party/FreeRTOS/Source/portable/MemMang/heap_4.c **** 						mtCOVERAGE_TEST_MARKER();
 220:Middlewares/Third_Party/FreeRTOS/Source/portable/MemMang/heap_4.c **** 					}
 221:Middlewares/Third_Party/FreeRTOS/Source/portable/MemMang/heap_4.c **** 
 222:Middlewares/Third_Party/FreeRTOS/Source/portable/MemMang/heap_4.c **** 					/* The block is being returned - it is allocated and owned
 223:Middlewares/Third_Party/FreeRTOS/Source/portable/MemMang/heap_4.c **** 					by the application and has no "next" block. */
 224:Middlewares/Third_Party/FreeRTOS/Source/portable/MemMang/heap_4.c **** 					pxBlock->xBlockSize |= xBlockAllocatedBit;
 225:Middlewares/Third_Party/FreeRTOS/Source/portable/MemMang/heap_4.c **** 					pxBlock->pxNextFreeBlock = NULL;
 226:Middlewares/Third_Party/FreeRTOS/Source/portable/MemMang/heap_4.c **** 					xNumberOfSuccessfulAllocations++;
 227:Middlewares/Third_Party/FreeRTOS/Source/portable/MemMang/heap_4.c **** 				}
 228:Middlewares/Third_Party/FreeRTOS/Source/portable/MemMang/heap_4.c **** 				else
 229:Middlewares/Third_Party/FreeRTOS/Source/portable/MemMang/heap_4.c **** 				{
 230:Middlewares/Third_Party/FreeRTOS/Source/portable/MemMang/heap_4.c **** 					mtCOVERAGE_TEST_MARKER();
 231:Middlewares/Third_Party/FreeRTOS/Source/portable/MemMang/heap_4.c **** 				}
 232:Middlewares/Third_Party/FreeRTOS/Source/portable/MemMang/heap_4.c **** 			}
 233:Middlewares/Third_Party/FreeRTOS/Source/portable/MemMang/heap_4.c **** 			else
 234:Middlewares/Third_Party/FreeRTOS/Source/portable/MemMang/heap_4.c **** 			{
 235:Middlewares/Third_Party/FreeRTOS/Source/portable/MemMang/heap_4.c **** 				mtCOVERAGE_TEST_MARKER();
 236:Middlewares/Third_Party/FreeRTOS/Source/portable/MemMang/heap_4.c **** 			}
 237:Middlewares/Third_Party/FreeRTOS/Source/portable/MemMang/heap_4.c **** 		}
 238:Middlewares/Third_Party/FreeRTOS/Source/portable/MemMang/heap_4.c **** 		else
 239:Middlewares/Third_Party/FreeRTOS/Source/portable/MemMang/heap_4.c **** 		{
 240:Middlewares/Third_Party/FreeRTOS/Source/portable/MemMang/heap_4.c **** 			mtCOVERAGE_TEST_MARKER();
 241:Middlewares/Third_Party/FreeRTOS/Source/portable/MemMang/heap_4.c **** 		}
 242:Middlewares/Third_Party/FreeRTOS/Source/portable/MemMang/heap_4.c **** 
 243:Middlewares/Third_Party/FreeRTOS/Source/portable/MemMang/heap_4.c **** 		traceMALLOC( pvReturn, xWantedSize );
 244:Middlewares/Third_Party/FreeRTOS/Source/portable/MemMang/heap_4.c **** 	}
 245:Middlewares/Third_Party/FreeRTOS/Source/portable/MemMang/heap_4.c **** 	( void ) xTaskResumeAll();
 246:Middlewares/Third_Party/FreeRTOS/Source/portable/MemMang/heap_4.c **** 
 247:Middlewares/Third_Party/FreeRTOS/Source/portable/MemMang/heap_4.c **** 	#if( configUSE_MALLOC_FAILED_HOOK == 1 )
 248:Middlewares/Third_Party/FreeRTOS/Source/portable/MemMang/heap_4.c **** 	{
 249:Middlewares/Third_Party/FreeRTOS/Source/portable/MemMang/heap_4.c **** 		if( pvReturn == NULL )
 250:Middlewares/Third_Party/FreeRTOS/Source/portable/MemMang/heap_4.c **** 		{
 251:Middlewares/Third_Party/FreeRTOS/Source/portable/MemMang/heap_4.c **** 			extern void vApplicationMallocFailedHook( void );
 252:Middlewares/Third_Party/FreeRTOS/Source/portable/MemMang/heap_4.c **** 			vApplicationMallocFailedHook();
 253:Middlewares/Third_Party/FreeRTOS/Source/portable/MemMang/heap_4.c **** 		}
 254:Middlewares/Third_Party/FreeRTOS/Source/portable/MemMang/heap_4.c **** 		else
 255:Middlewares/Third_Party/FreeRTOS/Source/portable/MemMang/heap_4.c **** 		{
 256:Middlewares/Third_Party/FreeRTOS/Source/portable/MemMang/heap_4.c **** 			mtCOVERAGE_TEST_MARKER();
 257:Middlewares/Third_Party/FreeRTOS/Source/portable/MemMang/heap_4.c **** 		}
 258:Middlewares/Third_Party/FreeRTOS/Source/portable/MemMang/heap_4.c **** 	}
 259:Middlewares/Third_Party/FreeRTOS/Source/portable/MemMang/heap_4.c **** 	#endif
ARM GAS  C:\Users\Ali\AppData\Local\Temp\ccXUmpZ6.s 			page 6


 260:Middlewares/Third_Party/FreeRTOS/Source/portable/MemMang/heap_4.c **** 
 261:Middlewares/Third_Party/FreeRTOS/Source/portable/MemMang/heap_4.c **** 	configASSERT( ( ( ( size_t ) pvReturn ) & ( size_t ) portBYTE_ALIGNMENT_MASK ) == 0 );
 262:Middlewares/Third_Party/FreeRTOS/Source/portable/MemMang/heap_4.c **** 	return pvReturn;
 263:Middlewares/Third_Party/FreeRTOS/Source/portable/MemMang/heap_4.c **** }
 264:Middlewares/Third_Party/FreeRTOS/Source/portable/MemMang/heap_4.c **** /*-----------------------------------------------------------*/
 265:Middlewares/Third_Party/FreeRTOS/Source/portable/MemMang/heap_4.c **** 
 266:Middlewares/Third_Party/FreeRTOS/Source/portable/MemMang/heap_4.c **** void vPortFree( void *pv )
 267:Middlewares/Third_Party/FreeRTOS/Source/portable/MemMang/heap_4.c **** {
 268:Middlewares/Third_Party/FreeRTOS/Source/portable/MemMang/heap_4.c **** uint8_t *puc = ( uint8_t * ) pv;
 269:Middlewares/Third_Party/FreeRTOS/Source/portable/MemMang/heap_4.c **** BlockLink_t *pxLink;
 270:Middlewares/Third_Party/FreeRTOS/Source/portable/MemMang/heap_4.c **** 
 271:Middlewares/Third_Party/FreeRTOS/Source/portable/MemMang/heap_4.c **** 	if( pv != NULL )
 272:Middlewares/Third_Party/FreeRTOS/Source/portable/MemMang/heap_4.c **** 	{
 273:Middlewares/Third_Party/FreeRTOS/Source/portable/MemMang/heap_4.c **** 		/* The memory being freed will have an BlockLink_t structure immediately
 274:Middlewares/Third_Party/FreeRTOS/Source/portable/MemMang/heap_4.c **** 		before it. */
 275:Middlewares/Third_Party/FreeRTOS/Source/portable/MemMang/heap_4.c **** 		puc -= xHeapStructSize;
 276:Middlewares/Third_Party/FreeRTOS/Source/portable/MemMang/heap_4.c **** 
 277:Middlewares/Third_Party/FreeRTOS/Source/portable/MemMang/heap_4.c **** 		/* This casting is to keep the compiler from issuing warnings. */
 278:Middlewares/Third_Party/FreeRTOS/Source/portable/MemMang/heap_4.c **** 		pxLink = ( void * ) puc;
 279:Middlewares/Third_Party/FreeRTOS/Source/portable/MemMang/heap_4.c **** 
 280:Middlewares/Third_Party/FreeRTOS/Source/portable/MemMang/heap_4.c **** 		/* Check the block is actually allocated. */
 281:Middlewares/Third_Party/FreeRTOS/Source/portable/MemMang/heap_4.c **** 		configASSERT( ( pxLink->xBlockSize & xBlockAllocatedBit ) != 0 );
 282:Middlewares/Third_Party/FreeRTOS/Source/portable/MemMang/heap_4.c **** 		configASSERT( pxLink->pxNextFreeBlock == NULL );
 283:Middlewares/Third_Party/FreeRTOS/Source/portable/MemMang/heap_4.c **** 
 284:Middlewares/Third_Party/FreeRTOS/Source/portable/MemMang/heap_4.c **** 		if( ( pxLink->xBlockSize & xBlockAllocatedBit ) != 0 )
 285:Middlewares/Third_Party/FreeRTOS/Source/portable/MemMang/heap_4.c **** 		{
 286:Middlewares/Third_Party/FreeRTOS/Source/portable/MemMang/heap_4.c **** 			if( pxLink->pxNextFreeBlock == NULL )
 287:Middlewares/Third_Party/FreeRTOS/Source/portable/MemMang/heap_4.c **** 			{
 288:Middlewares/Third_Party/FreeRTOS/Source/portable/MemMang/heap_4.c **** 				/* The block is being returned to the heap - it is no longer
 289:Middlewares/Third_Party/FreeRTOS/Source/portable/MemMang/heap_4.c **** 				allocated. */
 290:Middlewares/Third_Party/FreeRTOS/Source/portable/MemMang/heap_4.c **** 				pxLink->xBlockSize &= ~xBlockAllocatedBit;
 291:Middlewares/Third_Party/FreeRTOS/Source/portable/MemMang/heap_4.c **** 
 292:Middlewares/Third_Party/FreeRTOS/Source/portable/MemMang/heap_4.c **** 				vTaskSuspendAll();
 293:Middlewares/Third_Party/FreeRTOS/Source/portable/MemMang/heap_4.c **** 				{
 294:Middlewares/Third_Party/FreeRTOS/Source/portable/MemMang/heap_4.c **** 					/* Add this block to the list of free blocks. */
 295:Middlewares/Third_Party/FreeRTOS/Source/portable/MemMang/heap_4.c **** 					xFreeBytesRemaining += pxLink->xBlockSize;
 296:Middlewares/Third_Party/FreeRTOS/Source/portable/MemMang/heap_4.c **** 					traceFREE( pv, pxLink->xBlockSize );
 297:Middlewares/Third_Party/FreeRTOS/Source/portable/MemMang/heap_4.c **** 					prvInsertBlockIntoFreeList( ( ( BlockLink_t * ) pxLink ) );
 298:Middlewares/Third_Party/FreeRTOS/Source/portable/MemMang/heap_4.c **** 					xNumberOfSuccessfulFrees++;
 299:Middlewares/Third_Party/FreeRTOS/Source/portable/MemMang/heap_4.c **** 				}
 300:Middlewares/Third_Party/FreeRTOS/Source/portable/MemMang/heap_4.c **** 				( void ) xTaskResumeAll();
 301:Middlewares/Third_Party/FreeRTOS/Source/portable/MemMang/heap_4.c **** 			}
 302:Middlewares/Third_Party/FreeRTOS/Source/portable/MemMang/heap_4.c **** 			else
 303:Middlewares/Third_Party/FreeRTOS/Source/portable/MemMang/heap_4.c **** 			{
 304:Middlewares/Third_Party/FreeRTOS/Source/portable/MemMang/heap_4.c **** 				mtCOVERAGE_TEST_MARKER();
 305:Middlewares/Third_Party/FreeRTOS/Source/portable/MemMang/heap_4.c **** 			}
 306:Middlewares/Third_Party/FreeRTOS/Source/portable/MemMang/heap_4.c **** 		}
 307:Middlewares/Third_Party/FreeRTOS/Source/portable/MemMang/heap_4.c **** 		else
 308:Middlewares/Third_Party/FreeRTOS/Source/portable/MemMang/heap_4.c **** 		{
 309:Middlewares/Third_Party/FreeRTOS/Source/portable/MemMang/heap_4.c **** 			mtCOVERAGE_TEST_MARKER();
 310:Middlewares/Third_Party/FreeRTOS/Source/portable/MemMang/heap_4.c **** 		}
 311:Middlewares/Third_Party/FreeRTOS/Source/portable/MemMang/heap_4.c **** 	}
 312:Middlewares/Third_Party/FreeRTOS/Source/portable/MemMang/heap_4.c **** }
 313:Middlewares/Third_Party/FreeRTOS/Source/portable/MemMang/heap_4.c **** /*-----------------------------------------------------------*/
 314:Middlewares/Third_Party/FreeRTOS/Source/portable/MemMang/heap_4.c **** 
 315:Middlewares/Third_Party/FreeRTOS/Source/portable/MemMang/heap_4.c **** size_t xPortGetFreeHeapSize( void )
 316:Middlewares/Third_Party/FreeRTOS/Source/portable/MemMang/heap_4.c **** {
ARM GAS  C:\Users\Ali\AppData\Local\Temp\ccXUmpZ6.s 			page 7


 317:Middlewares/Third_Party/FreeRTOS/Source/portable/MemMang/heap_4.c **** 	return xFreeBytesRemaining;
 318:Middlewares/Third_Party/FreeRTOS/Source/portable/MemMang/heap_4.c **** }
 319:Middlewares/Third_Party/FreeRTOS/Source/portable/MemMang/heap_4.c **** /*-----------------------------------------------------------*/
 320:Middlewares/Third_Party/FreeRTOS/Source/portable/MemMang/heap_4.c **** 
 321:Middlewares/Third_Party/FreeRTOS/Source/portable/MemMang/heap_4.c **** size_t xPortGetMinimumEverFreeHeapSize( void )
 322:Middlewares/Third_Party/FreeRTOS/Source/portable/MemMang/heap_4.c **** {
 323:Middlewares/Third_Party/FreeRTOS/Source/portable/MemMang/heap_4.c **** 	return xMinimumEverFreeBytesRemaining;
 324:Middlewares/Third_Party/FreeRTOS/Source/portable/MemMang/heap_4.c **** }
 325:Middlewares/Third_Party/FreeRTOS/Source/portable/MemMang/heap_4.c **** /*-----------------------------------------------------------*/
 326:Middlewares/Third_Party/FreeRTOS/Source/portable/MemMang/heap_4.c **** 
 327:Middlewares/Third_Party/FreeRTOS/Source/portable/MemMang/heap_4.c **** void vPortInitialiseBlocks( void )
 328:Middlewares/Third_Party/FreeRTOS/Source/portable/MemMang/heap_4.c **** {
 329:Middlewares/Third_Party/FreeRTOS/Source/portable/MemMang/heap_4.c **** 	/* This just exists to keep the linker quiet. */
 330:Middlewares/Third_Party/FreeRTOS/Source/portable/MemMang/heap_4.c **** }
 331:Middlewares/Third_Party/FreeRTOS/Source/portable/MemMang/heap_4.c **** /*-----------------------------------------------------------*/
 332:Middlewares/Third_Party/FreeRTOS/Source/portable/MemMang/heap_4.c **** 
 333:Middlewares/Third_Party/FreeRTOS/Source/portable/MemMang/heap_4.c **** static void prvHeapInit( void )
 334:Middlewares/Third_Party/FreeRTOS/Source/portable/MemMang/heap_4.c **** {
  28              		.loc 1 334 1 view -0
  29              		.cfi_startproc
  30              		@ args = 0, pretend = 0, frame = 0
  31              		@ frame_needed = 0, uses_anonymous_args = 0
  32              		@ link register save eliminated.
 335:Middlewares/Third_Party/FreeRTOS/Source/portable/MemMang/heap_4.c **** BlockLink_t *pxFirstFreeBlock;
  33              		.loc 1 335 1 view .LVU1
 336:Middlewares/Third_Party/FreeRTOS/Source/portable/MemMang/heap_4.c **** uint8_t *pucAlignedHeap;
  34              		.loc 1 336 1 view .LVU2
 337:Middlewares/Third_Party/FreeRTOS/Source/portable/MemMang/heap_4.c **** size_t uxAddress;
  35              		.loc 1 337 1 view .LVU3
 338:Middlewares/Third_Party/FreeRTOS/Source/portable/MemMang/heap_4.c **** size_t xTotalHeapSize = configTOTAL_HEAP_SIZE;
  36              		.loc 1 338 1 view .LVU4
  37              	.LVL0:
 339:Middlewares/Third_Party/FreeRTOS/Source/portable/MemMang/heap_4.c **** 
 340:Middlewares/Third_Party/FreeRTOS/Source/portable/MemMang/heap_4.c **** 	/* Ensure the heap starts on a correctly aligned boundary. */
 341:Middlewares/Third_Party/FreeRTOS/Source/portable/MemMang/heap_4.c **** 	uxAddress = ( size_t ) ucHeap;
  38              		.loc 1 341 2 view .LVU5
  39              		.loc 1 341 12 is_stmt 0 view .LVU6
  40 0000 134A     		ldr	r2, .L4
  41              	.LVL1:
 342:Middlewares/Third_Party/FreeRTOS/Source/portable/MemMang/heap_4.c **** 
 343:Middlewares/Third_Party/FreeRTOS/Source/portable/MemMang/heap_4.c **** 	if( ( uxAddress & portBYTE_ALIGNMENT_MASK ) != 0 )
  42              		.loc 1 343 2 is_stmt 1 view .LVU7
  43              		.loc 1 343 4 is_stmt 0 view .LVU8
  44 0002 12F0070F 		tst	r2, #7
  45 0006 1FD0     		beq	.L3
 344:Middlewares/Third_Party/FreeRTOS/Source/portable/MemMang/heap_4.c **** 	{
 345:Middlewares/Third_Party/FreeRTOS/Source/portable/MemMang/heap_4.c **** 		uxAddress += ( portBYTE_ALIGNMENT - 1 );
  46              		.loc 1 345 3 is_stmt 1 view .LVU9
  47              		.loc 1 345 13 is_stmt 0 view .LVU10
  48 0008 D11D     		adds	r1, r2, #7
  49              	.LVL2:
 346:Middlewares/Third_Party/FreeRTOS/Source/portable/MemMang/heap_4.c **** 		uxAddress &= ~( ( size_t ) portBYTE_ALIGNMENT_MASK );
  50              		.loc 1 346 3 is_stmt 1 view .LVU11
  51              		.loc 1 346 13 is_stmt 0 view .LVU12
  52 000a 21F00701 		bic	r1, r1, #7
  53              	.LVL3:
 347:Middlewares/Third_Party/FreeRTOS/Source/portable/MemMang/heap_4.c **** 		xTotalHeapSize -= uxAddress - ( size_t ) ucHeap;
ARM GAS  C:\Users\Ali\AppData\Local\Temp\ccXUmpZ6.s 			page 8


  54              		.loc 1 347 3 is_stmt 1 view .LVU13
  55              		.loc 1 347 18 is_stmt 0 view .LVU14
  56 000e C1F53B53 		rsb	r3, r1, #11968
  57 0012 2033     		adds	r3, r3, #32
  58 0014 1344     		add	r3, r3, r2
  59              	.LVL4:
 346:Middlewares/Third_Party/FreeRTOS/Source/portable/MemMang/heap_4.c **** 		uxAddress &= ~( ( size_t ) portBYTE_ALIGNMENT_MASK );
  60              		.loc 1 346 13 view .LVU15
  61 0016 0A46     		mov	r2, r1
  62              	.LVL5:
  63              	.L2:
 348:Middlewares/Third_Party/FreeRTOS/Source/portable/MemMang/heap_4.c **** 	}
 349:Middlewares/Third_Party/FreeRTOS/Source/portable/MemMang/heap_4.c **** 
 350:Middlewares/Third_Party/FreeRTOS/Source/portable/MemMang/heap_4.c **** 	pucAlignedHeap = ( uint8_t * ) uxAddress;
  64              		.loc 1 350 2 is_stmt 1 view .LVU16
 351:Middlewares/Third_Party/FreeRTOS/Source/portable/MemMang/heap_4.c **** 
 352:Middlewares/Third_Party/FreeRTOS/Source/portable/MemMang/heap_4.c **** 	/* xStart is used to hold a pointer to the first item in the list of free
 353:Middlewares/Third_Party/FreeRTOS/Source/portable/MemMang/heap_4.c **** 	blocks.  The void cast is used to prevent compiler warnings. */
 354:Middlewares/Third_Party/FreeRTOS/Source/portable/MemMang/heap_4.c **** 	xStart.pxNextFreeBlock = ( void * ) pucAlignedHeap;
  65              		.loc 1 354 2 view .LVU17
  66              		.loc 1 354 25 is_stmt 0 view .LVU18
  67 0018 0E48     		ldr	r0, .L4+4
  68 001a 0260     		str	r2, [r0]
 355:Middlewares/Third_Party/FreeRTOS/Source/portable/MemMang/heap_4.c **** 	xStart.xBlockSize = ( size_t ) 0;
  69              		.loc 1 355 2 is_stmt 1 view .LVU19
  70              		.loc 1 355 20 is_stmt 0 view .LVU20
  71 001c 0021     		movs	r1, #0
  72 001e 4160     		str	r1, [r0, #4]
 356:Middlewares/Third_Party/FreeRTOS/Source/portable/MemMang/heap_4.c **** 
 357:Middlewares/Third_Party/FreeRTOS/Source/portable/MemMang/heap_4.c **** 	/* pxEnd is used to mark the end of the list of free blocks and is inserted
 358:Middlewares/Third_Party/FreeRTOS/Source/portable/MemMang/heap_4.c **** 	at the end of the heap space. */
 359:Middlewares/Third_Party/FreeRTOS/Source/portable/MemMang/heap_4.c **** 	uxAddress = ( ( size_t ) pucAlignedHeap ) + xTotalHeapSize;
  73              		.loc 1 359 2 is_stmt 1 view .LVU21
  74              		.loc 1 359 12 is_stmt 0 view .LVU22
  75 0020 1344     		add	r3, r3, r2
  76              	.LVL6:
 360:Middlewares/Third_Party/FreeRTOS/Source/portable/MemMang/heap_4.c **** 	uxAddress -= xHeapStructSize;
  77              		.loc 1 360 2 is_stmt 1 view .LVU23
  78              		.loc 1 360 12 is_stmt 0 view .LVU24
  79 0022 083B     		subs	r3, r3, #8
  80              	.LVL7:
 361:Middlewares/Third_Party/FreeRTOS/Source/portable/MemMang/heap_4.c **** 	uxAddress &= ~( ( size_t ) portBYTE_ALIGNMENT_MASK );
  81              		.loc 1 361 2 is_stmt 1 view .LVU25
  82              		.loc 1 361 12 is_stmt 0 view .LVU26
  83 0024 23F00703 		bic	r3, r3, #7
  84              	.LVL8:
 362:Middlewares/Third_Party/FreeRTOS/Source/portable/MemMang/heap_4.c **** 	pxEnd = ( void * ) uxAddress;
  85              		.loc 1 362 2 is_stmt 1 view .LVU27
  86              		.loc 1 362 8 is_stmt 0 view .LVU28
  87 0028 0B48     		ldr	r0, .L4+8
  88 002a 0360     		str	r3, [r0]
 363:Middlewares/Third_Party/FreeRTOS/Source/portable/MemMang/heap_4.c **** 	pxEnd->xBlockSize = 0;
  89              		.loc 1 363 2 is_stmt 1 view .LVU29
  90              		.loc 1 363 20 is_stmt 0 view .LVU30
  91 002c 5960     		str	r1, [r3, #4]
 364:Middlewares/Third_Party/FreeRTOS/Source/portable/MemMang/heap_4.c **** 	pxEnd->pxNextFreeBlock = NULL;
  92              		.loc 1 364 2 is_stmt 1 view .LVU31
ARM GAS  C:\Users\Ali\AppData\Local\Temp\ccXUmpZ6.s 			page 9


  93              		.loc 1 364 25 is_stmt 0 view .LVU32
  94 002e 1960     		str	r1, [r3]
 365:Middlewares/Third_Party/FreeRTOS/Source/portable/MemMang/heap_4.c **** 
 366:Middlewares/Third_Party/FreeRTOS/Source/portable/MemMang/heap_4.c **** 	/* To start with there is a single free block that is sized to take up the
 367:Middlewares/Third_Party/FreeRTOS/Source/portable/MemMang/heap_4.c **** 	entire heap space, minus the space taken by pxEnd. */
 368:Middlewares/Third_Party/FreeRTOS/Source/portable/MemMang/heap_4.c **** 	pxFirstFreeBlock = ( void * ) pucAlignedHeap;
  95              		.loc 1 368 2 is_stmt 1 view .LVU33
  96              	.LVL9:
 369:Middlewares/Third_Party/FreeRTOS/Source/portable/MemMang/heap_4.c **** 	pxFirstFreeBlock->xBlockSize = uxAddress - ( size_t ) pxFirstFreeBlock;
  97              		.loc 1 369 2 view .LVU34
  98              		.loc 1 369 43 is_stmt 0 view .LVU35
  99 0030 991A     		subs	r1, r3, r2
 100              		.loc 1 369 31 view .LVU36
 101 0032 5160     		str	r1, [r2, #4]
 370:Middlewares/Third_Party/FreeRTOS/Source/portable/MemMang/heap_4.c **** 	pxFirstFreeBlock->pxNextFreeBlock = pxEnd;
 102              		.loc 1 370 2 is_stmt 1 view .LVU37
 103              		.loc 1 370 36 is_stmt 0 view .LVU38
 104 0034 1360     		str	r3, [r2]
 371:Middlewares/Third_Party/FreeRTOS/Source/portable/MemMang/heap_4.c **** 
 372:Middlewares/Third_Party/FreeRTOS/Source/portable/MemMang/heap_4.c **** 	/* Only one block exists - and it covers the entire usable heap space. */
 373:Middlewares/Third_Party/FreeRTOS/Source/portable/MemMang/heap_4.c **** 	xMinimumEverFreeBytesRemaining = pxFirstFreeBlock->xBlockSize;
 105              		.loc 1 373 2 is_stmt 1 view .LVU39
 106              		.loc 1 373 33 is_stmt 0 view .LVU40
 107 0036 094B     		ldr	r3, .L4+12
 108              	.LVL10:
 109              		.loc 1 373 33 view .LVU41
 110 0038 1960     		str	r1, [r3]
 374:Middlewares/Third_Party/FreeRTOS/Source/portable/MemMang/heap_4.c **** 	xFreeBytesRemaining = pxFirstFreeBlock->xBlockSize;
 111              		.loc 1 374 2 is_stmt 1 view .LVU42
 112              		.loc 1 374 22 is_stmt 0 view .LVU43
 113 003a 094B     		ldr	r3, .L4+16
 114 003c 1960     		str	r1, [r3]
 375:Middlewares/Third_Party/FreeRTOS/Source/portable/MemMang/heap_4.c **** 
 376:Middlewares/Third_Party/FreeRTOS/Source/portable/MemMang/heap_4.c **** 	/* Work out the position of the top bit in a size_t variable. */
 377:Middlewares/Third_Party/FreeRTOS/Source/portable/MemMang/heap_4.c **** 	xBlockAllocatedBit = ( ( size_t ) 1 ) << ( ( sizeof( size_t ) * heapBITS_PER_BYTE ) - 1 );
 115              		.loc 1 377 2 is_stmt 1 view .LVU44
 116              		.loc 1 377 21 is_stmt 0 view .LVU45
 117 003e 094B     		ldr	r3, .L4+20
 118 0040 4FF00042 		mov	r2, #-2147483648
 119              	.LVL11:
 120              		.loc 1 377 21 view .LVU46
 121 0044 1A60     		str	r2, [r3]
 378:Middlewares/Third_Party/FreeRTOS/Source/portable/MemMang/heap_4.c **** }
 122              		.loc 1 378 1 view .LVU47
 123 0046 7047     		bx	lr
 124              	.LVL12:
 125              	.L3:
 338:Middlewares/Third_Party/FreeRTOS/Source/portable/MemMang/heap_4.c **** 
 126              		.loc 1 338 8 view .LVU48
 127 0048 42F6E063 		movw	r3, #12000
 128 004c E4E7     		b	.L2
 129              	.L5:
 130 004e 00BF     		.align	2
 131              	.L4:
 132 0050 00000000 		.word	ucHeap
 133 0054 00000000 		.word	xStart
 134 0058 00000000 		.word	pxEnd
ARM GAS  C:\Users\Ali\AppData\Local\Temp\ccXUmpZ6.s 			page 10


 135 005c 00000000 		.word	xMinimumEverFreeBytesRemaining
 136 0060 00000000 		.word	xFreeBytesRemaining
 137 0064 00000000 		.word	xBlockAllocatedBit
 138              		.cfi_endproc
 139              	.LFE9:
 141              		.section	.text.prvInsertBlockIntoFreeList,"ax",%progbits
 142              		.align	1
 143              		.syntax unified
 144              		.thumb
 145              		.thumb_func
 147              	prvInsertBlockIntoFreeList:
 148              	.LVL13:
 149              	.LFB10:
 379:Middlewares/Third_Party/FreeRTOS/Source/portable/MemMang/heap_4.c **** /*-----------------------------------------------------------*/
 380:Middlewares/Third_Party/FreeRTOS/Source/portable/MemMang/heap_4.c **** 
 381:Middlewares/Third_Party/FreeRTOS/Source/portable/MemMang/heap_4.c **** static void prvInsertBlockIntoFreeList( BlockLink_t *pxBlockToInsert )
 382:Middlewares/Third_Party/FreeRTOS/Source/portable/MemMang/heap_4.c **** {
 150              		.loc 1 382 1 is_stmt 1 view -0
 151              		.cfi_startproc
 152              		@ args = 0, pretend = 0, frame = 0
 153              		@ frame_needed = 0, uses_anonymous_args = 0
 154              		@ link register save eliminated.
 383:Middlewares/Third_Party/FreeRTOS/Source/portable/MemMang/heap_4.c **** BlockLink_t *pxIterator;
 155              		.loc 1 383 1 view .LVU50
 384:Middlewares/Third_Party/FreeRTOS/Source/portable/MemMang/heap_4.c **** uint8_t *puc;
 156              		.loc 1 384 1 view .LVU51
 385:Middlewares/Third_Party/FreeRTOS/Source/portable/MemMang/heap_4.c **** 
 386:Middlewares/Third_Party/FreeRTOS/Source/portable/MemMang/heap_4.c **** 	/* Iterate through the list until a block is found that has a higher address
 387:Middlewares/Third_Party/FreeRTOS/Source/portable/MemMang/heap_4.c **** 	than the block being inserted. */
 388:Middlewares/Third_Party/FreeRTOS/Source/portable/MemMang/heap_4.c **** 	for( pxIterator = &xStart; pxIterator->pxNextFreeBlock < pxBlockToInsert; pxIterator = pxIterator-
 157              		.loc 1 388 2 view .LVU52
 158              		.loc 1 388 18 is_stmt 0 view .LVU53
 159 0000 164B     		ldr	r3, .L21
 160              	.LVL14:
 161              	.L7:
 162              		.loc 1 388 57 is_stmt 1 discriminator 1 view .LVU54
 163 0002 1A46     		mov	r2, r3
 164              		.loc 1 388 39 is_stmt 0 discriminator 1 view .LVU55
 165 0004 1B68     		ldr	r3, [r3]
 166              	.LVL15:
 167              		.loc 1 388 57 discriminator 1 view .LVU56
 168 0006 8342     		cmp	r3, r0
 169 0008 FBD3     		bcc	.L7
 389:Middlewares/Third_Party/FreeRTOS/Source/portable/MemMang/heap_4.c **** 	{
 390:Middlewares/Third_Party/FreeRTOS/Source/portable/MemMang/heap_4.c **** 		/* Nothing to do here, just iterate to the right position. */
 391:Middlewares/Third_Party/FreeRTOS/Source/portable/MemMang/heap_4.c **** 	}
 392:Middlewares/Third_Party/FreeRTOS/Source/portable/MemMang/heap_4.c **** 
 393:Middlewares/Third_Party/FreeRTOS/Source/portable/MemMang/heap_4.c **** 	/* Do the block being inserted, and the block it is being inserted after
 394:Middlewares/Third_Party/FreeRTOS/Source/portable/MemMang/heap_4.c **** 	make a contiguous block of memory? */
 395:Middlewares/Third_Party/FreeRTOS/Source/portable/MemMang/heap_4.c **** 	puc = ( uint8_t * ) pxIterator;
 170              		.loc 1 395 2 is_stmt 1 view .LVU57
 171              	.LVL16:
 396:Middlewares/Third_Party/FreeRTOS/Source/portable/MemMang/heap_4.c **** 	if( ( puc + pxIterator->xBlockSize ) == ( uint8_t * ) pxBlockToInsert )
 172              		.loc 1 396 2 view .LVU58
 173              		.loc 1 396 24 is_stmt 0 view .LVU59
 174 000a 5168     		ldr	r1, [r2, #4]
 175              		.loc 1 396 12 view .LVU60
ARM GAS  C:\Users\Ali\AppData\Local\Temp\ccXUmpZ6.s 			page 11


 176 000c 02EB010C 		add	ip, r2, r1
 177              		.loc 1 396 4 view .LVU61
 178 0010 8445     		cmp	ip, r0
 179 0012 09D0     		beq	.L19
 180              	.L8:
 397:Middlewares/Third_Party/FreeRTOS/Source/portable/MemMang/heap_4.c **** 	{
 398:Middlewares/Third_Party/FreeRTOS/Source/portable/MemMang/heap_4.c **** 		pxIterator->xBlockSize += pxBlockToInsert->xBlockSize;
 399:Middlewares/Third_Party/FreeRTOS/Source/portable/MemMang/heap_4.c **** 		pxBlockToInsert = pxIterator;
 400:Middlewares/Third_Party/FreeRTOS/Source/portable/MemMang/heap_4.c **** 	}
 401:Middlewares/Third_Party/FreeRTOS/Source/portable/MemMang/heap_4.c **** 	else
 402:Middlewares/Third_Party/FreeRTOS/Source/portable/MemMang/heap_4.c **** 	{
 403:Middlewares/Third_Party/FreeRTOS/Source/portable/MemMang/heap_4.c **** 		mtCOVERAGE_TEST_MARKER();
 181              		.loc 1 403 27 is_stmt 1 view .LVU62
 404:Middlewares/Third_Party/FreeRTOS/Source/portable/MemMang/heap_4.c **** 	}
 405:Middlewares/Third_Party/FreeRTOS/Source/portable/MemMang/heap_4.c **** 
 406:Middlewares/Third_Party/FreeRTOS/Source/portable/MemMang/heap_4.c **** 	/* Do the block being inserted, and the block it is being inserted before
 407:Middlewares/Third_Party/FreeRTOS/Source/portable/MemMang/heap_4.c **** 	make a contiguous block of memory? */
 408:Middlewares/Third_Party/FreeRTOS/Source/portable/MemMang/heap_4.c **** 	puc = ( uint8_t * ) pxBlockToInsert;
 182              		.loc 1 408 2 view .LVU63
 183              	.LVL17:
 409:Middlewares/Third_Party/FreeRTOS/Source/portable/MemMang/heap_4.c **** 	if( ( puc + pxBlockToInsert->xBlockSize ) == ( uint8_t * ) pxIterator->pxNextFreeBlock )
 184              		.loc 1 409 2 view .LVU64
 185              		.loc 1 409 29 is_stmt 0 view .LVU65
 186 0014 4168     		ldr	r1, [r0, #4]
 187              		.loc 1 409 12 view .LVU66
 188 0016 00EB010C 		add	ip, r0, r1
 189              		.loc 1 409 4 view .LVU67
 190 001a 6345     		cmp	r3, ip
 191 001c 09D0     		beq	.L20
 410:Middlewares/Third_Party/FreeRTOS/Source/portable/MemMang/heap_4.c **** 	{
 411:Middlewares/Third_Party/FreeRTOS/Source/portable/MemMang/heap_4.c **** 		if( pxIterator->pxNextFreeBlock != pxEnd )
 412:Middlewares/Third_Party/FreeRTOS/Source/portable/MemMang/heap_4.c **** 		{
 413:Middlewares/Third_Party/FreeRTOS/Source/portable/MemMang/heap_4.c **** 			/* Form one big block from the two blocks. */
 414:Middlewares/Third_Party/FreeRTOS/Source/portable/MemMang/heap_4.c **** 			pxBlockToInsert->xBlockSize += pxIterator->pxNextFreeBlock->xBlockSize;
 415:Middlewares/Third_Party/FreeRTOS/Source/portable/MemMang/heap_4.c **** 			pxBlockToInsert->pxNextFreeBlock = pxIterator->pxNextFreeBlock->pxNextFreeBlock;
 416:Middlewares/Third_Party/FreeRTOS/Source/portable/MemMang/heap_4.c **** 		}
 417:Middlewares/Third_Party/FreeRTOS/Source/portable/MemMang/heap_4.c **** 		else
 418:Middlewares/Third_Party/FreeRTOS/Source/portable/MemMang/heap_4.c **** 		{
 419:Middlewares/Third_Party/FreeRTOS/Source/portable/MemMang/heap_4.c **** 			pxBlockToInsert->pxNextFreeBlock = pxEnd;
 420:Middlewares/Third_Party/FreeRTOS/Source/portable/MemMang/heap_4.c **** 		}
 421:Middlewares/Third_Party/FreeRTOS/Source/portable/MemMang/heap_4.c **** 	}
 422:Middlewares/Third_Party/FreeRTOS/Source/portable/MemMang/heap_4.c **** 	else
 423:Middlewares/Third_Party/FreeRTOS/Source/portable/MemMang/heap_4.c **** 	{
 424:Middlewares/Third_Party/FreeRTOS/Source/portable/MemMang/heap_4.c **** 		pxBlockToInsert->pxNextFreeBlock = pxIterator->pxNextFreeBlock;
 192              		.loc 1 424 3 is_stmt 1 view .LVU68
 193              		.loc 1 424 36 is_stmt 0 view .LVU69
 194 001e 0360     		str	r3, [r0]
 425:Middlewares/Third_Party/FreeRTOS/Source/portable/MemMang/heap_4.c **** 	}
 426:Middlewares/Third_Party/FreeRTOS/Source/portable/MemMang/heap_4.c **** 
 427:Middlewares/Third_Party/FreeRTOS/Source/portable/MemMang/heap_4.c **** 	/* If the block being inserted plugged a gab, so was merged with the block
 428:Middlewares/Third_Party/FreeRTOS/Source/portable/MemMang/heap_4.c **** 	before and the block after, then it's pxNextFreeBlock pointer will have
 429:Middlewares/Third_Party/FreeRTOS/Source/portable/MemMang/heap_4.c **** 	already been set, and should not be set here as that would make it point
 430:Middlewares/Third_Party/FreeRTOS/Source/portable/MemMang/heap_4.c **** 	to itself. */
 431:Middlewares/Third_Party/FreeRTOS/Source/portable/MemMang/heap_4.c **** 	if( pxIterator != pxBlockToInsert )
 195              		.loc 1 431 2 is_stmt 1 view .LVU70
 196              		.loc 1 431 4 is_stmt 0 view .LVU71
 197 0020 9042     		cmp	r0, r2
ARM GAS  C:\Users\Ali\AppData\Local\Temp\ccXUmpZ6.s 			page 12


 198 0022 19D0     		beq	.L16
 432:Middlewares/Third_Party/FreeRTOS/Source/portable/MemMang/heap_4.c **** 	{
 433:Middlewares/Third_Party/FreeRTOS/Source/portable/MemMang/heap_4.c **** 		pxIterator->pxNextFreeBlock = pxBlockToInsert;
 199              		.loc 1 433 3 is_stmt 1 view .LVU72
 200              		.loc 1 433 31 is_stmt 0 view .LVU73
 201 0024 1060     		str	r0, [r2]
 434:Middlewares/Third_Party/FreeRTOS/Source/portable/MemMang/heap_4.c **** 	}
 435:Middlewares/Third_Party/FreeRTOS/Source/portable/MemMang/heap_4.c **** 	else
 436:Middlewares/Third_Party/FreeRTOS/Source/portable/MemMang/heap_4.c **** 	{
 437:Middlewares/Third_Party/FreeRTOS/Source/portable/MemMang/heap_4.c **** 		mtCOVERAGE_TEST_MARKER();
 202              		.loc 1 437 27 is_stmt 1 view .LVU74
 203 0026 7047     		bx	lr
 204              	.LVL18:
 205              	.L19:
 398:Middlewares/Third_Party/FreeRTOS/Source/portable/MemMang/heap_4.c **** 		pxBlockToInsert = pxIterator;
 206              		.loc 1 398 3 view .LVU75
 398:Middlewares/Third_Party/FreeRTOS/Source/portable/MemMang/heap_4.c **** 		pxBlockToInsert = pxIterator;
 207              		.loc 1 398 44 is_stmt 0 view .LVU76
 208 0028 4068     		ldr	r0, [r0, #4]
 209              	.LVL19:
 398:Middlewares/Third_Party/FreeRTOS/Source/portable/MemMang/heap_4.c **** 		pxBlockToInsert = pxIterator;
 210              		.loc 1 398 26 view .LVU77
 211 002a 0144     		add	r1, r1, r0
 212 002c 5160     		str	r1, [r2, #4]
 399:Middlewares/Third_Party/FreeRTOS/Source/portable/MemMang/heap_4.c **** 	}
 213              		.loc 1 399 3 is_stmt 1 view .LVU78
 214              	.LVL20:
 399:Middlewares/Third_Party/FreeRTOS/Source/portable/MemMang/heap_4.c **** 	}
 215              		.loc 1 399 19 is_stmt 0 view .LVU79
 216 002e 1046     		mov	r0, r2
 217 0030 F0E7     		b	.L8
 218              	.LVL21:
 219              	.L20:
 382:Middlewares/Third_Party/FreeRTOS/Source/portable/MemMang/heap_4.c **** BlockLink_t *pxIterator;
 220              		.loc 1 382 1 view .LVU80
 221 0032 10B4     		push	{r4}
 222              		.cfi_def_cfa_offset 4
 223              		.cfi_offset 4, -4
 411:Middlewares/Third_Party/FreeRTOS/Source/portable/MemMang/heap_4.c **** 		{
 224              		.loc 1 411 3 is_stmt 1 view .LVU81
 411:Middlewares/Third_Party/FreeRTOS/Source/portable/MemMang/heap_4.c **** 		{
 225              		.loc 1 411 35 is_stmt 0 view .LVU82
 226 0034 0A4C     		ldr	r4, .L21+4
 227 0036 2468     		ldr	r4, [r4]
 411:Middlewares/Third_Party/FreeRTOS/Source/portable/MemMang/heap_4.c **** 		{
 228              		.loc 1 411 5 view .LVU83
 229 0038 A342     		cmp	r3, r4
 230 003a 0BD0     		beq	.L10
 414:Middlewares/Third_Party/FreeRTOS/Source/portable/MemMang/heap_4.c **** 			pxBlockToInsert->pxNextFreeBlock = pxIterator->pxNextFreeBlock->pxNextFreeBlock;
 231              		.loc 1 414 4 is_stmt 1 view .LVU84
 414:Middlewares/Third_Party/FreeRTOS/Source/portable/MemMang/heap_4.c **** 			pxBlockToInsert->pxNextFreeBlock = pxIterator->pxNextFreeBlock->pxNextFreeBlock;
 232              		.loc 1 414 62 is_stmt 0 view .LVU85
 233 003c 5B68     		ldr	r3, [r3, #4]
 414:Middlewares/Third_Party/FreeRTOS/Source/portable/MemMang/heap_4.c **** 			pxBlockToInsert->pxNextFreeBlock = pxIterator->pxNextFreeBlock->pxNextFreeBlock;
 234              		.loc 1 414 32 view .LVU86
 235 003e 1944     		add	r1, r1, r3
 236 0040 4160     		str	r1, [r0, #4]
ARM GAS  C:\Users\Ali\AppData\Local\Temp\ccXUmpZ6.s 			page 13


 415:Middlewares/Third_Party/FreeRTOS/Source/portable/MemMang/heap_4.c **** 		}
 237              		.loc 1 415 4 is_stmt 1 view .LVU87
 415:Middlewares/Third_Party/FreeRTOS/Source/portable/MemMang/heap_4.c **** 		}
 238              		.loc 1 415 49 is_stmt 0 view .LVU88
 239 0042 1368     		ldr	r3, [r2]
 415:Middlewares/Third_Party/FreeRTOS/Source/portable/MemMang/heap_4.c **** 		}
 240              		.loc 1 415 66 view .LVU89
 241 0044 1B68     		ldr	r3, [r3]
 415:Middlewares/Third_Party/FreeRTOS/Source/portable/MemMang/heap_4.c **** 		}
 242              		.loc 1 415 37 view .LVU90
 243 0046 0360     		str	r3, [r0]
 244              	.L11:
 431:Middlewares/Third_Party/FreeRTOS/Source/portable/MemMang/heap_4.c **** 	{
 245              		.loc 1 431 2 is_stmt 1 view .LVU91
 431:Middlewares/Third_Party/FreeRTOS/Source/portable/MemMang/heap_4.c **** 	{
 246              		.loc 1 431 4 is_stmt 0 view .LVU92
 247 0048 9042     		cmp	r0, r2
 248 004a 00D0     		beq	.L6
 433:Middlewares/Third_Party/FreeRTOS/Source/portable/MemMang/heap_4.c **** 	}
 249              		.loc 1 433 3 is_stmt 1 view .LVU93
 433:Middlewares/Third_Party/FreeRTOS/Source/portable/MemMang/heap_4.c **** 	}
 250              		.loc 1 433 31 is_stmt 0 view .LVU94
 251 004c 1060     		str	r0, [r2]
 252              		.loc 1 437 27 is_stmt 1 view .LVU95
 253              	.L6:
 438:Middlewares/Third_Party/FreeRTOS/Source/portable/MemMang/heap_4.c **** 	}
 439:Middlewares/Third_Party/FreeRTOS/Source/portable/MemMang/heap_4.c **** }
 254              		.loc 1 439 1 is_stmt 0 view .LVU96
 255 004e 5DF8044B 		ldr	r4, [sp], #4
 256              		.cfi_remember_state
 257              		.cfi_restore 4
 258              		.cfi_def_cfa_offset 0
 259 0052 7047     		bx	lr
 260              	.L10:
 261              		.cfi_restore_state
 419:Middlewares/Third_Party/FreeRTOS/Source/portable/MemMang/heap_4.c **** 		}
 262              		.loc 1 419 4 is_stmt 1 view .LVU97
 419:Middlewares/Third_Party/FreeRTOS/Source/portable/MemMang/heap_4.c **** 		}
 263              		.loc 1 419 37 is_stmt 0 view .LVU98
 264 0054 0460     		str	r4, [r0]
 265 0056 F7E7     		b	.L11
 266              	.L16:
 267              		.cfi_def_cfa_offset 0
 268              		.cfi_restore 4
 419:Middlewares/Third_Party/FreeRTOS/Source/portable/MemMang/heap_4.c **** 		}
 269              		.loc 1 419 37 view .LVU99
 270 0058 7047     		bx	lr
 271              	.L22:
 272 005a 00BF     		.align	2
 273              	.L21:
 274 005c 00000000 		.word	xStart
 275 0060 00000000 		.word	pxEnd
 276              		.cfi_endproc
 277              	.LFE10:
 279              		.section	.text.pvPortMalloc,"ax",%progbits
 280              		.align	1
 281              		.global	pvPortMalloc
ARM GAS  C:\Users\Ali\AppData\Local\Temp\ccXUmpZ6.s 			page 14


 282              		.syntax unified
 283              		.thumb
 284              		.thumb_func
 286              	pvPortMalloc:
 287              	.LVL22:
 288              	.LFB4:
 116:Middlewares/Third_Party/FreeRTOS/Source/portable/MemMang/heap_4.c **** BlockLink_t *pxBlock, *pxPreviousBlock, *pxNewBlockLink;
 289              		.loc 1 116 1 is_stmt 1 view -0
 290              		.cfi_startproc
 291              		@ args = 0, pretend = 0, frame = 0
 292              		@ frame_needed = 0, uses_anonymous_args = 0
 116:Middlewares/Third_Party/FreeRTOS/Source/portable/MemMang/heap_4.c **** BlockLink_t *pxBlock, *pxPreviousBlock, *pxNewBlockLink;
 293              		.loc 1 116 1 is_stmt 0 view .LVU101
 294 0000 38B5     		push	{r3, r4, r5, lr}
 295              		.cfi_def_cfa_offset 16
 296              		.cfi_offset 3, -16
 297              		.cfi_offset 4, -12
 298              		.cfi_offset 5, -8
 299              		.cfi_offset 14, -4
 300 0002 0446     		mov	r4, r0
 117:Middlewares/Third_Party/FreeRTOS/Source/portable/MemMang/heap_4.c **** void *pvReturn = NULL;
 301              		.loc 1 117 1 is_stmt 1 view .LVU102
 118:Middlewares/Third_Party/FreeRTOS/Source/portable/MemMang/heap_4.c **** 
 302              		.loc 1 118 1 view .LVU103
 303              	.LVL23:
 120:Middlewares/Third_Party/FreeRTOS/Source/portable/MemMang/heap_4.c **** 	{
 304              		.loc 1 120 2 view .LVU104
 305 0004 FFF7FEFF 		bl	vTaskSuspendAll
 306              	.LVL24:
 124:Middlewares/Third_Party/FreeRTOS/Source/portable/MemMang/heap_4.c **** 		{
 307              		.loc 1 124 3 view .LVU105
 124:Middlewares/Third_Party/FreeRTOS/Source/portable/MemMang/heap_4.c **** 		{
 308              		.loc 1 124 13 is_stmt 0 view .LVU106
 309 0008 3D4B     		ldr	r3, .L49
 310 000a 1B68     		ldr	r3, [r3]
 124:Middlewares/Third_Party/FreeRTOS/Source/portable/MemMang/heap_4.c **** 		{
 311              		.loc 1 124 5 view .LVU107
 312 000c ABB1     		cbz	r3, .L44
 313              	.L24:
 130:Middlewares/Third_Party/FreeRTOS/Source/portable/MemMang/heap_4.c **** 		}
 314              		.loc 1 130 28 is_stmt 1 view .LVU108
 137:Middlewares/Third_Party/FreeRTOS/Source/portable/MemMang/heap_4.c **** 		{
 315              		.loc 1 137 3 view .LVU109
 137:Middlewares/Third_Party/FreeRTOS/Source/portable/MemMang/heap_4.c **** 		{
 316              		.loc 1 137 21 is_stmt 0 view .LVU110
 317 000e 3D4B     		ldr	r3, .L49+4
 318 0010 1B68     		ldr	r3, [r3]
 137:Middlewares/Third_Party/FreeRTOS/Source/portable/MemMang/heap_4.c **** 		{
 319              		.loc 1 137 5 view .LVU111
 320 0012 1C42     		tst	r4, r3
 321 0014 14D1     		bne	.L45
 141:Middlewares/Third_Party/FreeRTOS/Source/portable/MemMang/heap_4.c **** 			{
 322              		.loc 1 141 4 is_stmt 1 view .LVU112
 141:Middlewares/Third_Party/FreeRTOS/Source/portable/MemMang/heap_4.c **** 			{
 323              		.loc 1 141 6 is_stmt 0 view .LVU113
 324 0016 002C     		cmp	r4, #0
 325 0018 6AD0     		beq	.L41
ARM GAS  C:\Users\Ali\AppData\Local\Temp\ccXUmpZ6.s 			page 15


 143:Middlewares/Third_Party/FreeRTOS/Source/portable/MemMang/heap_4.c **** 
 326              		.loc 1 143 5 is_stmt 1 view .LVU114
 143:Middlewares/Third_Party/FreeRTOS/Source/portable/MemMang/heap_4.c **** 
 327              		.loc 1 143 17 is_stmt 0 view .LVU115
 328 001a 04F10802 		add	r2, r4, #8
 329              	.LVL25:
 147:Middlewares/Third_Party/FreeRTOS/Source/portable/MemMang/heap_4.c **** 				{
 330              		.loc 1 147 5 is_stmt 1 view .LVU116
 147:Middlewares/Third_Party/FreeRTOS/Source/portable/MemMang/heap_4.c **** 				{
 331              		.loc 1 147 7 is_stmt 0 view .LVU117
 332 001e 14F0070F 		tst	r4, #7
 333 0022 02D0     		beq	.L28
 150:Middlewares/Third_Party/FreeRTOS/Source/portable/MemMang/heap_4.c **** 					configASSERT( ( xWantedSize & portBYTE_ALIGNMENT_MASK ) == 0 );
 334              		.loc 1 150 6 is_stmt 1 view .LVU118
 150:Middlewares/Third_Party/FreeRTOS/Source/portable/MemMang/heap_4.c **** 					configASSERT( ( xWantedSize & portBYTE_ALIGNMENT_MASK ) == 0 );
 335              		.loc 1 150 18 is_stmt 0 view .LVU119
 336 0024 22F00702 		bic	r2, r2, #7
 337              	.LVL26:
 150:Middlewares/Third_Party/FreeRTOS/Source/portable/MemMang/heap_4.c **** 					configASSERT( ( xWantedSize & portBYTE_ALIGNMENT_MASK ) == 0 );
 338              		.loc 1 150 18 view .LVU120
 339 0028 0832     		adds	r2, r2, #8
 340              	.LVL27:
 151:Middlewares/Third_Party/FreeRTOS/Source/portable/MemMang/heap_4.c **** 				}
 341              		.loc 1 151 6 is_stmt 1 view .LVU121
 342              	.L28:
 160:Middlewares/Third_Party/FreeRTOS/Source/portable/MemMang/heap_4.c **** 			}
 343              		.loc 1 160 29 view .LVU122
 163:Middlewares/Third_Party/FreeRTOS/Source/portable/MemMang/heap_4.c **** 			{
 344              		.loc 1 163 4 view .LVU123
 163:Middlewares/Third_Party/FreeRTOS/Source/portable/MemMang/heap_4.c **** 			{
 345              		.loc 1 163 6 is_stmt 0 view .LVU124
 346 002a D2B1     		cbz	r2, .L46
 163:Middlewares/Third_Party/FreeRTOS/Source/portable/MemMang/heap_4.c **** 			{
 347              		.loc 1 163 45 discriminator 1 view .LVU125
 348 002c 364B     		ldr	r3, .L49+8
 349 002e 1B68     		ldr	r3, [r3]
 163:Middlewares/Third_Party/FreeRTOS/Source/portable/MemMang/heap_4.c **** 			{
 350              		.loc 1 163 28 discriminator 1 view .LVU126
 351 0030 9342     		cmp	r3, r2
 352 0032 1AD3     		bcc	.L47
 167:Middlewares/Third_Party/FreeRTOS/Source/portable/MemMang/heap_4.c **** 				pxBlock = xStart.pxNextFreeBlock;
 353              		.loc 1 167 5 is_stmt 1 view .LVU127
 354              	.LVL28:
 168:Middlewares/Third_Party/FreeRTOS/Source/portable/MemMang/heap_4.c **** 				while( ( pxBlock->xBlockSize < xWantedSize ) && ( pxBlock->pxNextFreeBlock != NULL ) )
 355              		.loc 1 168 5 view .LVU128
 168:Middlewares/Third_Party/FreeRTOS/Source/portable/MemMang/heap_4.c **** 				while( ( pxBlock->xBlockSize < xWantedSize ) && ( pxBlock->pxNextFreeBlock != NULL ) )
 356              		.loc 1 168 13 is_stmt 0 view .LVU129
 357 0034 3549     		ldr	r1, .L49+12
 358 0036 0C68     		ldr	r4, [r1]
 359              	.LVL29:
 169:Middlewares/Third_Party/FreeRTOS/Source/portable/MemMang/heap_4.c **** 				{
 360              		.loc 1 169 5 is_stmt 1 view .LVU130
 169:Middlewares/Third_Party/FreeRTOS/Source/portable/MemMang/heap_4.c **** 				{
 361              		.loc 1 169 10 is_stmt 0 view .LVU131
 362 0038 1DE0     		b	.L32
 363              	.LVL30:
 364              	.L44:
ARM GAS  C:\Users\Ali\AppData\Local\Temp\ccXUmpZ6.s 			page 16


 126:Middlewares/Third_Party/FreeRTOS/Source/portable/MemMang/heap_4.c **** 		}
 365              		.loc 1 126 4 is_stmt 1 view .LVU132
 366 003a FFF7FEFF 		bl	prvHeapInit
 367              	.LVL31:
 368 003e E6E7     		b	.L24
 369              	.L45:
 240:Middlewares/Third_Party/FreeRTOS/Source/portable/MemMang/heap_4.c **** 		}
 370              		.loc 1 240 28 view .LVU133
 243:Middlewares/Third_Party/FreeRTOS/Source/portable/MemMang/heap_4.c **** 	}
 371              		.loc 1 243 39 view .LVU134
 245:Middlewares/Third_Party/FreeRTOS/Source/portable/MemMang/heap_4.c **** 
 372              		.loc 1 245 2 view .LVU135
 245:Middlewares/Third_Party/FreeRTOS/Source/portable/MemMang/heap_4.c **** 
 373              		.loc 1 245 11 is_stmt 0 view .LVU136
 374 0040 FFF7FEFF 		bl	xTaskResumeAll
 375              	.LVL32:
 249:Middlewares/Third_Party/FreeRTOS/Source/portable/MemMang/heap_4.c **** 		{
 376              		.loc 1 249 3 is_stmt 1 view .LVU137
 118:Middlewares/Third_Party/FreeRTOS/Source/portable/MemMang/heap_4.c **** 
 377              		.loc 1 118 7 is_stmt 0 view .LVU138
 378 0044 0025     		movs	r5, #0
 379              	.LVL33:
 380              	.L26:
 381              	.LBB13:
 251:Middlewares/Third_Party/FreeRTOS/Source/portable/MemMang/heap_4.c **** 			vApplicationMallocFailedHook();
 382              		.loc 1 251 4 is_stmt 1 view .LVU139
 252:Middlewares/Third_Party/FreeRTOS/Source/portable/MemMang/heap_4.c **** 		}
 383              		.loc 1 252 4 view .LVU140
 384 0046 FFF7FEFF 		bl	vApplicationMallocFailedHook
 385              	.LVL34:
 386              	.L38:
 387              	.LBE13:
 256:Middlewares/Third_Party/FreeRTOS/Source/portable/MemMang/heap_4.c **** 		}
 388              		.loc 1 256 28 view .LVU141
 261:Middlewares/Third_Party/FreeRTOS/Source/portable/MemMang/heap_4.c **** 	return pvReturn;
 389              		.loc 1 261 2 view .LVU142
 390 004a 15F0070F 		tst	r5, #7
 391 004e 55D0     		beq	.L23
 261:Middlewares/Third_Party/FreeRTOS/Source/portable/MemMang/heap_4.c **** 	return pvReturn;
 392              		.loc 1 261 2 discriminator 1 view .LVU143
 393              	.LBB14:
 394              	.LBI14:
 395              		.file 2 "Middlewares/Third_Party/FreeRTOS/Source/portable/GCC/ARM_CM4F/portmacro.h"
   1:Middlewares/Third_Party/FreeRTOS/Source/portable/GCC/ARM_CM4F/portmacro.h **** /*
   2:Middlewares/Third_Party/FreeRTOS/Source/portable/GCC/ARM_CM4F/portmacro.h ****  * FreeRTOS Kernel V10.3.1
   3:Middlewares/Third_Party/FreeRTOS/Source/portable/GCC/ARM_CM4F/portmacro.h ****  * Copyright (C) 2020 Amazon.com, Inc. or its affiliates.  All Rights Reserved.
   4:Middlewares/Third_Party/FreeRTOS/Source/portable/GCC/ARM_CM4F/portmacro.h ****  *
   5:Middlewares/Third_Party/FreeRTOS/Source/portable/GCC/ARM_CM4F/portmacro.h ****  * Permission is hereby granted, free of charge, to any person obtaining a copy of
   6:Middlewares/Third_Party/FreeRTOS/Source/portable/GCC/ARM_CM4F/portmacro.h ****  * this software and associated documentation files (the "Software"), to deal in
   7:Middlewares/Third_Party/FreeRTOS/Source/portable/GCC/ARM_CM4F/portmacro.h ****  * the Software without restriction, including without limitation the rights to
   8:Middlewares/Third_Party/FreeRTOS/Source/portable/GCC/ARM_CM4F/portmacro.h ****  * use, copy, modify, merge, publish, distribute, sublicense, and/or sell copies of
   9:Middlewares/Third_Party/FreeRTOS/Source/portable/GCC/ARM_CM4F/portmacro.h ****  * the Software, and to permit persons to whom the Software is furnished to do so,
  10:Middlewares/Third_Party/FreeRTOS/Source/portable/GCC/ARM_CM4F/portmacro.h ****  * subject to the following conditions:
  11:Middlewares/Third_Party/FreeRTOS/Source/portable/GCC/ARM_CM4F/portmacro.h ****  *
  12:Middlewares/Third_Party/FreeRTOS/Source/portable/GCC/ARM_CM4F/portmacro.h ****  * The above copyright notice and this permission notice shall be included in all
  13:Middlewares/Third_Party/FreeRTOS/Source/portable/GCC/ARM_CM4F/portmacro.h ****  * copies or substantial portions of the Software.
  14:Middlewares/Third_Party/FreeRTOS/Source/portable/GCC/ARM_CM4F/portmacro.h ****  *
ARM GAS  C:\Users\Ali\AppData\Local\Temp\ccXUmpZ6.s 			page 17


  15:Middlewares/Third_Party/FreeRTOS/Source/portable/GCC/ARM_CM4F/portmacro.h ****  * THE SOFTWARE IS PROVIDED "AS IS", WITHOUT WARRANTY OF ANY KIND, EXPRESS OR
  16:Middlewares/Third_Party/FreeRTOS/Source/portable/GCC/ARM_CM4F/portmacro.h ****  * IMPLIED, INCLUDING BUT NOT LIMITED TO THE WARRANTIES OF MERCHANTABILITY, FITNESS
  17:Middlewares/Third_Party/FreeRTOS/Source/portable/GCC/ARM_CM4F/portmacro.h ****  * FOR A PARTICULAR PURPOSE AND NONINFRINGEMENT. IN NO EVENT SHALL THE AUTHORS OR
  18:Middlewares/Third_Party/FreeRTOS/Source/portable/GCC/ARM_CM4F/portmacro.h ****  * COPYRIGHT HOLDERS BE LIABLE FOR ANY CLAIM, DAMAGES OR OTHER LIABILITY, WHETHER
  19:Middlewares/Third_Party/FreeRTOS/Source/portable/GCC/ARM_CM4F/portmacro.h ****  * IN AN ACTION OF CONTRACT, TORT OR OTHERWISE, ARISING FROM, OUT OF OR IN
  20:Middlewares/Third_Party/FreeRTOS/Source/portable/GCC/ARM_CM4F/portmacro.h ****  * CONNECTION WITH THE SOFTWARE OR THE USE OR OTHER DEALINGS IN THE SOFTWARE.
  21:Middlewares/Third_Party/FreeRTOS/Source/portable/GCC/ARM_CM4F/portmacro.h ****  *
  22:Middlewares/Third_Party/FreeRTOS/Source/portable/GCC/ARM_CM4F/portmacro.h ****  * http://www.FreeRTOS.org
  23:Middlewares/Third_Party/FreeRTOS/Source/portable/GCC/ARM_CM4F/portmacro.h ****  * http://aws.amazon.com/freertos
  24:Middlewares/Third_Party/FreeRTOS/Source/portable/GCC/ARM_CM4F/portmacro.h ****  *
  25:Middlewares/Third_Party/FreeRTOS/Source/portable/GCC/ARM_CM4F/portmacro.h ****  * 1 tab == 4 spaces!
  26:Middlewares/Third_Party/FreeRTOS/Source/portable/GCC/ARM_CM4F/portmacro.h ****  */
  27:Middlewares/Third_Party/FreeRTOS/Source/portable/GCC/ARM_CM4F/portmacro.h **** 
  28:Middlewares/Third_Party/FreeRTOS/Source/portable/GCC/ARM_CM4F/portmacro.h **** 
  29:Middlewares/Third_Party/FreeRTOS/Source/portable/GCC/ARM_CM4F/portmacro.h **** #ifndef PORTMACRO_H
  30:Middlewares/Third_Party/FreeRTOS/Source/portable/GCC/ARM_CM4F/portmacro.h **** #define PORTMACRO_H
  31:Middlewares/Third_Party/FreeRTOS/Source/portable/GCC/ARM_CM4F/portmacro.h **** 
  32:Middlewares/Third_Party/FreeRTOS/Source/portable/GCC/ARM_CM4F/portmacro.h **** #ifdef __cplusplus
  33:Middlewares/Third_Party/FreeRTOS/Source/portable/GCC/ARM_CM4F/portmacro.h **** extern "C" {
  34:Middlewares/Third_Party/FreeRTOS/Source/portable/GCC/ARM_CM4F/portmacro.h **** #endif
  35:Middlewares/Third_Party/FreeRTOS/Source/portable/GCC/ARM_CM4F/portmacro.h **** 
  36:Middlewares/Third_Party/FreeRTOS/Source/portable/GCC/ARM_CM4F/portmacro.h **** /*-----------------------------------------------------------
  37:Middlewares/Third_Party/FreeRTOS/Source/portable/GCC/ARM_CM4F/portmacro.h ****  * Port specific definitions.
  38:Middlewares/Third_Party/FreeRTOS/Source/portable/GCC/ARM_CM4F/portmacro.h ****  *
  39:Middlewares/Third_Party/FreeRTOS/Source/portable/GCC/ARM_CM4F/portmacro.h ****  * The settings in this file configure FreeRTOS correctly for the
  40:Middlewares/Third_Party/FreeRTOS/Source/portable/GCC/ARM_CM4F/portmacro.h ****  * given hardware and compiler.
  41:Middlewares/Third_Party/FreeRTOS/Source/portable/GCC/ARM_CM4F/portmacro.h ****  *
  42:Middlewares/Third_Party/FreeRTOS/Source/portable/GCC/ARM_CM4F/portmacro.h ****  * These settings should not be altered.
  43:Middlewares/Third_Party/FreeRTOS/Source/portable/GCC/ARM_CM4F/portmacro.h ****  *-----------------------------------------------------------
  44:Middlewares/Third_Party/FreeRTOS/Source/portable/GCC/ARM_CM4F/portmacro.h ****  */
  45:Middlewares/Third_Party/FreeRTOS/Source/portable/GCC/ARM_CM4F/portmacro.h **** 
  46:Middlewares/Third_Party/FreeRTOS/Source/portable/GCC/ARM_CM4F/portmacro.h **** /* Type definitions. */
  47:Middlewares/Third_Party/FreeRTOS/Source/portable/GCC/ARM_CM4F/portmacro.h **** #define portCHAR		char
  48:Middlewares/Third_Party/FreeRTOS/Source/portable/GCC/ARM_CM4F/portmacro.h **** #define portFLOAT		float
  49:Middlewares/Third_Party/FreeRTOS/Source/portable/GCC/ARM_CM4F/portmacro.h **** #define portDOUBLE		double
  50:Middlewares/Third_Party/FreeRTOS/Source/portable/GCC/ARM_CM4F/portmacro.h **** #define portLONG		long
  51:Middlewares/Third_Party/FreeRTOS/Source/portable/GCC/ARM_CM4F/portmacro.h **** #define portSHORT		short
  52:Middlewares/Third_Party/FreeRTOS/Source/portable/GCC/ARM_CM4F/portmacro.h **** #define portSTACK_TYPE	uint32_t
  53:Middlewares/Third_Party/FreeRTOS/Source/portable/GCC/ARM_CM4F/portmacro.h **** #define portBASE_TYPE	long
  54:Middlewares/Third_Party/FreeRTOS/Source/portable/GCC/ARM_CM4F/portmacro.h **** 
  55:Middlewares/Third_Party/FreeRTOS/Source/portable/GCC/ARM_CM4F/portmacro.h **** typedef portSTACK_TYPE StackType_t;
  56:Middlewares/Third_Party/FreeRTOS/Source/portable/GCC/ARM_CM4F/portmacro.h **** typedef long BaseType_t;
  57:Middlewares/Third_Party/FreeRTOS/Source/portable/GCC/ARM_CM4F/portmacro.h **** typedef unsigned long UBaseType_t;
  58:Middlewares/Third_Party/FreeRTOS/Source/portable/GCC/ARM_CM4F/portmacro.h **** 
  59:Middlewares/Third_Party/FreeRTOS/Source/portable/GCC/ARM_CM4F/portmacro.h **** #if( configUSE_16_BIT_TICKS == 1 )
  60:Middlewares/Third_Party/FreeRTOS/Source/portable/GCC/ARM_CM4F/portmacro.h **** 	typedef uint16_t TickType_t;
  61:Middlewares/Third_Party/FreeRTOS/Source/portable/GCC/ARM_CM4F/portmacro.h **** 	#define portMAX_DELAY ( TickType_t ) 0xffff
  62:Middlewares/Third_Party/FreeRTOS/Source/portable/GCC/ARM_CM4F/portmacro.h **** #else
  63:Middlewares/Third_Party/FreeRTOS/Source/portable/GCC/ARM_CM4F/portmacro.h **** 	typedef uint32_t TickType_t;
  64:Middlewares/Third_Party/FreeRTOS/Source/portable/GCC/ARM_CM4F/portmacro.h **** 	#define portMAX_DELAY ( TickType_t ) 0xffffffffUL
  65:Middlewares/Third_Party/FreeRTOS/Source/portable/GCC/ARM_CM4F/portmacro.h **** 
  66:Middlewares/Third_Party/FreeRTOS/Source/portable/GCC/ARM_CM4F/portmacro.h **** 	/* 32-bit tick type on a 32-bit architecture, so reads of the tick count do
  67:Middlewares/Third_Party/FreeRTOS/Source/portable/GCC/ARM_CM4F/portmacro.h **** 	not need to be guarded with a critical section. */
  68:Middlewares/Third_Party/FreeRTOS/Source/portable/GCC/ARM_CM4F/portmacro.h **** 	#define portTICK_TYPE_IS_ATOMIC 1
  69:Middlewares/Third_Party/FreeRTOS/Source/portable/GCC/ARM_CM4F/portmacro.h **** #endif
  70:Middlewares/Third_Party/FreeRTOS/Source/portable/GCC/ARM_CM4F/portmacro.h **** /*-----------------------------------------------------------*/
  71:Middlewares/Third_Party/FreeRTOS/Source/portable/GCC/ARM_CM4F/portmacro.h **** 
ARM GAS  C:\Users\Ali\AppData\Local\Temp\ccXUmpZ6.s 			page 18


  72:Middlewares/Third_Party/FreeRTOS/Source/portable/GCC/ARM_CM4F/portmacro.h **** /* Architecture specifics. */
  73:Middlewares/Third_Party/FreeRTOS/Source/portable/GCC/ARM_CM4F/portmacro.h **** #define portSTACK_GROWTH			( -1 )
  74:Middlewares/Third_Party/FreeRTOS/Source/portable/GCC/ARM_CM4F/portmacro.h **** #define portTICK_PERIOD_MS			( ( TickType_t ) 1000 / configTICK_RATE_HZ )
  75:Middlewares/Third_Party/FreeRTOS/Source/portable/GCC/ARM_CM4F/portmacro.h **** #define portBYTE_ALIGNMENT			8
  76:Middlewares/Third_Party/FreeRTOS/Source/portable/GCC/ARM_CM4F/portmacro.h **** /*-----------------------------------------------------------*/
  77:Middlewares/Third_Party/FreeRTOS/Source/portable/GCC/ARM_CM4F/portmacro.h **** 
  78:Middlewares/Third_Party/FreeRTOS/Source/portable/GCC/ARM_CM4F/portmacro.h **** /* Scheduler utilities. */
  79:Middlewares/Third_Party/FreeRTOS/Source/portable/GCC/ARM_CM4F/portmacro.h **** #define portYIELD() 															\
  80:Middlewares/Third_Party/FreeRTOS/Source/portable/GCC/ARM_CM4F/portmacro.h **** {																				\
  81:Middlewares/Third_Party/FreeRTOS/Source/portable/GCC/ARM_CM4F/portmacro.h **** 	/* Set a PendSV to request a context switch. */								\
  82:Middlewares/Third_Party/FreeRTOS/Source/portable/GCC/ARM_CM4F/portmacro.h **** 	portNVIC_INT_CTRL_REG = portNVIC_PENDSVSET_BIT;								\
  83:Middlewares/Third_Party/FreeRTOS/Source/portable/GCC/ARM_CM4F/portmacro.h **** 																				\
  84:Middlewares/Third_Party/FreeRTOS/Source/portable/GCC/ARM_CM4F/portmacro.h **** 	/* Barriers are normally not required but do ensure the code is completely	\
  85:Middlewares/Third_Party/FreeRTOS/Source/portable/GCC/ARM_CM4F/portmacro.h **** 	within the specified behaviour for the architecture. */						\
  86:Middlewares/Third_Party/FreeRTOS/Source/portable/GCC/ARM_CM4F/portmacro.h **** 	__asm volatile( "dsb" ::: "memory" );										\
  87:Middlewares/Third_Party/FreeRTOS/Source/portable/GCC/ARM_CM4F/portmacro.h **** 	__asm volatile( "isb" );													\
  88:Middlewares/Third_Party/FreeRTOS/Source/portable/GCC/ARM_CM4F/portmacro.h **** }
  89:Middlewares/Third_Party/FreeRTOS/Source/portable/GCC/ARM_CM4F/portmacro.h **** 
  90:Middlewares/Third_Party/FreeRTOS/Source/portable/GCC/ARM_CM4F/portmacro.h **** #define portNVIC_INT_CTRL_REG		( * ( ( volatile uint32_t * ) 0xe000ed04 ) )
  91:Middlewares/Third_Party/FreeRTOS/Source/portable/GCC/ARM_CM4F/portmacro.h **** #define portNVIC_PENDSVSET_BIT		( 1UL << 28UL )
  92:Middlewares/Third_Party/FreeRTOS/Source/portable/GCC/ARM_CM4F/portmacro.h **** #define portEND_SWITCHING_ISR( xSwitchRequired ) if( xSwitchRequired != pdFALSE ) portYIELD()
  93:Middlewares/Third_Party/FreeRTOS/Source/portable/GCC/ARM_CM4F/portmacro.h **** #define portYIELD_FROM_ISR( x ) portEND_SWITCHING_ISR( x )
  94:Middlewares/Third_Party/FreeRTOS/Source/portable/GCC/ARM_CM4F/portmacro.h **** /*-----------------------------------------------------------*/
  95:Middlewares/Third_Party/FreeRTOS/Source/portable/GCC/ARM_CM4F/portmacro.h **** 
  96:Middlewares/Third_Party/FreeRTOS/Source/portable/GCC/ARM_CM4F/portmacro.h **** /* Critical section management. */
  97:Middlewares/Third_Party/FreeRTOS/Source/portable/GCC/ARM_CM4F/portmacro.h **** extern void vPortEnterCritical( void );
  98:Middlewares/Third_Party/FreeRTOS/Source/portable/GCC/ARM_CM4F/portmacro.h **** extern void vPortExitCritical( void );
  99:Middlewares/Third_Party/FreeRTOS/Source/portable/GCC/ARM_CM4F/portmacro.h **** #define portSET_INTERRUPT_MASK_FROM_ISR()		ulPortRaiseBASEPRI()
 100:Middlewares/Third_Party/FreeRTOS/Source/portable/GCC/ARM_CM4F/portmacro.h **** #define portCLEAR_INTERRUPT_MASK_FROM_ISR(x)	vPortSetBASEPRI(x)
 101:Middlewares/Third_Party/FreeRTOS/Source/portable/GCC/ARM_CM4F/portmacro.h **** #define portDISABLE_INTERRUPTS()				vPortRaiseBASEPRI()
 102:Middlewares/Third_Party/FreeRTOS/Source/portable/GCC/ARM_CM4F/portmacro.h **** #define portENABLE_INTERRUPTS()					vPortSetBASEPRI(0)
 103:Middlewares/Third_Party/FreeRTOS/Source/portable/GCC/ARM_CM4F/portmacro.h **** #define portENTER_CRITICAL()					vPortEnterCritical()
 104:Middlewares/Third_Party/FreeRTOS/Source/portable/GCC/ARM_CM4F/portmacro.h **** #define portEXIT_CRITICAL()						vPortExitCritical()
 105:Middlewares/Third_Party/FreeRTOS/Source/portable/GCC/ARM_CM4F/portmacro.h **** 
 106:Middlewares/Third_Party/FreeRTOS/Source/portable/GCC/ARM_CM4F/portmacro.h **** /*-----------------------------------------------------------*/
 107:Middlewares/Third_Party/FreeRTOS/Source/portable/GCC/ARM_CM4F/portmacro.h **** 
 108:Middlewares/Third_Party/FreeRTOS/Source/portable/GCC/ARM_CM4F/portmacro.h **** /* Task function macros as described on the FreeRTOS.org WEB site.  These are
 109:Middlewares/Third_Party/FreeRTOS/Source/portable/GCC/ARM_CM4F/portmacro.h **** not necessary for to use this port.  They are defined so the common demo files
 110:Middlewares/Third_Party/FreeRTOS/Source/portable/GCC/ARM_CM4F/portmacro.h **** (which build with all the ports) will build. */
 111:Middlewares/Third_Party/FreeRTOS/Source/portable/GCC/ARM_CM4F/portmacro.h **** #define portTASK_FUNCTION_PROTO( vFunction, pvParameters ) void vFunction( void *pvParameters )
 112:Middlewares/Third_Party/FreeRTOS/Source/portable/GCC/ARM_CM4F/portmacro.h **** #define portTASK_FUNCTION( vFunction, pvParameters ) void vFunction( void *pvParameters )
 113:Middlewares/Third_Party/FreeRTOS/Source/portable/GCC/ARM_CM4F/portmacro.h **** /*-----------------------------------------------------------*/
 114:Middlewares/Third_Party/FreeRTOS/Source/portable/GCC/ARM_CM4F/portmacro.h **** 
 115:Middlewares/Third_Party/FreeRTOS/Source/portable/GCC/ARM_CM4F/portmacro.h **** /* Tickless idle/low power functionality. */
 116:Middlewares/Third_Party/FreeRTOS/Source/portable/GCC/ARM_CM4F/portmacro.h **** #ifndef portSUPPRESS_TICKS_AND_SLEEP
 117:Middlewares/Third_Party/FreeRTOS/Source/portable/GCC/ARM_CM4F/portmacro.h **** 	extern void vPortSuppressTicksAndSleep( TickType_t xExpectedIdleTime );
 118:Middlewares/Third_Party/FreeRTOS/Source/portable/GCC/ARM_CM4F/portmacro.h **** 	#define portSUPPRESS_TICKS_AND_SLEEP( xExpectedIdleTime ) vPortSuppressTicksAndSleep( xExpectedIdl
 119:Middlewares/Third_Party/FreeRTOS/Source/portable/GCC/ARM_CM4F/portmacro.h **** #endif
 120:Middlewares/Third_Party/FreeRTOS/Source/portable/GCC/ARM_CM4F/portmacro.h **** /*-----------------------------------------------------------*/
 121:Middlewares/Third_Party/FreeRTOS/Source/portable/GCC/ARM_CM4F/portmacro.h **** 
 122:Middlewares/Third_Party/FreeRTOS/Source/portable/GCC/ARM_CM4F/portmacro.h **** /* Architecture specific optimisations. */
 123:Middlewares/Third_Party/FreeRTOS/Source/portable/GCC/ARM_CM4F/portmacro.h **** #ifndef configUSE_PORT_OPTIMISED_TASK_SELECTION
 124:Middlewares/Third_Party/FreeRTOS/Source/portable/GCC/ARM_CM4F/portmacro.h **** 	#define configUSE_PORT_OPTIMISED_TASK_SELECTION 1
 125:Middlewares/Third_Party/FreeRTOS/Source/portable/GCC/ARM_CM4F/portmacro.h **** #endif
 126:Middlewares/Third_Party/FreeRTOS/Source/portable/GCC/ARM_CM4F/portmacro.h **** 
 127:Middlewares/Third_Party/FreeRTOS/Source/portable/GCC/ARM_CM4F/portmacro.h **** #if configUSE_PORT_OPTIMISED_TASK_SELECTION == 1
 128:Middlewares/Third_Party/FreeRTOS/Source/portable/GCC/ARM_CM4F/portmacro.h **** 
ARM GAS  C:\Users\Ali\AppData\Local\Temp\ccXUmpZ6.s 			page 19


 129:Middlewares/Third_Party/FreeRTOS/Source/portable/GCC/ARM_CM4F/portmacro.h **** 	/* Generic helper function. */
 130:Middlewares/Third_Party/FreeRTOS/Source/portable/GCC/ARM_CM4F/portmacro.h **** 	__attribute__( ( always_inline ) ) static inline uint8_t ucPortCountLeadingZeros( uint32_t ulBitma
 131:Middlewares/Third_Party/FreeRTOS/Source/portable/GCC/ARM_CM4F/portmacro.h **** 	{
 132:Middlewares/Third_Party/FreeRTOS/Source/portable/GCC/ARM_CM4F/portmacro.h **** 	uint8_t ucReturn;
 133:Middlewares/Third_Party/FreeRTOS/Source/portable/GCC/ARM_CM4F/portmacro.h **** 
 134:Middlewares/Third_Party/FreeRTOS/Source/portable/GCC/ARM_CM4F/portmacro.h **** 		__asm volatile ( "clz %0, %1" : "=r" ( ucReturn ) : "r" ( ulBitmap ) : "memory" );
 135:Middlewares/Third_Party/FreeRTOS/Source/portable/GCC/ARM_CM4F/portmacro.h **** 		return ucReturn;
 136:Middlewares/Third_Party/FreeRTOS/Source/portable/GCC/ARM_CM4F/portmacro.h **** 	}
 137:Middlewares/Third_Party/FreeRTOS/Source/portable/GCC/ARM_CM4F/portmacro.h **** 
 138:Middlewares/Third_Party/FreeRTOS/Source/portable/GCC/ARM_CM4F/portmacro.h **** 	/* Check the configuration. */
 139:Middlewares/Third_Party/FreeRTOS/Source/portable/GCC/ARM_CM4F/portmacro.h **** 	#if( configMAX_PRIORITIES > 32 )
 140:Middlewares/Third_Party/FreeRTOS/Source/portable/GCC/ARM_CM4F/portmacro.h **** 		#error configUSE_PORT_OPTIMISED_TASK_SELECTION can only be set to 1 when configMAX_PRIORITIES is 
 141:Middlewares/Third_Party/FreeRTOS/Source/portable/GCC/ARM_CM4F/portmacro.h **** 	#endif
 142:Middlewares/Third_Party/FreeRTOS/Source/portable/GCC/ARM_CM4F/portmacro.h **** 
 143:Middlewares/Third_Party/FreeRTOS/Source/portable/GCC/ARM_CM4F/portmacro.h **** 	/* Store/clear the ready priorities in a bit map. */
 144:Middlewares/Third_Party/FreeRTOS/Source/portable/GCC/ARM_CM4F/portmacro.h **** 	#define portRECORD_READY_PRIORITY( uxPriority, uxReadyPriorities ) ( uxReadyPriorities ) |= ( 1UL 
 145:Middlewares/Third_Party/FreeRTOS/Source/portable/GCC/ARM_CM4F/portmacro.h **** 	#define portRESET_READY_PRIORITY( uxPriority, uxReadyPriorities ) ( uxReadyPriorities ) &= ~( 1UL 
 146:Middlewares/Third_Party/FreeRTOS/Source/portable/GCC/ARM_CM4F/portmacro.h **** 
 147:Middlewares/Third_Party/FreeRTOS/Source/portable/GCC/ARM_CM4F/portmacro.h **** 	/*-----------------------------------------------------------*/
 148:Middlewares/Third_Party/FreeRTOS/Source/portable/GCC/ARM_CM4F/portmacro.h **** 
 149:Middlewares/Third_Party/FreeRTOS/Source/portable/GCC/ARM_CM4F/portmacro.h **** 	#define portGET_HIGHEST_PRIORITY( uxTopPriority, uxReadyPriorities ) uxTopPriority = ( 31UL - ( ui
 150:Middlewares/Third_Party/FreeRTOS/Source/portable/GCC/ARM_CM4F/portmacro.h **** 
 151:Middlewares/Third_Party/FreeRTOS/Source/portable/GCC/ARM_CM4F/portmacro.h **** #endif /* configUSE_PORT_OPTIMISED_TASK_SELECTION */
 152:Middlewares/Third_Party/FreeRTOS/Source/portable/GCC/ARM_CM4F/portmacro.h **** 
 153:Middlewares/Third_Party/FreeRTOS/Source/portable/GCC/ARM_CM4F/portmacro.h **** /*-----------------------------------------------------------*/
 154:Middlewares/Third_Party/FreeRTOS/Source/portable/GCC/ARM_CM4F/portmacro.h **** 
 155:Middlewares/Third_Party/FreeRTOS/Source/portable/GCC/ARM_CM4F/portmacro.h **** #ifdef configASSERT
 156:Middlewares/Third_Party/FreeRTOS/Source/portable/GCC/ARM_CM4F/portmacro.h **** 	void vPortValidateInterruptPriority( void );
 157:Middlewares/Third_Party/FreeRTOS/Source/portable/GCC/ARM_CM4F/portmacro.h **** 	#define portASSERT_IF_INTERRUPT_PRIORITY_INVALID() 	vPortValidateInterruptPriority()
 158:Middlewares/Third_Party/FreeRTOS/Source/portable/GCC/ARM_CM4F/portmacro.h **** #endif
 159:Middlewares/Third_Party/FreeRTOS/Source/portable/GCC/ARM_CM4F/portmacro.h **** 
 160:Middlewares/Third_Party/FreeRTOS/Source/portable/GCC/ARM_CM4F/portmacro.h **** /* portNOP() is not required by this port. */
 161:Middlewares/Third_Party/FreeRTOS/Source/portable/GCC/ARM_CM4F/portmacro.h **** #define portNOP()
 162:Middlewares/Third_Party/FreeRTOS/Source/portable/GCC/ARM_CM4F/portmacro.h **** 
 163:Middlewares/Third_Party/FreeRTOS/Source/portable/GCC/ARM_CM4F/portmacro.h **** #define portINLINE	__inline
 164:Middlewares/Third_Party/FreeRTOS/Source/portable/GCC/ARM_CM4F/portmacro.h **** 
 165:Middlewares/Third_Party/FreeRTOS/Source/portable/GCC/ARM_CM4F/portmacro.h **** #ifndef portFORCE_INLINE
 166:Middlewares/Third_Party/FreeRTOS/Source/portable/GCC/ARM_CM4F/portmacro.h **** 	#define portFORCE_INLINE inline __attribute__(( always_inline))
 167:Middlewares/Third_Party/FreeRTOS/Source/portable/GCC/ARM_CM4F/portmacro.h **** #endif
 168:Middlewares/Third_Party/FreeRTOS/Source/portable/GCC/ARM_CM4F/portmacro.h **** 
 169:Middlewares/Third_Party/FreeRTOS/Source/portable/GCC/ARM_CM4F/portmacro.h **** portFORCE_INLINE static BaseType_t xPortIsInsideInterrupt( void )
 170:Middlewares/Third_Party/FreeRTOS/Source/portable/GCC/ARM_CM4F/portmacro.h **** {
 171:Middlewares/Third_Party/FreeRTOS/Source/portable/GCC/ARM_CM4F/portmacro.h **** uint32_t ulCurrentInterrupt;
 172:Middlewares/Third_Party/FreeRTOS/Source/portable/GCC/ARM_CM4F/portmacro.h **** BaseType_t xReturn;
 173:Middlewares/Third_Party/FreeRTOS/Source/portable/GCC/ARM_CM4F/portmacro.h **** 
 174:Middlewares/Third_Party/FreeRTOS/Source/portable/GCC/ARM_CM4F/portmacro.h **** 	/* Obtain the number of the currently executing interrupt. */
 175:Middlewares/Third_Party/FreeRTOS/Source/portable/GCC/ARM_CM4F/portmacro.h **** 	__asm volatile( "mrs %0, ipsr" : "=r"( ulCurrentInterrupt ) :: "memory" );
 176:Middlewares/Third_Party/FreeRTOS/Source/portable/GCC/ARM_CM4F/portmacro.h **** 
 177:Middlewares/Third_Party/FreeRTOS/Source/portable/GCC/ARM_CM4F/portmacro.h **** 	if( ulCurrentInterrupt == 0 )
 178:Middlewares/Third_Party/FreeRTOS/Source/portable/GCC/ARM_CM4F/portmacro.h **** 	{
 179:Middlewares/Third_Party/FreeRTOS/Source/portable/GCC/ARM_CM4F/portmacro.h **** 		xReturn = pdFALSE;
 180:Middlewares/Third_Party/FreeRTOS/Source/portable/GCC/ARM_CM4F/portmacro.h **** 	}
 181:Middlewares/Third_Party/FreeRTOS/Source/portable/GCC/ARM_CM4F/portmacro.h **** 	else
 182:Middlewares/Third_Party/FreeRTOS/Source/portable/GCC/ARM_CM4F/portmacro.h **** 	{
 183:Middlewares/Third_Party/FreeRTOS/Source/portable/GCC/ARM_CM4F/portmacro.h **** 		xReturn = pdTRUE;
 184:Middlewares/Third_Party/FreeRTOS/Source/portable/GCC/ARM_CM4F/portmacro.h **** 	}
 185:Middlewares/Third_Party/FreeRTOS/Source/portable/GCC/ARM_CM4F/portmacro.h **** 
ARM GAS  C:\Users\Ali\AppData\Local\Temp\ccXUmpZ6.s 			page 20


 186:Middlewares/Third_Party/FreeRTOS/Source/portable/GCC/ARM_CM4F/portmacro.h **** 	return xReturn;
 187:Middlewares/Third_Party/FreeRTOS/Source/portable/GCC/ARM_CM4F/portmacro.h **** }
 188:Middlewares/Third_Party/FreeRTOS/Source/portable/GCC/ARM_CM4F/portmacro.h **** 
 189:Middlewares/Third_Party/FreeRTOS/Source/portable/GCC/ARM_CM4F/portmacro.h **** /*-----------------------------------------------------------*/
 190:Middlewares/Third_Party/FreeRTOS/Source/portable/GCC/ARM_CM4F/portmacro.h **** 
 191:Middlewares/Third_Party/FreeRTOS/Source/portable/GCC/ARM_CM4F/portmacro.h **** portFORCE_INLINE static void vPortRaiseBASEPRI( void )
 396              		.loc 2 191 30 view .LVU144
 397              	.LBB15:
 192:Middlewares/Third_Party/FreeRTOS/Source/portable/GCC/ARM_CM4F/portmacro.h **** {
 193:Middlewares/Third_Party/FreeRTOS/Source/portable/GCC/ARM_CM4F/portmacro.h **** uint32_t ulNewBASEPRI;
 398              		.loc 2 193 1 view .LVU145
 194:Middlewares/Third_Party/FreeRTOS/Source/portable/GCC/ARM_CM4F/portmacro.h **** 
 195:Middlewares/Third_Party/FreeRTOS/Source/portable/GCC/ARM_CM4F/portmacro.h **** 	__asm volatile
 399              		.loc 2 195 2 view .LVU146
 400              		.syntax unified
 401              	@ 195 "Middlewares/Third_Party/FreeRTOS/Source/portable/GCC/ARM_CM4F/portmacro.h" 1
 402 0050 4FF05003 			mov r3, #80												
 403 0054 83F31188 		msr basepri, r3											
 404 0058 BFF36F8F 		isb														
 405 005c BFF34F8F 		dsb														
 406              	
 407              	@ 0 "" 2
 408              		.thumb
 409              		.syntax unified
 410              	.L40:
 411              	.LBE15:
 412              	.LBE14:
 261:Middlewares/Third_Party/FreeRTOS/Source/portable/MemMang/heap_4.c **** 	return pvReturn;
 413              		.loc 1 261 2 discriminator 3 view .LVU147
 261:Middlewares/Third_Party/FreeRTOS/Source/portable/MemMang/heap_4.c **** 	return pvReturn;
 414              		.loc 1 261 2 discriminator 3 view .LVU148
 415 0060 FEE7     		b	.L40
 416              	.LVL35:
 417              	.L46:
 240:Middlewares/Third_Party/FreeRTOS/Source/portable/MemMang/heap_4.c **** 		}
 418              		.loc 1 240 28 view .LVU149
 243:Middlewares/Third_Party/FreeRTOS/Source/portable/MemMang/heap_4.c **** 	}
 419              		.loc 1 243 39 view .LVU150
 245:Middlewares/Third_Party/FreeRTOS/Source/portable/MemMang/heap_4.c **** 
 420              		.loc 1 245 2 view .LVU151
 245:Middlewares/Third_Party/FreeRTOS/Source/portable/MemMang/heap_4.c **** 
 421              		.loc 1 245 11 is_stmt 0 view .LVU152
 422 0062 FFF7FEFF 		bl	xTaskResumeAll
 423              	.LVL36:
 249:Middlewares/Third_Party/FreeRTOS/Source/portable/MemMang/heap_4.c **** 		{
 424              		.loc 1 249 3 is_stmt 1 view .LVU153
 118:Middlewares/Third_Party/FreeRTOS/Source/portable/MemMang/heap_4.c **** 
 425              		.loc 1 118 7 is_stmt 0 view .LVU154
 426 0066 0025     		movs	r5, #0
 427 0068 EDE7     		b	.L26
 428              	.LVL37:
 429              	.L47:
 240:Middlewares/Third_Party/FreeRTOS/Source/portable/MemMang/heap_4.c **** 		}
 430              		.loc 1 240 28 is_stmt 1 view .LVU155
 243:Middlewares/Third_Party/FreeRTOS/Source/portable/MemMang/heap_4.c **** 	}
 431              		.loc 1 243 39 view .LVU156
 245:Middlewares/Third_Party/FreeRTOS/Source/portable/MemMang/heap_4.c **** 
ARM GAS  C:\Users\Ali\AppData\Local\Temp\ccXUmpZ6.s 			page 21


 432              		.loc 1 245 2 view .LVU157
 245:Middlewares/Third_Party/FreeRTOS/Source/portable/MemMang/heap_4.c **** 
 433              		.loc 1 245 11 is_stmt 0 view .LVU158
 434 006a FFF7FEFF 		bl	xTaskResumeAll
 435              	.LVL38:
 249:Middlewares/Third_Party/FreeRTOS/Source/portable/MemMang/heap_4.c **** 		{
 436              		.loc 1 249 3 is_stmt 1 view .LVU159
 118:Middlewares/Third_Party/FreeRTOS/Source/portable/MemMang/heap_4.c **** 
 437              		.loc 1 118 7 is_stmt 0 view .LVU160
 438 006e 0025     		movs	r5, #0
 439 0070 E9E7     		b	.L26
 440              	.LVL39:
 441              	.L42:
 171:Middlewares/Third_Party/FreeRTOS/Source/portable/MemMang/heap_4.c **** 					pxBlock = pxBlock->pxNextFreeBlock;
 442              		.loc 1 171 22 view .LVU161
 443 0072 2146     		mov	r1, r4
 444              	.LVL40:
 172:Middlewares/Third_Party/FreeRTOS/Source/portable/MemMang/heap_4.c **** 				}
 445              		.loc 1 172 14 view .LVU162
 446 0074 1C46     		mov	r4, r3
 447              	.LVL41:
 448              	.L32:
 169:Middlewares/Third_Party/FreeRTOS/Source/portable/MemMang/heap_4.c **** 				{
 449              		.loc 1 169 50 is_stmt 1 view .LVU163
 169:Middlewares/Third_Party/FreeRTOS/Source/portable/MemMang/heap_4.c **** 				{
 450              		.loc 1 169 21 is_stmt 0 view .LVU164
 451 0076 6368     		ldr	r3, [r4, #4]
 169:Middlewares/Third_Party/FreeRTOS/Source/portable/MemMang/heap_4.c **** 				{
 452              		.loc 1 169 50 view .LVU165
 453 0078 9342     		cmp	r3, r2
 454 007a 02D2     		bcs	.L31
 169:Middlewares/Third_Party/FreeRTOS/Source/portable/MemMang/heap_4.c **** 				{
 455              		.loc 1 169 62 discriminator 1 view .LVU166
 456 007c 2368     		ldr	r3, [r4]
 169:Middlewares/Third_Party/FreeRTOS/Source/portable/MemMang/heap_4.c **** 				{
 457              		.loc 1 169 50 discriminator 1 view .LVU167
 458 007e 002B     		cmp	r3, #0
 459 0080 F7D1     		bne	.L42
 460              	.L31:
 177:Middlewares/Third_Party/FreeRTOS/Source/portable/MemMang/heap_4.c **** 				{
 461              		.loc 1 177 5 is_stmt 1 view .LVU168
 177:Middlewares/Third_Party/FreeRTOS/Source/portable/MemMang/heap_4.c **** 				{
 462              		.loc 1 177 17 is_stmt 0 view .LVU169
 463 0082 1F4B     		ldr	r3, .L49
 464 0084 1B68     		ldr	r3, [r3]
 177:Middlewares/Third_Party/FreeRTOS/Source/portable/MemMang/heap_4.c **** 				{
 465              		.loc 1 177 7 view .LVU170
 466 0086 A342     		cmp	r3, r4
 467 0088 14D0     		beq	.L48
 181:Middlewares/Third_Party/FreeRTOS/Source/portable/MemMang/heap_4.c **** 
 468              		.loc 1 181 6 is_stmt 1 view .LVU171
 181:Middlewares/Third_Party/FreeRTOS/Source/portable/MemMang/heap_4.c **** 
 469              		.loc 1 181 61 is_stmt 0 view .LVU172
 470 008a 0D68     		ldr	r5, [r1]
 181:Middlewares/Third_Party/FreeRTOS/Source/portable/MemMang/heap_4.c **** 
 471              		.loc 1 181 15 view .LVU173
 472 008c 0835     		adds	r5, r5, #8
ARM GAS  C:\Users\Ali\AppData\Local\Temp\ccXUmpZ6.s 			page 22


 473              	.LVL42:
 185:Middlewares/Third_Party/FreeRTOS/Source/portable/MemMang/heap_4.c **** 
 474              		.loc 1 185 6 is_stmt 1 view .LVU174
 185:Middlewares/Third_Party/FreeRTOS/Source/portable/MemMang/heap_4.c **** 
 475              		.loc 1 185 48 is_stmt 0 view .LVU175
 476 008e 2368     		ldr	r3, [r4]
 185:Middlewares/Third_Party/FreeRTOS/Source/portable/MemMang/heap_4.c **** 
 477              		.loc 1 185 39 view .LVU176
 478 0090 0B60     		str	r3, [r1]
 189:Middlewares/Third_Party/FreeRTOS/Source/portable/MemMang/heap_4.c **** 					{
 479              		.loc 1 189 6 is_stmt 1 view .LVU177
 189:Middlewares/Third_Party/FreeRTOS/Source/portable/MemMang/heap_4.c **** 					{
 480              		.loc 1 189 19 is_stmt 0 view .LVU178
 481 0092 6368     		ldr	r3, [r4, #4]
 189:Middlewares/Third_Party/FreeRTOS/Source/portable/MemMang/heap_4.c **** 					{
 482              		.loc 1 189 32 view .LVU179
 483 0094 9B1A     		subs	r3, r3, r2
 189:Middlewares/Third_Party/FreeRTOS/Source/portable/MemMang/heap_4.c **** 					{
 484              		.loc 1 189 8 view .LVU180
 485 0096 102B     		cmp	r3, #16
 486 0098 14D9     		bls	.L34
 195:Middlewares/Third_Party/FreeRTOS/Source/portable/MemMang/heap_4.c **** 						configASSERT( ( ( ( size_t ) pxNewBlockLink ) & portBYTE_ALIGNMENT_MASK ) == 0 );
 487              		.loc 1 195 7 is_stmt 1 view .LVU181
 195:Middlewares/Third_Party/FreeRTOS/Source/portable/MemMang/heap_4.c **** 						configASSERT( ( ( ( size_t ) pxNewBlockLink ) & portBYTE_ALIGNMENT_MASK ) == 0 );
 488              		.loc 1 195 22 is_stmt 0 view .LVU182
 489 009a A018     		adds	r0, r4, r2
 490              	.LVL43:
 196:Middlewares/Third_Party/FreeRTOS/Source/portable/MemMang/heap_4.c **** 
 491              		.loc 1 196 7 is_stmt 1 view .LVU183
 492 009c 10F0070F 		tst	r0, #7
 493 00a0 0CD0     		beq	.L35
 196:Middlewares/Third_Party/FreeRTOS/Source/portable/MemMang/heap_4.c **** 
 494              		.loc 1 196 7 discriminator 1 view .LVU184
 495              	.LBB16:
 496              	.LBI16:
 191:Middlewares/Third_Party/FreeRTOS/Source/portable/GCC/ARM_CM4F/portmacro.h **** {
 497              		.loc 2 191 30 view .LVU185
 498              	.LBB17:
 193:Middlewares/Third_Party/FreeRTOS/Source/portable/GCC/ARM_CM4F/portmacro.h **** 
 499              		.loc 2 193 1 view .LVU186
 500              		.loc 2 195 2 view .LVU187
 501              		.syntax unified
 502              	@ 195 "Middlewares/Third_Party/FreeRTOS/Source/portable/GCC/ARM_CM4F/portmacro.h" 1
 503 00a2 4FF05003 			mov r3, #80												
 504 00a6 83F31188 		msr basepri, r3											
 505 00aa BFF36F8F 		isb														
 506 00ae BFF34F8F 		dsb														
 507              	
 508              	@ 0 "" 2
 509              		.thumb
 510              		.syntax unified
 511              	.L36:
 512              	.LBE17:
 513              	.LBE16:
 196:Middlewares/Third_Party/FreeRTOS/Source/portable/MemMang/heap_4.c **** 
 514              		.loc 1 196 7 discriminator 3 view .LVU188
 196:Middlewares/Third_Party/FreeRTOS/Source/portable/MemMang/heap_4.c **** 
ARM GAS  C:\Users\Ali\AppData\Local\Temp\ccXUmpZ6.s 			page 23


 515              		.loc 1 196 7 discriminator 3 view .LVU189
 516 00b2 FEE7     		b	.L36
 517              	.LVL44:
 518              	.L48:
 240:Middlewares/Third_Party/FreeRTOS/Source/portable/MemMang/heap_4.c **** 		}
 519              		.loc 1 240 28 view .LVU190
 243:Middlewares/Third_Party/FreeRTOS/Source/portable/MemMang/heap_4.c **** 	}
 520              		.loc 1 243 39 view .LVU191
 245:Middlewares/Third_Party/FreeRTOS/Source/portable/MemMang/heap_4.c **** 
 521              		.loc 1 245 2 view .LVU192
 245:Middlewares/Third_Party/FreeRTOS/Source/portable/MemMang/heap_4.c **** 
 522              		.loc 1 245 11 is_stmt 0 view .LVU193
 523 00b4 FFF7FEFF 		bl	xTaskResumeAll
 524              	.LVL45:
 249:Middlewares/Third_Party/FreeRTOS/Source/portable/MemMang/heap_4.c **** 		{
 525              		.loc 1 249 3 is_stmt 1 view .LVU194
 118:Middlewares/Third_Party/FreeRTOS/Source/portable/MemMang/heap_4.c **** 
 526              		.loc 1 118 7 is_stmt 0 view .LVU195
 527 00b8 0025     		movs	r5, #0
 528 00ba C4E7     		b	.L26
 529              	.LVL46:
 530              	.L35:
 196:Middlewares/Third_Party/FreeRTOS/Source/portable/MemMang/heap_4.c **** 
 531              		.loc 1 196 87 is_stmt 1 discriminator 2 view .LVU196
 200:Middlewares/Third_Party/FreeRTOS/Source/portable/MemMang/heap_4.c **** 						pxBlock->xBlockSize = xWantedSize;
 532              		.loc 1 200 7 view .LVU197
 200:Middlewares/Third_Party/FreeRTOS/Source/portable/MemMang/heap_4.c **** 						pxBlock->xBlockSize = xWantedSize;
 533              		.loc 1 200 34 is_stmt 0 view .LVU198
 534 00bc 4360     		str	r3, [r0, #4]
 201:Middlewares/Third_Party/FreeRTOS/Source/portable/MemMang/heap_4.c **** 
 535              		.loc 1 201 7 is_stmt 1 view .LVU199
 201:Middlewares/Third_Party/FreeRTOS/Source/portable/MemMang/heap_4.c **** 
 536              		.loc 1 201 27 is_stmt 0 view .LVU200
 537 00be 6260     		str	r2, [r4, #4]
 204:Middlewares/Third_Party/FreeRTOS/Source/portable/MemMang/heap_4.c **** 					}
 538              		.loc 1 204 7 is_stmt 1 view .LVU201
 539 00c0 FFF7FEFF 		bl	prvInsertBlockIntoFreeList
 540              	.LVL47:
 541              	.L34:
 208:Middlewares/Third_Party/FreeRTOS/Source/portable/MemMang/heap_4.c **** 					}
 542              		.loc 1 208 31 view .LVU202
 211:Middlewares/Third_Party/FreeRTOS/Source/portable/MemMang/heap_4.c **** 
 543              		.loc 1 211 6 view .LVU203
 211:Middlewares/Third_Party/FreeRTOS/Source/portable/MemMang/heap_4.c **** 
 544              		.loc 1 211 36 is_stmt 0 view .LVU204
 545 00c4 6268     		ldr	r2, [r4, #4]
 211:Middlewares/Third_Party/FreeRTOS/Source/portable/MemMang/heap_4.c **** 
 546              		.loc 1 211 26 view .LVU205
 547 00c6 1049     		ldr	r1, .L49+8
 548 00c8 0B68     		ldr	r3, [r1]
 549 00ca 9B1A     		subs	r3, r3, r2
 550 00cc 0B60     		str	r3, [r1]
 213:Middlewares/Third_Party/FreeRTOS/Source/portable/MemMang/heap_4.c **** 					{
 551              		.loc 1 213 6 is_stmt 1 view .LVU206
 213:Middlewares/Third_Party/FreeRTOS/Source/portable/MemMang/heap_4.c **** 					{
 552              		.loc 1 213 30 is_stmt 0 view .LVU207
 553 00ce 1049     		ldr	r1, .L49+16
ARM GAS  C:\Users\Ali\AppData\Local\Temp\ccXUmpZ6.s 			page 24


 554 00d0 0968     		ldr	r1, [r1]
 213:Middlewares/Third_Party/FreeRTOS/Source/portable/MemMang/heap_4.c **** 					{
 555              		.loc 1 213 8 view .LVU208
 556 00d2 8B42     		cmp	r3, r1
 557 00d4 01D2     		bcs	.L37
 215:Middlewares/Third_Party/FreeRTOS/Source/portable/MemMang/heap_4.c **** 					}
 558              		.loc 1 215 7 is_stmt 1 view .LVU209
 215:Middlewares/Third_Party/FreeRTOS/Source/portable/MemMang/heap_4.c **** 					}
 559              		.loc 1 215 38 is_stmt 0 view .LVU210
 560 00d6 0E49     		ldr	r1, .L49+16
 561 00d8 0B60     		str	r3, [r1]
 562              	.L37:
 219:Middlewares/Third_Party/FreeRTOS/Source/portable/MemMang/heap_4.c **** 					}
 563              		.loc 1 219 31 is_stmt 1 view .LVU211
 224:Middlewares/Third_Party/FreeRTOS/Source/portable/MemMang/heap_4.c **** 					pxBlock->pxNextFreeBlock = NULL;
 564              		.loc 1 224 6 view .LVU212
 224:Middlewares/Third_Party/FreeRTOS/Source/portable/MemMang/heap_4.c **** 					pxBlock->pxNextFreeBlock = NULL;
 565              		.loc 1 224 26 is_stmt 0 view .LVU213
 566 00da 0A4B     		ldr	r3, .L49+4
 567 00dc 1B68     		ldr	r3, [r3]
 568 00de 1343     		orrs	r3, r3, r2
 569 00e0 6360     		str	r3, [r4, #4]
 225:Middlewares/Third_Party/FreeRTOS/Source/portable/MemMang/heap_4.c **** 					xNumberOfSuccessfulAllocations++;
 570              		.loc 1 225 6 is_stmt 1 view .LVU214
 225:Middlewares/Third_Party/FreeRTOS/Source/portable/MemMang/heap_4.c **** 					xNumberOfSuccessfulAllocations++;
 571              		.loc 1 225 31 is_stmt 0 view .LVU215
 572 00e2 0023     		movs	r3, #0
 573 00e4 2360     		str	r3, [r4]
 226:Middlewares/Third_Party/FreeRTOS/Source/portable/MemMang/heap_4.c **** 				}
 574              		.loc 1 226 6 is_stmt 1 view .LVU216
 226:Middlewares/Third_Party/FreeRTOS/Source/portable/MemMang/heap_4.c **** 				}
 575              		.loc 1 226 36 is_stmt 0 view .LVU217
 576 00e6 0B4A     		ldr	r2, .L49+20
 577 00e8 1368     		ldr	r3, [r2]
 578 00ea 0133     		adds	r3, r3, #1
 579 00ec 1360     		str	r3, [r2]
 580 00ee 00E0     		b	.L27
 581              	.LVL48:
 582              	.L41:
 118:Middlewares/Third_Party/FreeRTOS/Source/portable/MemMang/heap_4.c **** 
 583              		.loc 1 118 7 view .LVU218
 584 00f0 0025     		movs	r5, #0
 585              	.LVL49:
 586              	.L27:
 240:Middlewares/Third_Party/FreeRTOS/Source/portable/MemMang/heap_4.c **** 		}
 587              		.loc 1 240 28 is_stmt 1 view .LVU219
 243:Middlewares/Third_Party/FreeRTOS/Source/portable/MemMang/heap_4.c **** 	}
 588              		.loc 1 243 39 view .LVU220
 245:Middlewares/Third_Party/FreeRTOS/Source/portable/MemMang/heap_4.c **** 
 589              		.loc 1 245 2 view .LVU221
 245:Middlewares/Third_Party/FreeRTOS/Source/portable/MemMang/heap_4.c **** 
 590              		.loc 1 245 11 is_stmt 0 view .LVU222
 591 00f2 FFF7FEFF 		bl	xTaskResumeAll
 592              	.LVL50:
 249:Middlewares/Third_Party/FreeRTOS/Source/portable/MemMang/heap_4.c **** 		{
 593              		.loc 1 249 3 is_stmt 1 view .LVU223
 249:Middlewares/Third_Party/FreeRTOS/Source/portable/MemMang/heap_4.c **** 		{
ARM GAS  C:\Users\Ali\AppData\Local\Temp\ccXUmpZ6.s 			page 25


 594              		.loc 1 249 5 is_stmt 0 view .LVU224
 595 00f6 002D     		cmp	r5, #0
 596 00f8 A7D1     		bne	.L38
 597 00fa A4E7     		b	.L26
 598              	.LVL51:
 599              	.L23:
 263:Middlewares/Third_Party/FreeRTOS/Source/portable/MemMang/heap_4.c **** /*-----------------------------------------------------------*/
 600              		.loc 1 263 1 view .LVU225
 601 00fc 2846     		mov	r0, r5
 602 00fe 38BD     		pop	{r3, r4, r5, pc}
 603              	.L50:
 604              		.align	2
 605              	.L49:
 606 0100 00000000 		.word	pxEnd
 607 0104 00000000 		.word	xBlockAllocatedBit
 608 0108 00000000 		.word	xFreeBytesRemaining
 609 010c 00000000 		.word	xStart
 610 0110 00000000 		.word	xMinimumEverFreeBytesRemaining
 611 0114 00000000 		.word	xNumberOfSuccessfulAllocations
 612              		.cfi_endproc
 613              	.LFE4:
 615              		.section	.text.vPortFree,"ax",%progbits
 616              		.align	1
 617              		.global	vPortFree
 618              		.syntax unified
 619              		.thumb
 620              		.thumb_func
 622              	vPortFree:
 623              	.LVL52:
 624              	.LFB5:
 267:Middlewares/Third_Party/FreeRTOS/Source/portable/MemMang/heap_4.c **** uint8_t *puc = ( uint8_t * ) pv;
 625              		.loc 1 267 1 is_stmt 1 view -0
 626              		.cfi_startproc
 627              		@ args = 0, pretend = 0, frame = 0
 628              		@ frame_needed = 0, uses_anonymous_args = 0
 268:Middlewares/Third_Party/FreeRTOS/Source/portable/MemMang/heap_4.c **** BlockLink_t *pxLink;
 629              		.loc 1 268 1 view .LVU227
 269:Middlewares/Third_Party/FreeRTOS/Source/portable/MemMang/heap_4.c **** 
 630              		.loc 1 269 1 view .LVU228
 271:Middlewares/Third_Party/FreeRTOS/Source/portable/MemMang/heap_4.c **** 	{
 631              		.loc 1 271 2 view .LVU229
 271:Middlewares/Third_Party/FreeRTOS/Source/portable/MemMang/heap_4.c **** 	{
 632              		.loc 1 271 4 is_stmt 0 view .LVU230
 633 0000 0028     		cmp	r0, #0
 634 0002 34D0     		beq	.L58
 267:Middlewares/Third_Party/FreeRTOS/Source/portable/MemMang/heap_4.c **** uint8_t *puc = ( uint8_t * ) pv;
 635              		.loc 1 267 1 view .LVU231
 636 0004 38B5     		push	{r3, r4, r5, lr}
 637              		.cfi_def_cfa_offset 16
 638              		.cfi_offset 3, -16
 639              		.cfi_offset 4, -12
 640              		.cfi_offset 5, -8
 641              		.cfi_offset 14, -4
 642 0006 0446     		mov	r4, r0
 275:Middlewares/Third_Party/FreeRTOS/Source/portable/MemMang/heap_4.c **** 
 643              		.loc 1 275 3 is_stmt 1 view .LVU232
 275:Middlewares/Third_Party/FreeRTOS/Source/portable/MemMang/heap_4.c **** 
ARM GAS  C:\Users\Ali\AppData\Local\Temp\ccXUmpZ6.s 			page 26


 644              		.loc 1 275 7 is_stmt 0 view .LVU233
 645 0008 A0F10805 		sub	r5, r0, #8
 646              	.LVL53:
 278:Middlewares/Third_Party/FreeRTOS/Source/portable/MemMang/heap_4.c **** 
 647              		.loc 1 278 3 is_stmt 1 view .LVU234
 281:Middlewares/Third_Party/FreeRTOS/Source/portable/MemMang/heap_4.c **** 		configASSERT( pxLink->pxNextFreeBlock == NULL );
 648              		.loc 1 281 3 view .LVU235
 649 000c 50F8043C 		ldr	r3, [r0, #-4]
 650 0010 174A     		ldr	r2, .L61
 651 0012 1268     		ldr	r2, [r2]
 652 0014 1342     		tst	r3, r2
 653 0016 08D1     		bne	.L53
 281:Middlewares/Third_Party/FreeRTOS/Source/portable/MemMang/heap_4.c **** 		configASSERT( pxLink->pxNextFreeBlock == NULL );
 654              		.loc 1 281 3 discriminator 1 view .LVU236
 655              	.LBB18:
 656              	.LBI18:
 191:Middlewares/Third_Party/FreeRTOS/Source/portable/GCC/ARM_CM4F/portmacro.h **** {
 657              		.loc 2 191 30 view .LVU237
 658              	.LBB19:
 193:Middlewares/Third_Party/FreeRTOS/Source/portable/GCC/ARM_CM4F/portmacro.h **** 
 659              		.loc 2 193 1 view .LVU238
 660              		.loc 2 195 2 view .LVU239
 661              		.syntax unified
 662              	@ 195 "Middlewares/Third_Party/FreeRTOS/Source/portable/GCC/ARM_CM4F/portmacro.h" 1
 663 0018 4FF05003 			mov r3, #80												
 664 001c 83F31188 		msr basepri, r3											
 665 0020 BFF36F8F 		isb														
 666 0024 BFF34F8F 		dsb														
 667              	
 668              	@ 0 "" 2
 669              		.thumb
 670              		.syntax unified
 671              	.L54:
 672              	.LBE19:
 673              	.LBE18:
 281:Middlewares/Third_Party/FreeRTOS/Source/portable/MemMang/heap_4.c **** 		configASSERT( pxLink->pxNextFreeBlock == NULL );
 674              		.loc 1 281 3 discriminator 3 view .LVU240
 281:Middlewares/Third_Party/FreeRTOS/Source/portable/MemMang/heap_4.c **** 		configASSERT( pxLink->pxNextFreeBlock == NULL );
 675              		.loc 1 281 3 discriminator 3 view .LVU241
 676 0028 FEE7     		b	.L54
 677              	.L53:
 281:Middlewares/Third_Party/FreeRTOS/Source/portable/MemMang/heap_4.c **** 		configASSERT( pxLink->pxNextFreeBlock == NULL );
 678              		.loc 1 281 67 discriminator 2 view .LVU242
 282:Middlewares/Third_Party/FreeRTOS/Source/portable/MemMang/heap_4.c **** 
 679              		.loc 1 282 3 view .LVU243
 680 002a 50F8081C 		ldr	r1, [r0, #-8]
 681 002e 41B1     		cbz	r1, .L55
 282:Middlewares/Third_Party/FreeRTOS/Source/portable/MemMang/heap_4.c **** 
 682              		.loc 1 282 3 discriminator 1 view .LVU244
 683              	.LBB20:
 684              	.LBI20:
 191:Middlewares/Third_Party/FreeRTOS/Source/portable/GCC/ARM_CM4F/portmacro.h **** {
 685              		.loc 2 191 30 view .LVU245
 686              	.LBB21:
 193:Middlewares/Third_Party/FreeRTOS/Source/portable/GCC/ARM_CM4F/portmacro.h **** 
 687              		.loc 2 193 1 view .LVU246
 688              		.loc 2 195 2 view .LVU247
ARM GAS  C:\Users\Ali\AppData\Local\Temp\ccXUmpZ6.s 			page 27


 689              		.syntax unified
 690              	@ 195 "Middlewares/Third_Party/FreeRTOS/Source/portable/GCC/ARM_CM4F/portmacro.h" 1
 691 0030 4FF05003 			mov r3, #80												
 692 0034 83F31188 		msr basepri, r3											
 693 0038 BFF36F8F 		isb														
 694 003c BFF34F8F 		dsb														
 695              	
 696              	@ 0 "" 2
 697              		.thumb
 698              		.syntax unified
 699              	.L56:
 700              	.LBE21:
 701              	.LBE20:
 282:Middlewares/Third_Party/FreeRTOS/Source/portable/MemMang/heap_4.c **** 
 702              		.loc 1 282 3 discriminator 3 view .LVU248
 282:Middlewares/Third_Party/FreeRTOS/Source/portable/MemMang/heap_4.c **** 
 703              		.loc 1 282 3 discriminator 3 view .LVU249
 704 0040 FEE7     		b	.L56
 705              	.L55:
 282:Middlewares/Third_Party/FreeRTOS/Source/portable/MemMang/heap_4.c **** 
 706              		.loc 1 282 50 discriminator 2 view .LVU250
 284:Middlewares/Third_Party/FreeRTOS/Source/portable/MemMang/heap_4.c **** 		{
 707              		.loc 1 284 3 view .LVU251
 286:Middlewares/Third_Party/FreeRTOS/Source/portable/MemMang/heap_4.c **** 			{
 708              		.loc 1 286 4 view .LVU252
 290:Middlewares/Third_Party/FreeRTOS/Source/portable/MemMang/heap_4.c **** 
 709              		.loc 1 290 5 view .LVU253
 290:Middlewares/Third_Party/FreeRTOS/Source/portable/MemMang/heap_4.c **** 
 710              		.loc 1 290 24 is_stmt 0 view .LVU254
 711 0042 23EA0203 		bic	r3, r3, r2
 712 0046 40F8043C 		str	r3, [r0, #-4]
 292:Middlewares/Third_Party/FreeRTOS/Source/portable/MemMang/heap_4.c **** 				{
 713              		.loc 1 292 5 is_stmt 1 view .LVU255
 714 004a FFF7FEFF 		bl	vTaskSuspendAll
 715              	.LVL54:
 295:Middlewares/Third_Party/FreeRTOS/Source/portable/MemMang/heap_4.c **** 					traceFREE( pv, pxLink->xBlockSize );
 716              		.loc 1 295 6 view .LVU256
 295:Middlewares/Third_Party/FreeRTOS/Source/portable/MemMang/heap_4.c **** 					traceFREE( pv, pxLink->xBlockSize );
 717              		.loc 1 295 35 is_stmt 0 view .LVU257
 718 004e 54F8041C 		ldr	r1, [r4, #-4]
 295:Middlewares/Third_Party/FreeRTOS/Source/portable/MemMang/heap_4.c **** 					traceFREE( pv, pxLink->xBlockSize );
 719              		.loc 1 295 26 view .LVU258
 720 0052 084A     		ldr	r2, .L61+4
 721 0054 1368     		ldr	r3, [r2]
 722 0056 0B44     		add	r3, r3, r1
 723 0058 1360     		str	r3, [r2]
 296:Middlewares/Third_Party/FreeRTOS/Source/portable/MemMang/heap_4.c **** 					prvInsertBlockIntoFreeList( ( ( BlockLink_t * ) pxLink ) );
 724              		.loc 1 296 41 is_stmt 1 view .LVU259
 297:Middlewares/Third_Party/FreeRTOS/Source/portable/MemMang/heap_4.c **** 					xNumberOfSuccessfulFrees++;
 725              		.loc 1 297 6 view .LVU260
 726 005a 2846     		mov	r0, r5
 727 005c FFF7FEFF 		bl	prvInsertBlockIntoFreeList
 728              	.LVL55:
 298:Middlewares/Third_Party/FreeRTOS/Source/portable/MemMang/heap_4.c **** 				}
 729              		.loc 1 298 6 view .LVU261
 298:Middlewares/Third_Party/FreeRTOS/Source/portable/MemMang/heap_4.c **** 				}
 730              		.loc 1 298 30 is_stmt 0 view .LVU262
ARM GAS  C:\Users\Ali\AppData\Local\Temp\ccXUmpZ6.s 			page 28


 731 0060 054A     		ldr	r2, .L61+8
 732 0062 1368     		ldr	r3, [r2]
 733 0064 0133     		adds	r3, r3, #1
 734 0066 1360     		str	r3, [r2]
 300:Middlewares/Third_Party/FreeRTOS/Source/portable/MemMang/heap_4.c **** 			}
 735              		.loc 1 300 5 is_stmt 1 view .LVU263
 300:Middlewares/Third_Party/FreeRTOS/Source/portable/MemMang/heap_4.c **** 			}
 736              		.loc 1 300 14 is_stmt 0 view .LVU264
 737 0068 FFF7FEFF 		bl	xTaskResumeAll
 738              	.LVL56:
 309:Middlewares/Third_Party/FreeRTOS/Source/portable/MemMang/heap_4.c **** 		}
 739              		.loc 1 309 28 is_stmt 1 view .LVU265
 312:Middlewares/Third_Party/FreeRTOS/Source/portable/MemMang/heap_4.c **** /*-----------------------------------------------------------*/
 740              		.loc 1 312 1 is_stmt 0 view .LVU266
 741 006c 38BD     		pop	{r3, r4, r5, pc}
 742              	.LVL57:
 743              	.L58:
 744              		.cfi_def_cfa_offset 0
 745              		.cfi_restore 3
 746              		.cfi_restore 4
 747              		.cfi_restore 5
 748              		.cfi_restore 14
 312:Middlewares/Third_Party/FreeRTOS/Source/portable/MemMang/heap_4.c **** /*-----------------------------------------------------------*/
 749              		.loc 1 312 1 view .LVU267
 750 006e 7047     		bx	lr
 751              	.L62:
 752              		.align	2
 753              	.L61:
 754 0070 00000000 		.word	xBlockAllocatedBit
 755 0074 00000000 		.word	xFreeBytesRemaining
 756 0078 00000000 		.word	xNumberOfSuccessfulFrees
 757              		.cfi_endproc
 758              	.LFE5:
 760              		.section	.text.xPortGetFreeHeapSize,"ax",%progbits
 761              		.align	1
 762              		.global	xPortGetFreeHeapSize
 763              		.syntax unified
 764              		.thumb
 765              		.thumb_func
 767              	xPortGetFreeHeapSize:
 768              	.LFB6:
 316:Middlewares/Third_Party/FreeRTOS/Source/portable/MemMang/heap_4.c **** 	return xFreeBytesRemaining;
 769              		.loc 1 316 1 is_stmt 1 view -0
 770              		.cfi_startproc
 771              		@ args = 0, pretend = 0, frame = 0
 772              		@ frame_needed = 0, uses_anonymous_args = 0
 773              		@ link register save eliminated.
 317:Middlewares/Third_Party/FreeRTOS/Source/portable/MemMang/heap_4.c **** }
 774              		.loc 1 317 2 view .LVU269
 318:Middlewares/Third_Party/FreeRTOS/Source/portable/MemMang/heap_4.c **** /*-----------------------------------------------------------*/
 775              		.loc 1 318 1 is_stmt 0 view .LVU270
 776 0000 014B     		ldr	r3, .L64
 777 0002 1868     		ldr	r0, [r3]
 778 0004 7047     		bx	lr
 779              	.L65:
 780 0006 00BF     		.align	2
 781              	.L64:
ARM GAS  C:\Users\Ali\AppData\Local\Temp\ccXUmpZ6.s 			page 29


 782 0008 00000000 		.word	xFreeBytesRemaining
 783              		.cfi_endproc
 784              	.LFE6:
 786              		.section	.text.xPortGetMinimumEverFreeHeapSize,"ax",%progbits
 787              		.align	1
 788              		.global	xPortGetMinimumEverFreeHeapSize
 789              		.syntax unified
 790              		.thumb
 791              		.thumb_func
 793              	xPortGetMinimumEverFreeHeapSize:
 794              	.LFB7:
 322:Middlewares/Third_Party/FreeRTOS/Source/portable/MemMang/heap_4.c **** 	return xMinimumEverFreeBytesRemaining;
 795              		.loc 1 322 1 is_stmt 1 view -0
 796              		.cfi_startproc
 797              		@ args = 0, pretend = 0, frame = 0
 798              		@ frame_needed = 0, uses_anonymous_args = 0
 799              		@ link register save eliminated.
 323:Middlewares/Third_Party/FreeRTOS/Source/portable/MemMang/heap_4.c **** }
 800              		.loc 1 323 2 view .LVU272
 324:Middlewares/Third_Party/FreeRTOS/Source/portable/MemMang/heap_4.c **** /*-----------------------------------------------------------*/
 801              		.loc 1 324 1 is_stmt 0 view .LVU273
 802 0000 014B     		ldr	r3, .L67
 803 0002 1868     		ldr	r0, [r3]
 804 0004 7047     		bx	lr
 805              	.L68:
 806 0006 00BF     		.align	2
 807              	.L67:
 808 0008 00000000 		.word	xMinimumEverFreeBytesRemaining
 809              		.cfi_endproc
 810              	.LFE7:
 812              		.section	.text.vPortInitialiseBlocks,"ax",%progbits
 813              		.align	1
 814              		.global	vPortInitialiseBlocks
 815              		.syntax unified
 816              		.thumb
 817              		.thumb_func
 819              	vPortInitialiseBlocks:
 820              	.LFB8:
 328:Middlewares/Third_Party/FreeRTOS/Source/portable/MemMang/heap_4.c **** 	/* This just exists to keep the linker quiet. */
 821              		.loc 1 328 1 is_stmt 1 view -0
 822              		.cfi_startproc
 823              		@ args = 0, pretend = 0, frame = 0
 824              		@ frame_needed = 0, uses_anonymous_args = 0
 825              		@ link register save eliminated.
 330:Middlewares/Third_Party/FreeRTOS/Source/portable/MemMang/heap_4.c **** /*-----------------------------------------------------------*/
 826              		.loc 1 330 1 view .LVU275
 827 0000 7047     		bx	lr
 828              		.cfi_endproc
 829              	.LFE8:
 831              		.section	.text.vPortGetHeapStats,"ax",%progbits
 832              		.align	1
 833              		.global	vPortGetHeapStats
 834              		.syntax unified
 835              		.thumb
 836              		.thumb_func
 838              	vPortGetHeapStats:
 839              	.LVL58:
ARM GAS  C:\Users\Ali\AppData\Local\Temp\ccXUmpZ6.s 			page 30


 840              	.LFB11:
 440:Middlewares/Third_Party/FreeRTOS/Source/portable/MemMang/heap_4.c **** /*-----------------------------------------------------------*/
 441:Middlewares/Third_Party/FreeRTOS/Source/portable/MemMang/heap_4.c **** 
 442:Middlewares/Third_Party/FreeRTOS/Source/portable/MemMang/heap_4.c **** void vPortGetHeapStats( HeapStats_t *pxHeapStats )
 443:Middlewares/Third_Party/FreeRTOS/Source/portable/MemMang/heap_4.c **** {
 841              		.loc 1 443 1 view -0
 842              		.cfi_startproc
 843              		@ args = 0, pretend = 0, frame = 0
 844              		@ frame_needed = 0, uses_anonymous_args = 0
 845              		.loc 1 443 1 is_stmt 0 view .LVU277
 846 0000 F8B5     		push	{r3, r4, r5, r6, r7, lr}
 847              		.cfi_def_cfa_offset 24
 848              		.cfi_offset 3, -24
 849              		.cfi_offset 4, -20
 850              		.cfi_offset 5, -16
 851              		.cfi_offset 6, -12
 852              		.cfi_offset 7, -8
 853              		.cfi_offset 14, -4
 854 0002 0746     		mov	r7, r0
 444:Middlewares/Third_Party/FreeRTOS/Source/portable/MemMang/heap_4.c **** BlockLink_t *pxBlock;
 855              		.loc 1 444 1 is_stmt 1 view .LVU278
 445:Middlewares/Third_Party/FreeRTOS/Source/portable/MemMang/heap_4.c **** size_t xBlocks = 0, xMaxSize = 0, xMinSize = portMAX_DELAY; /* portMAX_DELAY used as a portable way
 856              		.loc 1 445 1 view .LVU279
 857              	.LVL59:
 446:Middlewares/Third_Party/FreeRTOS/Source/portable/MemMang/heap_4.c **** 
 447:Middlewares/Third_Party/FreeRTOS/Source/portable/MemMang/heap_4.c **** 	vTaskSuspendAll();
 858              		.loc 1 447 2 view .LVU280
 859 0004 FFF7FEFF 		bl	vTaskSuspendAll
 860              	.LVL60:
 448:Middlewares/Third_Party/FreeRTOS/Source/portable/MemMang/heap_4.c **** 	{
 449:Middlewares/Third_Party/FreeRTOS/Source/portable/MemMang/heap_4.c **** 		pxBlock = xStart.pxNextFreeBlock;
 861              		.loc 1 449 3 view .LVU281
 862              		.loc 1 449 11 is_stmt 0 view .LVU282
 863 0008 174B     		ldr	r3, .L79
 864 000a 1B68     		ldr	r3, [r3]
 865              	.LVL61:
 450:Middlewares/Third_Party/FreeRTOS/Source/portable/MemMang/heap_4.c **** 
 451:Middlewares/Third_Party/FreeRTOS/Source/portable/MemMang/heap_4.c **** 		/* pxBlock will be NULL if the heap has not been initialised.  The heap
 452:Middlewares/Third_Party/FreeRTOS/Source/portable/MemMang/heap_4.c **** 		is initialised automatically when the first allocation is made. */
 453:Middlewares/Third_Party/FreeRTOS/Source/portable/MemMang/heap_4.c **** 		if( pxBlock != NULL )
 866              		.loc 1 453 3 is_stmt 1 view .LVU283
 867              		.loc 1 453 5 is_stmt 0 view .LVU284
 868 000c 93B1     		cbz	r3, .L75
 445:Middlewares/Third_Party/FreeRTOS/Source/portable/MemMang/heap_4.c **** 
 869              		.loc 1 445 35 view .LVU285
 870 000e 4FF0FF36 		mov	r6, #-1
 445:Middlewares/Third_Party/FreeRTOS/Source/portable/MemMang/heap_4.c **** 
 871              		.loc 1 445 21 view .LVU286
 872 0012 0025     		movs	r5, #0
 445:Middlewares/Third_Party/FreeRTOS/Source/portable/MemMang/heap_4.c **** 
 873              		.loc 1 445 8 view .LVU287
 874 0014 2C46     		mov	r4, r5
 875 0016 04E0     		b	.L74
 876              	.LVL62:
 877              	.L73:
 454:Middlewares/Third_Party/FreeRTOS/Source/portable/MemMang/heap_4.c **** 		{
 455:Middlewares/Third_Party/FreeRTOS/Source/portable/MemMang/heap_4.c **** 			do
ARM GAS  C:\Users\Ali\AppData\Local\Temp\ccXUmpZ6.s 			page 31


 456:Middlewares/Third_Party/FreeRTOS/Source/portable/MemMang/heap_4.c **** 			{
 457:Middlewares/Third_Party/FreeRTOS/Source/portable/MemMang/heap_4.c **** 				/* Increment the number of blocks and record the largest block seen
 458:Middlewares/Third_Party/FreeRTOS/Source/portable/MemMang/heap_4.c **** 				so far. */
 459:Middlewares/Third_Party/FreeRTOS/Source/portable/MemMang/heap_4.c **** 				xBlocks++;
 460:Middlewares/Third_Party/FreeRTOS/Source/portable/MemMang/heap_4.c **** 
 461:Middlewares/Third_Party/FreeRTOS/Source/portable/MemMang/heap_4.c **** 				if( pxBlock->xBlockSize > xMaxSize )
 462:Middlewares/Third_Party/FreeRTOS/Source/portable/MemMang/heap_4.c **** 				{
 463:Middlewares/Third_Party/FreeRTOS/Source/portable/MemMang/heap_4.c **** 					xMaxSize = pxBlock->xBlockSize;
 464:Middlewares/Third_Party/FreeRTOS/Source/portable/MemMang/heap_4.c **** 				}
 465:Middlewares/Third_Party/FreeRTOS/Source/portable/MemMang/heap_4.c **** 
 466:Middlewares/Third_Party/FreeRTOS/Source/portable/MemMang/heap_4.c **** 				if( pxBlock->xBlockSize < xMinSize )
 467:Middlewares/Third_Party/FreeRTOS/Source/portable/MemMang/heap_4.c **** 				{
 468:Middlewares/Third_Party/FreeRTOS/Source/portable/MemMang/heap_4.c **** 					xMinSize = pxBlock->xBlockSize;
 469:Middlewares/Third_Party/FreeRTOS/Source/portable/MemMang/heap_4.c **** 				}
 470:Middlewares/Third_Party/FreeRTOS/Source/portable/MemMang/heap_4.c **** 
 471:Middlewares/Third_Party/FreeRTOS/Source/portable/MemMang/heap_4.c **** 				/* Move to the next block in the chain until the last block is
 472:Middlewares/Third_Party/FreeRTOS/Source/portable/MemMang/heap_4.c **** 				reached. */
 473:Middlewares/Third_Party/FreeRTOS/Source/portable/MemMang/heap_4.c **** 				pxBlock = pxBlock->pxNextFreeBlock;
 878              		.loc 1 473 5 is_stmt 1 view .LVU288
 879              		.loc 1 473 13 is_stmt 0 view .LVU289
 880 0018 1B68     		ldr	r3, [r3]
 881              	.LVL63:
 474:Middlewares/Third_Party/FreeRTOS/Source/portable/MemMang/heap_4.c **** 			} while( pxBlock != pxEnd );
 882              		.loc 1 474 21 is_stmt 1 view .LVU290
 883 001a 144A     		ldr	r2, .L79+4
 884 001c 1268     		ldr	r2, [r2]
 885 001e 9A42     		cmp	r2, r3
 886 0020 0CD0     		beq	.L71
 887              	.LVL64:
 888              	.L74:
 455:Middlewares/Third_Party/FreeRTOS/Source/portable/MemMang/heap_4.c **** 			{
 889              		.loc 1 455 4 view .LVU291
 459:Middlewares/Third_Party/FreeRTOS/Source/portable/MemMang/heap_4.c **** 
 890              		.loc 1 459 5 view .LVU292
 459:Middlewares/Third_Party/FreeRTOS/Source/portable/MemMang/heap_4.c **** 
 891              		.loc 1 459 12 is_stmt 0 view .LVU293
 892 0022 0134     		adds	r4, r4, #1
 893              	.LVL65:
 461:Middlewares/Third_Party/FreeRTOS/Source/portable/MemMang/heap_4.c **** 				{
 894              		.loc 1 461 5 is_stmt 1 view .LVU294
 461:Middlewares/Third_Party/FreeRTOS/Source/portable/MemMang/heap_4.c **** 				{
 895              		.loc 1 461 16 is_stmt 0 view .LVU295
 896 0024 5A68     		ldr	r2, [r3, #4]
 461:Middlewares/Third_Party/FreeRTOS/Source/portable/MemMang/heap_4.c **** 				{
 897              		.loc 1 461 7 view .LVU296
 898 0026 AA42     		cmp	r2, r5
 899 0028 00D9     		bls	.L72
 463:Middlewares/Third_Party/FreeRTOS/Source/portable/MemMang/heap_4.c **** 				}
 900              		.loc 1 463 15 view .LVU297
 901 002a 1546     		mov	r5, r2
 902              	.LVL66:
 903              	.L72:
 466:Middlewares/Third_Party/FreeRTOS/Source/portable/MemMang/heap_4.c **** 				{
 904              		.loc 1 466 5 is_stmt 1 view .LVU298
 466:Middlewares/Third_Party/FreeRTOS/Source/portable/MemMang/heap_4.c **** 				{
 905              		.loc 1 466 7 is_stmt 0 view .LVU299
 906 002c B242     		cmp	r2, r6
ARM GAS  C:\Users\Ali\AppData\Local\Temp\ccXUmpZ6.s 			page 32


 907 002e F3D2     		bcs	.L73
 468:Middlewares/Third_Party/FreeRTOS/Source/portable/MemMang/heap_4.c **** 				}
 908              		.loc 1 468 15 view .LVU300
 909 0030 1646     		mov	r6, r2
 910              	.LVL67:
 468:Middlewares/Third_Party/FreeRTOS/Source/portable/MemMang/heap_4.c **** 				}
 911              		.loc 1 468 15 view .LVU301
 912 0032 F1E7     		b	.L73
 913              	.LVL68:
 914              	.L75:
 445:Middlewares/Third_Party/FreeRTOS/Source/portable/MemMang/heap_4.c **** 
 915              		.loc 1 445 35 view .LVU302
 916 0034 4FF0FF36 		mov	r6, #-1
 445:Middlewares/Third_Party/FreeRTOS/Source/portable/MemMang/heap_4.c **** 
 917              		.loc 1 445 21 view .LVU303
 918 0038 0025     		movs	r5, #0
 445:Middlewares/Third_Party/FreeRTOS/Source/portable/MemMang/heap_4.c **** 
 919              		.loc 1 445 8 view .LVU304
 920 003a 2C46     		mov	r4, r5
 921              	.LVL69:
 922              	.L71:
 475:Middlewares/Third_Party/FreeRTOS/Source/portable/MemMang/heap_4.c **** 		}
 476:Middlewares/Third_Party/FreeRTOS/Source/portable/MemMang/heap_4.c **** 	}
 477:Middlewares/Third_Party/FreeRTOS/Source/portable/MemMang/heap_4.c **** 	xTaskResumeAll();
 923              		.loc 1 477 2 is_stmt 1 view .LVU305
 924 003c FFF7FEFF 		bl	xTaskResumeAll
 925              	.LVL70:
 478:Middlewares/Third_Party/FreeRTOS/Source/portable/MemMang/heap_4.c **** 
 479:Middlewares/Third_Party/FreeRTOS/Source/portable/MemMang/heap_4.c **** 	pxHeapStats->xSizeOfLargestFreeBlockInBytes = xMaxSize;
 926              		.loc 1 479 2 view .LVU306
 927              		.loc 1 479 46 is_stmt 0 view .LVU307
 928 0040 7D60     		str	r5, [r7, #4]
 480:Middlewares/Third_Party/FreeRTOS/Source/portable/MemMang/heap_4.c **** 	pxHeapStats->xSizeOfSmallestFreeBlockInBytes = xMinSize;
 929              		.loc 1 480 2 is_stmt 1 view .LVU308
 930              		.loc 1 480 47 is_stmt 0 view .LVU309
 931 0042 BE60     		str	r6, [r7, #8]
 481:Middlewares/Third_Party/FreeRTOS/Source/portable/MemMang/heap_4.c **** 	pxHeapStats->xNumberOfFreeBlocks = xBlocks;
 932              		.loc 1 481 2 is_stmt 1 view .LVU310
 933              		.loc 1 481 35 is_stmt 0 view .LVU311
 934 0044 FC60     		str	r4, [r7, #12]
 482:Middlewares/Third_Party/FreeRTOS/Source/portable/MemMang/heap_4.c **** 
 483:Middlewares/Third_Party/FreeRTOS/Source/portable/MemMang/heap_4.c **** 	taskENTER_CRITICAL();
 935              		.loc 1 483 2 is_stmt 1 view .LVU312
 936 0046 FFF7FEFF 		bl	vPortEnterCritical
 937              	.LVL71:
 484:Middlewares/Third_Party/FreeRTOS/Source/portable/MemMang/heap_4.c **** 	{
 485:Middlewares/Third_Party/FreeRTOS/Source/portable/MemMang/heap_4.c **** 		pxHeapStats->xAvailableHeapSpaceInBytes = xFreeBytesRemaining;
 938              		.loc 1 485 3 view .LVU313
 939              		.loc 1 485 43 is_stmt 0 view .LVU314
 940 004a 094B     		ldr	r3, .L79+8
 941 004c 1B68     		ldr	r3, [r3]
 942 004e 3B60     		str	r3, [r7]
 486:Middlewares/Third_Party/FreeRTOS/Source/portable/MemMang/heap_4.c **** 		pxHeapStats->xNumberOfSuccessfulAllocations = xNumberOfSuccessfulAllocations;
 943              		.loc 1 486 3 is_stmt 1 view .LVU315
 944              		.loc 1 486 47 is_stmt 0 view .LVU316
 945 0050 084B     		ldr	r3, .L79+12
 946 0052 1B68     		ldr	r3, [r3]
ARM GAS  C:\Users\Ali\AppData\Local\Temp\ccXUmpZ6.s 			page 33


 947 0054 7B61     		str	r3, [r7, #20]
 487:Middlewares/Third_Party/FreeRTOS/Source/portable/MemMang/heap_4.c **** 		pxHeapStats->xNumberOfSuccessfulFrees = xNumberOfSuccessfulFrees;
 948              		.loc 1 487 3 is_stmt 1 view .LVU317
 949              		.loc 1 487 41 is_stmt 0 view .LVU318
 950 0056 084B     		ldr	r3, .L79+16
 951 0058 1B68     		ldr	r3, [r3]
 952 005a BB61     		str	r3, [r7, #24]
 488:Middlewares/Third_Party/FreeRTOS/Source/portable/MemMang/heap_4.c **** 		pxHeapStats->xMinimumEverFreeBytesRemaining = xMinimumEverFreeBytesRemaining;
 953              		.loc 1 488 3 is_stmt 1 view .LVU319
 954              		.loc 1 488 47 is_stmt 0 view .LVU320
 955 005c 074B     		ldr	r3, .L79+20
 956 005e 1B68     		ldr	r3, [r3]
 957 0060 3B61     		str	r3, [r7, #16]
 489:Middlewares/Third_Party/FreeRTOS/Source/portable/MemMang/heap_4.c **** 	}
 490:Middlewares/Third_Party/FreeRTOS/Source/portable/MemMang/heap_4.c **** 	taskEXIT_CRITICAL();
 958              		.loc 1 490 2 is_stmt 1 view .LVU321
 959 0062 FFF7FEFF 		bl	vPortExitCritical
 960              	.LVL72:
 491:Middlewares/Third_Party/FreeRTOS/Source/portable/MemMang/heap_4.c **** }
 961              		.loc 1 491 1 is_stmt 0 view .LVU322
 962 0066 F8BD     		pop	{r3, r4, r5, r6, r7, pc}
 963              	.LVL73:
 964              	.L80:
 965              		.loc 1 491 1 view .LVU323
 966              		.align	2
 967              	.L79:
 968 0068 00000000 		.word	xStart
 969 006c 00000000 		.word	pxEnd
 970 0070 00000000 		.word	xFreeBytesRemaining
 971 0074 00000000 		.word	xNumberOfSuccessfulAllocations
 972 0078 00000000 		.word	xNumberOfSuccessfulFrees
 973 007c 00000000 		.word	xMinimumEverFreeBytesRemaining
 974              		.cfi_endproc
 975              	.LFE11:
 977              		.section	.bss.xBlockAllocatedBit,"aw",%nobits
 978              		.align	2
 981              	xBlockAllocatedBit:
 982 0000 00000000 		.space	4
 983              		.section	.bss.xNumberOfSuccessfulFrees,"aw",%nobits
 984              		.align	2
 987              	xNumberOfSuccessfulFrees:
 988 0000 00000000 		.space	4
 989              		.section	.bss.xNumberOfSuccessfulAllocations,"aw",%nobits
 990              		.align	2
 993              	xNumberOfSuccessfulAllocations:
 994 0000 00000000 		.space	4
 995              		.section	.bss.xMinimumEverFreeBytesRemaining,"aw",%nobits
 996              		.align	2
 999              	xMinimumEverFreeBytesRemaining:
 1000 0000 00000000 		.space	4
 1001              		.section	.bss.xFreeBytesRemaining,"aw",%nobits
 1002              		.align	2
 1005              	xFreeBytesRemaining:
 1006 0000 00000000 		.space	4
 1007              		.section	.bss.pxEnd,"aw",%nobits
 1008              		.align	2
 1011              	pxEnd:
ARM GAS  C:\Users\Ali\AppData\Local\Temp\ccXUmpZ6.s 			page 34


 1012 0000 00000000 		.space	4
 1013              		.section	.bss.xStart,"aw",%nobits
 1014              		.align	2
 1017              	xStart:
 1018 0000 00000000 		.space	8
 1018      00000000 
 1019              		.section	.bss.ucHeap,"aw",%nobits
 1020              		.align	2
 1023              	ucHeap:
 1024 0000 00000000 		.space	12000
 1024      00000000 
 1024      00000000 
 1024      00000000 
 1024      00000000 
 1025              		.text
 1026              	.Letext0:
 1027              		.file 3 "C:/Users/Ali/AppData/Roaming/Code/User/globalStorage/bmd.stm32-for-vscode/@xpack-dev-tool
 1028              		.file 4 "C:/Users/Ali/AppData/Roaming/Code/User/globalStorage/bmd.stm32-for-vscode/@xpack-dev-tool
 1029              		.file 5 "C:/Users/Ali/AppData/Roaming/Code/User/globalStorage/bmd.stm32-for-vscode/@xpack-dev-tool
 1030              		.file 6 "Middlewares/Third_Party/FreeRTOS/Source/include/portable.h"
 1031              		.file 7 "Middlewares/Third_Party/FreeRTOS/Source/include/task.h"
ARM GAS  C:\Users\Ali\AppData\Local\Temp\ccXUmpZ6.s 			page 35

