ARM GAS  C:\Users\Ali\AppData\Local\Temp\ccanl3Qu.s 			page 1


   1              		.cpu cortex-m4
   2              		.arch armv7e-m
   3              		.fpu fpv4-sp-d16
   4              		.eabi_attribute 27, 1
   5              		.eabi_attribute 28, 1
   6              		.eabi_attribute 20, 1
   7              		.eabi_attribute 21, 1
   8              		.eabi_attribute 23, 3
   9              		.eabi_attribute 24, 1
  10              		.eabi_attribute 25, 1
  11              		.eabi_attribute 26, 1
  12              		.eabi_attribute 30, 1
  13              		.eabi_attribute 34, 1
  14              		.eabi_attribute 18, 4
  15              		.file	"main.c"
  16              		.text
  17              	.Ltext0:
  18              		.cfi_sections	.debug_frame
  19              		.file 1 "Core/Src/main.c"
  20              		.section	.text.MX_GPIO_Init,"ax",%progbits
  21              		.align	1
  22              		.syntax unified
  23              		.thumb
  24              		.thumb_func
  26              	MX_GPIO_Init:
  27              	.LFB299:
   1:Core/Src/main.c **** /* USER CODE BEGIN Header */
   2:Core/Src/main.c **** /**
   3:Core/Src/main.c ****   ******************************************************************************
   4:Core/Src/main.c ****   * @file           : main.c
   5:Core/Src/main.c ****   * @brief          : Main program body
   6:Core/Src/main.c ****   ******************************************************************************
   7:Core/Src/main.c ****   * @attention
   8:Core/Src/main.c ****   *
   9:Core/Src/main.c ****   * Copyright (c) 2025 STMicroelectronics.
  10:Core/Src/main.c ****   * All rights reserved.
  11:Core/Src/main.c ****   *
  12:Core/Src/main.c ****   * This software is licensed under terms that can be found in the LICENSE file
  13:Core/Src/main.c ****   * in the root directory of this software component.
  14:Core/Src/main.c ****   * If no LICENSE file comes with this software, it is provided AS-IS.
  15:Core/Src/main.c ****   *
  16:Core/Src/main.c ****   ******************************************************************************
  17:Core/Src/main.c ****   */
  18:Core/Src/main.c **** /* USER CODE END Header */
  19:Core/Src/main.c **** /* Includes ------------------------------------------------------------------*/
  20:Core/Src/main.c **** #include "main.h"
  21:Core/Src/main.c **** #include "cmsis_os.h"
  22:Core/Src/main.c **** 
  23:Core/Src/main.c **** /* Private includes ----------------------------------------------------------*/
  24:Core/Src/main.c **** /* USER CODE BEGIN Includes */
  25:Core/Src/main.c **** #include "cell_temp_handler.h"
  26:Core/Src/main.c **** #include "can_manager.h"
  27:Core/Src/main.c **** #include "config_manager.h"
  28:Core/Src/main.c **** #include "error_manager.h"
  29:Core/Src/main.c **** /* USER CODE END Includes */
  30:Core/Src/main.c **** 
  31:Core/Src/main.c **** /* Private typedef -----------------------------------------------------------*/
ARM GAS  C:\Users\Ali\AppData\Local\Temp\ccanl3Qu.s 			page 2


  32:Core/Src/main.c **** /* USER CODE BEGIN PTD */
  33:Core/Src/main.c **** 
  34:Core/Src/main.c **** /* USER CODE END PTD */
  35:Core/Src/main.c **** 
  36:Core/Src/main.c **** /* Private define ------------------------------------------------------------*/
  37:Core/Src/main.c **** /* USER CODE BEGIN PD */
  38:Core/Src/main.c **** 
  39:Core/Src/main.c **** /* USER CODE END PD */
  40:Core/Src/main.c **** 
  41:Core/Src/main.c **** /* Private macro -------------------------------------------------------------*/
  42:Core/Src/main.c **** /* USER CODE BEGIN PM */
  43:Core/Src/main.c **** 
  44:Core/Src/main.c **** /* USER CODE END PM */
  45:Core/Src/main.c **** 
  46:Core/Src/main.c **** /* Private variables ---------------------------------------------------------*/
  47:Core/Src/main.c **** ADC_HandleTypeDef hadc1;
  48:Core/Src/main.c **** 
  49:Core/Src/main.c **** CAN_HandleTypeDef hcan1;
  50:Core/Src/main.c **** 
  51:Core/Src/main.c **** CRC_HandleTypeDef hcrc;
  52:Core/Src/main.c **** 
  53:Core/Src/main.c **** I2C_HandleTypeDef hi2c1;
  54:Core/Src/main.c **** I2C_HandleTypeDef hi2c3;
  55:Core/Src/main.c **** 
  56:Core/Src/main.c **** /* Definitions for defaultTask */
  57:Core/Src/main.c **** osThreadId_t defaultTaskHandle;
  58:Core/Src/main.c **** const osThreadAttr_t defaultTask_attributes = {
  59:Core/Src/main.c ****   .name = "defaultTask",
  60:Core/Src/main.c ****   .stack_size = 128 * 4,
  61:Core/Src/main.c ****   .priority = (osPriority_t) osPriorityNormal,
  62:Core/Src/main.c **** };
  63:Core/Src/main.c **** /* USER CODE BEGIN PV */
  64:Core/Src/main.c **** 
  65:Core/Src/main.c **** /* Definitions for CellVoltage */
  66:Core/Src/main.c **** osThreadId_t CellVoltageHandle;
  67:Core/Src/main.c **** const osThreadAttr_t CellVoltage_attributes = {
  68:Core/Src/main.c ****   .name = "CellVoltage",
  69:Core/Src/main.c ****   .stack_size = 128 * 4,
  70:Core/Src/main.c ****   .priority = (osPriority_t) osPriorityHigh,
  71:Core/Src/main.c **** };
  72:Core/Src/main.c **** /* Definitions for CellTemperature */
  73:Core/Src/main.c **** osThreadId_t CellTemperatureHandle;
  74:Core/Src/main.c **** const osThreadAttr_t CellTemperature_attributes = {
  75:Core/Src/main.c ****   .name = "CellTemperature",
  76:Core/Src/main.c ****   .stack_size = 128 * 4,
  77:Core/Src/main.c ****   .priority = (osPriority_t) osPriorityHigh,
  78:Core/Src/main.c **** };
  79:Core/Src/main.c **** /* Definitions for CANManager */
  80:Core/Src/main.c **** osThreadId_t CANManagerHandle;
  81:Core/Src/main.c **** const osThreadAttr_t CANManager_attributes = {
  82:Core/Src/main.c ****   .name = "CANManager",
  83:Core/Src/main.c ****   .stack_size = 256 * 4,
  84:Core/Src/main.c ****   .priority = (osPriority_t) osPriorityRealtime,
  85:Core/Src/main.c **** };
  86:Core/Src/main.c **** /* Definitions for I2C1 */
  87:Core/Src/main.c **** osMutexId_t I2C1Handle;
  88:Core/Src/main.c **** const osMutexAttr_t I2C1_attributes = {
ARM GAS  C:\Users\Ali\AppData\Local\Temp\ccanl3Qu.s 			page 3


  89:Core/Src/main.c ****   .name = "I2C1"
  90:Core/Src/main.c **** };
  91:Core/Src/main.c **** /* Definitions for I2C3 */
  92:Core/Src/main.c **** osMutexId_t I2C3Handle;
  93:Core/Src/main.c **** const osMutexAttr_t I2C3_attributes = {
  94:Core/Src/main.c ****   .name = "I2C3"
  95:Core/Src/main.c **** };
  96:Core/Src/main.c **** /* Definitions for CAN */
  97:Core/Src/main.c **** osMutexId_t CANHandle;
  98:Core/Src/main.c **** const osMutexAttr_t CAN_attributes = {
  99:Core/Src/main.c ****   .name = "CAN"
 100:Core/Src/main.c **** };
 101:Core/Src/main.c **** 
 102:Core/Src/main.c **** /* USER CODE END PV */
 103:Core/Src/main.c **** 
 104:Core/Src/main.c **** /* Private function prototypes -----------------------------------------------*/
 105:Core/Src/main.c **** void SystemClock_Config(void);
 106:Core/Src/main.c **** static void MX_GPIO_Init(void);
 107:Core/Src/main.c **** static void MX_ADC1_Init(void);
 108:Core/Src/main.c **** static void MX_CAN1_Init(void);
 109:Core/Src/main.c **** static void MX_CRC_Init(void);
 110:Core/Src/main.c **** static void MX_I2C1_Init(void);
 111:Core/Src/main.c **** static void MX_I2C3_Init(void);
 112:Core/Src/main.c **** void StartDefaultTask(void *argument);
 113:Core/Src/main.c **** 
 114:Core/Src/main.c **** /* USER CODE BEGIN PFP */
 115:Core/Src/main.c **** void ReadCellVoltage(void *argument);
 116:Core/Src/main.c **** void ReadCellTemps(void *argument);
 117:Core/Src/main.c **** 
 118:Core/Src/main.c **** /* USER CODE END PFP */
 119:Core/Src/main.c **** 
 120:Core/Src/main.c **** /* Private user code ---------------------------------------------------------*/
 121:Core/Src/main.c **** /* USER CODE BEGIN 0 */
 122:Core/Src/main.c **** 
 123:Core/Src/main.c **** /* USER CODE END 0 */
 124:Core/Src/main.c **** 
 125:Core/Src/main.c **** /**
 126:Core/Src/main.c ****   * @brief  The application entry point.
 127:Core/Src/main.c ****   * @retval int
 128:Core/Src/main.c ****   */
 129:Core/Src/main.c **** int main(void)
 130:Core/Src/main.c **** {
 131:Core/Src/main.c **** 
 132:Core/Src/main.c ****   /* USER CODE BEGIN 1 */
 133:Core/Src/main.c ****   // When coming from bootloader, disable all interrupts first
 134:Core/Src/main.c ****   __disable_irq();
 135:Core/Src/main.c **** 
 136:Core/Src/main.c ****   // Disable SysTick (bootloader might have enabled it)
 137:Core/Src/main.c ****   SysTick->CTRL = 0;
 138:Core/Src/main.c ****   SysTick->LOAD = 0;
 139:Core/Src/main.c ****   SysTick->VAL = 0;
 140:Core/Src/main.c **** 
 141:Core/Src/main.c ****   /* USER CODE END 1 */
 142:Core/Src/main.c **** 
 143:Core/Src/main.c ****   /* MCU Configuration--------------------------------------------------------*/
 144:Core/Src/main.c **** 
 145:Core/Src/main.c ****   /* Reset of all peripherals, Initializes the Flash interface and the Systick. */
ARM GAS  C:\Users\Ali\AppData\Local\Temp\ccanl3Qu.s 			page 4


 146:Core/Src/main.c ****   HAL_Init();
 147:Core/Src/main.c **** 
 148:Core/Src/main.c ****   /* USER CODE BEGIN Init */
 149:Core/Src/main.c **** 
 150:Core/Src/main.c ****   /* USER CODE END Init */
 151:Core/Src/main.c **** 
 152:Core/Src/main.c ****   /* Configure the system clock */
 153:Core/Src/main.c ****   SystemClock_Config();
 154:Core/Src/main.c **** 
 155:Core/Src/main.c ****   /* USER CODE BEGIN SysInit */
 156:Core/Src/main.c **** 
 157:Core/Src/main.c ****   /* USER CODE END SysInit */
 158:Core/Src/main.c **** 
 159:Core/Src/main.c ****   /* Initialize all configured peripherals */
 160:Core/Src/main.c ****   MX_GPIO_Init();
 161:Core/Src/main.c ****   MX_ADC1_Init();
 162:Core/Src/main.c ****   MX_CAN1_Init();
 163:Core/Src/main.c ****   MX_CRC_Init();
 164:Core/Src/main.c ****   MX_I2C1_Init();
 165:Core/Src/main.c ****   MX_I2C3_Init();
 166:Core/Src/main.c ****   /* USER CODE BEGIN 2 */
 167:Core/Src/main.c ****   
 168:Core/Src/main.c ****   // Calibrate ADC
 169:Core/Src/main.c ****   if (HAL_ADCEx_Calibration_Start(&hadc1, ADC_SINGLE_ENDED) != HAL_OK)
 170:Core/Src/main.c ****   {
 171:Core/Src/main.c ****     Error_Handler();
 172:Core/Src/main.c ****   }
 173:Core/Src/main.c ****   
 174:Core/Src/main.c ****   // Start CAN peripheral
 175:Core/Src/main.c ****   if (HAL_CAN_Start(&hcan1) != HAL_OK)
 176:Core/Src/main.c ****   {
 177:Core/Src/main.c ****     Error_Handler();
 178:Core/Src/main.c ****   }
 179:Core/Src/main.c **** 
 180:Core/Src/main.c ****   /* USER CODE END 2 */
 181:Core/Src/main.c **** 
 182:Core/Src/main.c ****   /* Init scheduler */
 183:Core/Src/main.c ****   osKernelInitialize();
 184:Core/Src/main.c ****   /* Create the mutex(es) */
 185:Core/Src/main.c ****   /* creation of I2C1 */
 186:Core/Src/main.c ****   I2C1Handle = osMutexNew(&I2C1_attributes);
 187:Core/Src/main.c **** 
 188:Core/Src/main.c ****   /* creation of I2C3 */
 189:Core/Src/main.c ****   I2C3Handle = osMutexNew(&I2C3_attributes);
 190:Core/Src/main.c **** 
 191:Core/Src/main.c ****   /* creation of CAN */
 192:Core/Src/main.c ****   CANHandle = osMutexNew(&CAN_attributes);
 193:Core/Src/main.c **** 
 194:Core/Src/main.c ****   /* USER CODE BEGIN RTOS_MUTEX */
 195:Core/Src/main.c ****   /* add mutexes, ... */
 196:Core/Src/main.c ****   /* USER CODE END RTOS_MUTEX */
 197:Core/Src/main.c **** 
 198:Core/Src/main.c ****   /* USER CODE BEGIN RTOS_SEMAPHORES */
 199:Core/Src/main.c ****   /* add semaphores, ... */
 200:Core/Src/main.c ****   /* USER CODE END RTOS_SEMAPHORES */
 201:Core/Src/main.c **** 
 202:Core/Src/main.c ****   /* USER CODE BEGIN RTOS_TIMERS */
ARM GAS  C:\Users\Ali\AppData\Local\Temp\ccanl3Qu.s 			page 5


 203:Core/Src/main.c ****   /* start timers, add new ones, ... */
 204:Core/Src/main.c ****   /* USER CODE END RTOS_TIMERS */
 205:Core/Src/main.c **** 
 206:Core/Src/main.c ****   /* USER CODE BEGIN RTOS_QUEUES */
 207:Core/Src/main.c ****   // Initialize Configuration Manager
 208:Core/Src/main.c ****   Config_Init();
 209:Core/Src/main.c ****   
 210:Core/Src/main.c ****   // Initialize Error Manager
 211:Core/Src/main.c ****   if (ErrorMgr_Init() != HAL_OK)
 212:Core/Src/main.c ****   {
 213:Core/Src/main.c ****     Error_Handler();
 214:Core/Src/main.c ****   }
 215:Core/Src/main.c ****   
 216:Core/Src/main.c ****   // Initialize CAN Manager (creates TX and RX message queues)
 217:Core/Src/main.c ****   if (CAN_Manager_Init() != HAL_OK)
 218:Core/Src/main.c ****   {
 219:Core/Src/main.c ****     Error_Handler();
 220:Core/Src/main.c ****   }
 221:Core/Src/main.c ****   
 222:Core/Src/main.c ****   // Set initial BMS state to IDLE after initialization
 223:Core/Src/main.c ****   ErrorMgr_SetState(BMS_STATE_IDLE);
 224:Core/Src/main.c ****   /* USER CODE END RTOS_QUEUES */
 225:Core/Src/main.c **** 
 226:Core/Src/main.c ****   /* Create the thread(s) */
 227:Core/Src/main.c ****   /* creation of defaultTask */
 228:Core/Src/main.c ****   defaultTaskHandle = osThreadNew(StartDefaultTask, NULL, &defaultTask_attributes);
 229:Core/Src/main.c **** 
 230:Core/Src/main.c ****   /* USER CODE BEGIN RTOS_THREADS */
 231:Core/Src/main.c ****   /* creation of CellVoltage */
 232:Core/Src/main.c ****   CellVoltageHandle = osThreadNew(ReadCellVoltage, NULL, &CellVoltage_attributes);
 233:Core/Src/main.c **** 
 234:Core/Src/main.c ****   /* creation of CellTemperature */
 235:Core/Src/main.c ****   CellTemperatureHandle = osThreadNew(ReadCellTemps, NULL, &CellTemperature_attributes);
 236:Core/Src/main.c **** 
 237:Core/Src/main.c ****   /* creation of CANManager */
 238:Core/Src/main.c ****   CANManagerHandle = osThreadNew(CAN_ManagerTask, NULL, &CANManager_attributes);
 239:Core/Src/main.c ****   /* USER CODE END RTOS_THREADS */
 240:Core/Src/main.c **** 
 241:Core/Src/main.c ****   /* USER CODE BEGIN RTOS_EVENTS */
 242:Core/Src/main.c ****   /* add events, ... */
 243:Core/Src/main.c ****   /* USER CODE END RTOS_EVENTS */
 244:Core/Src/main.c **** 
 245:Core/Src/main.c ****   /* Start scheduler */
 246:Core/Src/main.c ****   osKernelStart();
 247:Core/Src/main.c **** 
 248:Core/Src/main.c ****   /* We should never get here as control is now taken by the scheduler */
 249:Core/Src/main.c **** 
 250:Core/Src/main.c ****   /* Infinite loop */
 251:Core/Src/main.c ****   /* USER CODE BEGIN WHILE */
 252:Core/Src/main.c ****   while (1)
 253:Core/Src/main.c ****   {
 254:Core/Src/main.c ****     /* USER CODE END WHILE */
 255:Core/Src/main.c **** 
 256:Core/Src/main.c ****     /* USER CODE BEGIN 3 */
 257:Core/Src/main.c ****   }
 258:Core/Src/main.c ****   /* USER CODE END 3 */
 259:Core/Src/main.c **** }
ARM GAS  C:\Users\Ali\AppData\Local\Temp\ccanl3Qu.s 			page 6


 260:Core/Src/main.c **** 
 261:Core/Src/main.c **** /**
 262:Core/Src/main.c ****   * @brief System Clock Configuration
 263:Core/Src/main.c ****   * @retval None
 264:Core/Src/main.c ****   */
 265:Core/Src/main.c **** void SystemClock_Config(void)
 266:Core/Src/main.c **** {
 267:Core/Src/main.c ****   RCC_OscInitTypeDef RCC_OscInitStruct = {0};
 268:Core/Src/main.c ****   RCC_ClkInitTypeDef RCC_ClkInitStruct = {0};
 269:Core/Src/main.c **** 
 270:Core/Src/main.c ****   /** Configure the main internal regulator output voltage
 271:Core/Src/main.c ****   */
 272:Core/Src/main.c ****   if (HAL_PWREx_ControlVoltageScaling(PWR_REGULATOR_VOLTAGE_SCALE1) != HAL_OK)
 273:Core/Src/main.c ****   {
 274:Core/Src/main.c ****     Error_Handler();
 275:Core/Src/main.c ****   }
 276:Core/Src/main.c **** 
 277:Core/Src/main.c ****   /** Initializes the RCC Oscillators according to the specified parameters
 278:Core/Src/main.c ****   * in the RCC_OscInitTypeDef structure.
 279:Core/Src/main.c ****   */
 280:Core/Src/main.c ****   RCC_OscInitStruct.OscillatorType = RCC_OSCILLATORTYPE_HSI;
 281:Core/Src/main.c ****   RCC_OscInitStruct.HSIState = RCC_HSI_ON;
 282:Core/Src/main.c ****   RCC_OscInitStruct.HSICalibrationValue = RCC_HSICALIBRATION_DEFAULT;
 283:Core/Src/main.c ****   RCC_OscInitStruct.PLL.PLLState = RCC_PLL_ON;
 284:Core/Src/main.c ****   RCC_OscInitStruct.PLL.PLLSource = RCC_PLLSOURCE_HSI;
 285:Core/Src/main.c ****   RCC_OscInitStruct.PLL.PLLM = 2;
 286:Core/Src/main.c ****   RCC_OscInitStruct.PLL.PLLN = 20;
 287:Core/Src/main.c ****   RCC_OscInitStruct.PLL.PLLP = RCC_PLLP_DIV7;
 288:Core/Src/main.c ****   RCC_OscInitStruct.PLL.PLLQ = RCC_PLLQ_DIV2;
 289:Core/Src/main.c ****   RCC_OscInitStruct.PLL.PLLR = RCC_PLLR_DIV2;
 290:Core/Src/main.c ****   if (HAL_RCC_OscConfig(&RCC_OscInitStruct) != HAL_OK)
 291:Core/Src/main.c ****   {
 292:Core/Src/main.c ****     Error_Handler();
 293:Core/Src/main.c ****   }
 294:Core/Src/main.c **** 
 295:Core/Src/main.c ****   /** Initializes the CPU, AHB and APB buses clocks
 296:Core/Src/main.c ****   */
 297:Core/Src/main.c ****   RCC_ClkInitStruct.ClockType = RCC_CLOCKTYPE_HCLK|RCC_CLOCKTYPE_SYSCLK
 298:Core/Src/main.c ****                               |RCC_CLOCKTYPE_PCLK1|RCC_CLOCKTYPE_PCLK2;
 299:Core/Src/main.c ****   RCC_ClkInitStruct.SYSCLKSource = RCC_SYSCLKSOURCE_PLLCLK;
 300:Core/Src/main.c ****   RCC_ClkInitStruct.AHBCLKDivider = RCC_SYSCLK_DIV1;
 301:Core/Src/main.c ****   RCC_ClkInitStruct.APB1CLKDivider = RCC_HCLK_DIV1;
 302:Core/Src/main.c ****   RCC_ClkInitStruct.APB2CLKDivider = RCC_HCLK_DIV1;
 303:Core/Src/main.c **** 
 304:Core/Src/main.c ****   if (HAL_RCC_ClockConfig(&RCC_ClkInitStruct, FLASH_LATENCY_4) != HAL_OK)
 305:Core/Src/main.c ****   {
 306:Core/Src/main.c ****     Error_Handler();  
 307:Core/Src/main.c ****   }
 308:Core/Src/main.c **** }
 309:Core/Src/main.c **** 
 310:Core/Src/main.c **** /**
 311:Core/Src/main.c ****   * @brief ADC1 Initialization Function
 312:Core/Src/main.c ****   * @param None
 313:Core/Src/main.c ****   * @retval None
 314:Core/Src/main.c ****   */
 315:Core/Src/main.c **** static void MX_ADC1_Init(void)
 316:Core/Src/main.c **** {
ARM GAS  C:\Users\Ali\AppData\Local\Temp\ccanl3Qu.s 			page 7


 317:Core/Src/main.c **** 
 318:Core/Src/main.c ****   /* USER CODE BEGIN ADC1_Init 0 */
 319:Core/Src/main.c **** 
 320:Core/Src/main.c ****   /* USER CODE END ADC1_Init 0 */
 321:Core/Src/main.c **** 
 322:Core/Src/main.c ****   ADC_ChannelConfTypeDef sConfig = {0};
 323:Core/Src/main.c **** 
 324:Core/Src/main.c ****   /* USER CODE BEGIN ADC1_Init 1 */
 325:Core/Src/main.c **** 
 326:Core/Src/main.c ****   /* USER CODE END ADC1_Init 1 */
 327:Core/Src/main.c **** 
 328:Core/Src/main.c ****   /** Common config
 329:Core/Src/main.c ****   */
 330:Core/Src/main.c ****   hadc1.Instance = ADC1;
 331:Core/Src/main.c ****   hadc1.Init.ClockPrescaler = ADC_CLOCK_ASYNC_DIV1;
 332:Core/Src/main.c ****   hadc1.Init.Resolution = ADC_RESOLUTION_12B;
 333:Core/Src/main.c ****   hadc1.Init.DataAlign = ADC_DATAALIGN_RIGHT;
 334:Core/Src/main.c ****   hadc1.Init.ScanConvMode = ADC_SCAN_DISABLE;
 335:Core/Src/main.c ****   hadc1.Init.EOCSelection = ADC_EOC_SINGLE_CONV;
 336:Core/Src/main.c ****   hadc1.Init.LowPowerAutoWait = DISABLE;
 337:Core/Src/main.c ****   hadc1.Init.ContinuousConvMode = DISABLE;
 338:Core/Src/main.c ****   hadc1.Init.NbrOfConversion = 1;
 339:Core/Src/main.c ****   hadc1.Init.DiscontinuousConvMode = DISABLE;
 340:Core/Src/main.c ****   hadc1.Init.ExternalTrigConv = ADC_SOFTWARE_START;
 341:Core/Src/main.c ****   hadc1.Init.ExternalTrigConvEdge = ADC_EXTERNALTRIGCONVEDGE_NONE;
 342:Core/Src/main.c ****   hadc1.Init.DMAContinuousRequests = DISABLE;
 343:Core/Src/main.c ****   hadc1.Init.Overrun = ADC_OVR_DATA_PRESERVED;
 344:Core/Src/main.c ****   hadc1.Init.OversamplingMode = DISABLE;
 345:Core/Src/main.c ****   if (HAL_ADC_Init(&hadc1) != HAL_OK)
 346:Core/Src/main.c ****   {
 347:Core/Src/main.c ****     Error_Handler();
 348:Core/Src/main.c ****   }
 349:Core/Src/main.c **** 
 350:Core/Src/main.c ****   /** Configure Regular Channel
 351:Core/Src/main.c ****   */
 352:Core/Src/main.c ****   sConfig.Channel = ADC_CHANNEL_5;  // ADC1 (PA0) - first thermistor channel
 353:Core/Src/main.c ****   sConfig.Rank = ADC_REGULAR_RANK_1;
 354:Core/Src/main.c ****   sConfig.SamplingTime = ADC_SAMPLETIME_640CYCLES_5;  // Longer sampling for high impedance thermis
 355:Core/Src/main.c ****   sConfig.SingleDiff = ADC_SINGLE_ENDED;
 356:Core/Src/main.c ****   sConfig.OffsetNumber = ADC_OFFSET_NONE;
 357:Core/Src/main.c ****   sConfig.Offset = 0;
 358:Core/Src/main.c ****   if (HAL_ADC_ConfigChannel(&hadc1, &sConfig) != HAL_OK)
 359:Core/Src/main.c ****   {
 360:Core/Src/main.c ****     Error_Handler();
 361:Core/Src/main.c ****   }
 362:Core/Src/main.c ****   /* USER CODE BEGIN ADC1_Init 2 */
 363:Core/Src/main.c **** 
 364:Core/Src/main.c ****   /* USER CODE END ADC1_Init 2 */
 365:Core/Src/main.c **** 
 366:Core/Src/main.c **** }
 367:Core/Src/main.c **** 
 368:Core/Src/main.c **** /**
 369:Core/Src/main.c ****   * @brief CAN1 Initialization Function
 370:Core/Src/main.c ****   * @param None
 371:Core/Src/main.c ****   * @retval None
 372:Core/Src/main.c ****   */
 373:Core/Src/main.c **** static void MX_CAN1_Init(void)
ARM GAS  C:\Users\Ali\AppData\Local\Temp\ccanl3Qu.s 			page 8


 374:Core/Src/main.c **** {
 375:Core/Src/main.c **** 
 376:Core/Src/main.c ****   /* USER CODE BEGIN CAN1_Init 0 */
 377:Core/Src/main.c **** 
 378:Core/Src/main.c ****   /* USER CODE END CAN1_Init 0 */
 379:Core/Src/main.c **** 
 380:Core/Src/main.c ****   /* USER CODE BEGIN CAN1_Init 1 */
 381:Core/Src/main.c **** 
 382:Core/Src/main.c ****   /* USER CODE END CAN1_Init 1 */
 383:Core/Src/main.c ****   hcan1.Instance = CAN1;
 384:Core/Src/main.c ****   hcan1.Init.Prescaler = 10;
 385:Core/Src/main.c ****   hcan1.Init.Mode = CAN_MODE_NORMAL;
 386:Core/Src/main.c ****   hcan1.Init.SyncJumpWidth = CAN_SJW_1TQ;
 387:Core/Src/main.c ****   hcan1.Init.TimeSeg1 = CAN_BS1_13TQ;
 388:Core/Src/main.c ****   hcan1.Init.TimeSeg2 = CAN_BS2_2TQ;
 389:Core/Src/main.c ****   hcan1.Init.TimeTriggeredMode = DISABLE;
 390:Core/Src/main.c ****   hcan1.Init.AutoBusOff = DISABLE;
 391:Core/Src/main.c ****   hcan1.Init.AutoWakeUp = DISABLE;
 392:Core/Src/main.c ****   hcan1.Init.AutoRetransmission = DISABLE;
 393:Core/Src/main.c ****   hcan1.Init.ReceiveFifoLocked = DISABLE;
 394:Core/Src/main.c ****   hcan1.Init.TransmitFifoPriority = DISABLE;
 395:Core/Src/main.c ****   if (HAL_CAN_Init(&hcan1) != HAL_OK)
 396:Core/Src/main.c ****   {
 397:Core/Src/main.c ****     Error_Handler();
 398:Core/Src/main.c ****   }
 399:Core/Src/main.c ****   /* USER CODE BEGIN CAN1_Init 2 */
 400:Core/Src/main.c ****   
 401:Core/Src/main.c ****   // Configure CAN filter BEFORE starting CAN
 402:Core/Src/main.c ****   // Accept all extended CAN IDs (for debugging)
 403:Core/Src/main.c ****   CAN_FilterTypeDef filterConfig;
 404:Core/Src/main.c ****   filterConfig.FilterBank = 0;
 405:Core/Src/main.c ****   filterConfig.FilterMode = CAN_FILTERMODE_IDMASK;
 406:Core/Src/main.c ****   filterConfig.FilterScale = CAN_FILTERSCALE_32BIT;
 407:Core/Src/main.c ****   
 408:Core/Src/main.c ****   // Accept all extended IDs: ID=0, Mask=0 means "don't care about any bits"
 409:Core/Src/main.c ****   filterConfig.FilterIdHigh = 0x0000;
 410:Core/Src/main.c ****   filterConfig.FilterIdLow = 0x0004;   // Only IDE bit set (extended ID)
 411:Core/Src/main.c ****   filterConfig.FilterMaskIdHigh = 0x0000;  // Don't care about any ID bits
 412:Core/Src/main.c ****   filterConfig.FilterMaskIdLow = 0x0004;   // But we DO care about IDE bit (only extended)
 413:Core/Src/main.c ****   
 414:Core/Src/main.c ****   filterConfig.FilterFIFOAssignment = CAN_RX_FIFO0;
 415:Core/Src/main.c ****   filterConfig.FilterActivation = ENABLE;
 416:Core/Src/main.c ****   filterConfig.SlaveStartFilterBank = 14;
 417:Core/Src/main.c ****   
 418:Core/Src/main.c ****   if (HAL_CAN_ConfigFilter(&hcan1, &filterConfig) != HAL_OK)
 419:Core/Src/main.c ****   {
 420:Core/Src/main.c ****     Error_Handler();
 421:Core/Src/main.c ****   }
 422:Core/Src/main.c **** 
 423:Core/Src/main.c ****   /* USER CODE END CAN1_Init 2 */
 424:Core/Src/main.c **** 
 425:Core/Src/main.c **** }
 426:Core/Src/main.c **** 
 427:Core/Src/main.c **** /**
 428:Core/Src/main.c ****   * @brief CRC Initialization Function
 429:Core/Src/main.c ****   * @param None
 430:Core/Src/main.c ****   * @retval None
ARM GAS  C:\Users\Ali\AppData\Local\Temp\ccanl3Qu.s 			page 9


 431:Core/Src/main.c ****   */
 432:Core/Src/main.c **** static void MX_CRC_Init(void)
 433:Core/Src/main.c **** {
 434:Core/Src/main.c **** 
 435:Core/Src/main.c ****   /* USER CODE BEGIN CRC_Init 0 */
 436:Core/Src/main.c **** 
 437:Core/Src/main.c ****   /* USER CODE END CRC_Init 0 */
 438:Core/Src/main.c **** 
 439:Core/Src/main.c ****   /* USER CODE BEGIN CRC_Init 1 */
 440:Core/Src/main.c **** 
 441:Core/Src/main.c ****   /* USER CODE END CRC_Init 1 */
 442:Core/Src/main.c ****   hcrc.Instance = CRC;
 443:Core/Src/main.c ****   hcrc.Init.DefaultPolynomialUse = DEFAULT_POLYNOMIAL_ENABLE;
 444:Core/Src/main.c ****   hcrc.Init.DefaultInitValueUse = DEFAULT_INIT_VALUE_ENABLE;
 445:Core/Src/main.c ****   hcrc.Init.InputDataInversionMode = CRC_INPUTDATA_INVERSION_NONE;
 446:Core/Src/main.c ****   hcrc.Init.OutputDataInversionMode = CRC_OUTPUTDATA_INVERSION_DISABLE;
 447:Core/Src/main.c ****   hcrc.InputDataFormat = CRC_INPUTDATA_FORMAT_BYTES;
 448:Core/Src/main.c ****   if (HAL_CRC_Init(&hcrc) != HAL_OK)
 449:Core/Src/main.c ****   {
 450:Core/Src/main.c ****     Error_Handler();
 451:Core/Src/main.c ****   }
 452:Core/Src/main.c ****   /* USER CODE BEGIN CRC_Init 2 */
 453:Core/Src/main.c **** 
 454:Core/Src/main.c ****   /* USER CODE END CRC_Init 2 */
 455:Core/Src/main.c **** 
 456:Core/Src/main.c **** }
 457:Core/Src/main.c **** 
 458:Core/Src/main.c **** /**
 459:Core/Src/main.c ****   * @brief I2C1 Initialization Function
 460:Core/Src/main.c ****   * @param None
 461:Core/Src/main.c ****   * @retval None
 462:Core/Src/main.c ****   */
 463:Core/Src/main.c **** static void MX_I2C1_Init(void)
 464:Core/Src/main.c **** {
 465:Core/Src/main.c **** 
 466:Core/Src/main.c ****   /* USER CODE BEGIN I2C1_Init 0 */
 467:Core/Src/main.c **** 
 468:Core/Src/main.c ****   /* USER CODE END I2C1_Init 0 */
 469:Core/Src/main.c **** 
 470:Core/Src/main.c ****   /* USER CODE BEGIN I2C1_Init 1 */
 471:Core/Src/main.c **** 
 472:Core/Src/main.c ****   /* USER CODE END I2C1_Init 1 */
 473:Core/Src/main.c ****   hi2c1.Instance = I2C1;
 474:Core/Src/main.c ****   hi2c1.Init.Timing = 0x00503D58;
 475:Core/Src/main.c ****   hi2c1.Init.OwnAddress1 = 0;
 476:Core/Src/main.c ****   hi2c1.Init.AddressingMode = I2C_ADDRESSINGMODE_7BIT;
 477:Core/Src/main.c ****   hi2c1.Init.DualAddressMode = I2C_DUALADDRESS_DISABLE;
 478:Core/Src/main.c ****   hi2c1.Init.OwnAddress2 = 0;
 479:Core/Src/main.c ****   hi2c1.Init.OwnAddress2Masks = I2C_OA2_NOMASK;
 480:Core/Src/main.c ****   hi2c1.Init.GeneralCallMode = I2C_GENERALCALL_DISABLE;
 481:Core/Src/main.c ****   hi2c1.Init.NoStretchMode = I2C_NOSTRETCH_DISABLE;
 482:Core/Src/main.c ****   if (HAL_I2C_Init(&hi2c1) != HAL_OK)
 483:Core/Src/main.c ****   {
 484:Core/Src/main.c ****     Error_Handler();
 485:Core/Src/main.c ****   }
 486:Core/Src/main.c **** 
 487:Core/Src/main.c ****   /** Configure Analogue filter
ARM GAS  C:\Users\Ali\AppData\Local\Temp\ccanl3Qu.s 			page 10


 488:Core/Src/main.c ****   */
 489:Core/Src/main.c ****   if (HAL_I2CEx_ConfigAnalogFilter(&hi2c1, I2C_ANALOGFILTER_ENABLE) != HAL_OK)
 490:Core/Src/main.c ****   {
 491:Core/Src/main.c ****     Error_Handler();
 492:Core/Src/main.c ****   }
 493:Core/Src/main.c **** 
 494:Core/Src/main.c ****   /** Configure Digital filter
 495:Core/Src/main.c ****   */
 496:Core/Src/main.c ****   if (HAL_I2CEx_ConfigDigitalFilter(&hi2c1, 0) != HAL_OK)
 497:Core/Src/main.c ****   {
 498:Core/Src/main.c ****     Error_Handler();
 499:Core/Src/main.c ****   }
 500:Core/Src/main.c ****   /* USER CODE BEGIN I2C1_Init 2 */
 501:Core/Src/main.c **** 
 502:Core/Src/main.c ****   /* USER CODE END I2C1_Init 2 */
 503:Core/Src/main.c **** 
 504:Core/Src/main.c **** }
 505:Core/Src/main.c **** 
 506:Core/Src/main.c **** /**
 507:Core/Src/main.c ****   * @brief I2C3 Initialization Function
 508:Core/Src/main.c ****   * @param None
 509:Core/Src/main.c ****   * @retval None
 510:Core/Src/main.c ****   */
 511:Core/Src/main.c **** static void MX_I2C3_Init(void)
 512:Core/Src/main.c **** {
 513:Core/Src/main.c **** 
 514:Core/Src/main.c ****   /* USER CODE BEGIN I2C3_Init 0 */
 515:Core/Src/main.c **** 
 516:Core/Src/main.c ****   /* USER CODE END I2C3_Init 0 */
 517:Core/Src/main.c **** 
 518:Core/Src/main.c ****   /* USER CODE BEGIN I2C3_Init 1 */
 519:Core/Src/main.c **** 
 520:Core/Src/main.c ****   /* USER CODE END I2C3_Init 1 */
 521:Core/Src/main.c ****   hi2c3.Instance = I2C3;
 522:Core/Src/main.c ****   hi2c3.Init.Timing = 0x00503D58;
 523:Core/Src/main.c ****   hi2c3.Init.OwnAddress1 = 0;
 524:Core/Src/main.c ****   hi2c3.Init.AddressingMode = I2C_ADDRESSINGMODE_7BIT;
 525:Core/Src/main.c ****   hi2c3.Init.DualAddressMode = I2C_DUALADDRESS_DISABLE;
 526:Core/Src/main.c ****   hi2c3.Init.OwnAddress2 = 0;
 527:Core/Src/main.c ****   hi2c3.Init.OwnAddress2Masks = I2C_OA2_NOMASK;
 528:Core/Src/main.c ****   hi2c3.Init.GeneralCallMode = I2C_GENERALCALL_DISABLE;
 529:Core/Src/main.c ****   hi2c3.Init.NoStretchMode = I2C_NOSTRETCH_DISABLE;
 530:Core/Src/main.c ****   if (HAL_I2C_Init(&hi2c3) != HAL_OK)
 531:Core/Src/main.c ****   {
 532:Core/Src/main.c ****     Error_Handler();
 533:Core/Src/main.c ****   }
 534:Core/Src/main.c **** 
 535:Core/Src/main.c ****   /** Configure Analogue filter
 536:Core/Src/main.c ****   */
 537:Core/Src/main.c ****   if (HAL_I2CEx_ConfigAnalogFilter(&hi2c3, I2C_ANALOGFILTER_ENABLE) != HAL_OK)
 538:Core/Src/main.c ****   {
 539:Core/Src/main.c ****     Error_Handler();
 540:Core/Src/main.c ****   }
 541:Core/Src/main.c **** 
 542:Core/Src/main.c ****   /** Configure Digital filter
 543:Core/Src/main.c ****   */
 544:Core/Src/main.c ****   if (HAL_I2CEx_ConfigDigitalFilter(&hi2c3, 0) != HAL_OK)
ARM GAS  C:\Users\Ali\AppData\Local\Temp\ccanl3Qu.s 			page 11


 545:Core/Src/main.c ****   {
 546:Core/Src/main.c ****     Error_Handler();
 547:Core/Src/main.c ****   }
 548:Core/Src/main.c ****   /* USER CODE BEGIN I2C3_Init 2 */
 549:Core/Src/main.c **** 
 550:Core/Src/main.c ****   /* USER CODE END I2C3_Init 2 */
 551:Core/Src/main.c **** 
 552:Core/Src/main.c **** }
 553:Core/Src/main.c **** 
 554:Core/Src/main.c **** /**
 555:Core/Src/main.c ****   * @brief GPIO Initialization Function
 556:Core/Src/main.c ****   * @param None
 557:Core/Src/main.c ****   * @retval None
 558:Core/Src/main.c ****   */
 559:Core/Src/main.c **** static void MX_GPIO_Init(void)
 560:Core/Src/main.c **** {
  28              		.loc 1 560 1 view -0
  29              		.cfi_startproc
  30              		@ args = 0, pretend = 0, frame = 32
  31              		@ frame_needed = 0, uses_anonymous_args = 0
  32 0000 F0B5     		push	{r4, r5, r6, r7, lr}
  33              		.cfi_def_cfa_offset 20
  34              		.cfi_offset 4, -20
  35              		.cfi_offset 5, -16
  36              		.cfi_offset 6, -12
  37              		.cfi_offset 7, -8
  38              		.cfi_offset 14, -4
  39 0002 89B0     		sub	sp, sp, #36
  40              		.cfi_def_cfa_offset 56
 561:Core/Src/main.c ****   GPIO_InitTypeDef GPIO_InitStruct = {0};
  41              		.loc 1 561 3 view .LVU1
  42              		.loc 1 561 20 is_stmt 0 view .LVU2
  43 0004 03AD     		add	r5, sp, #12
  44 0006 0024     		movs	r4, #0
  45 0008 0394     		str	r4, [sp, #12]
  46 000a 0494     		str	r4, [sp, #16]
  47 000c 0594     		str	r4, [sp, #20]
  48 000e 0694     		str	r4, [sp, #24]
  49 0010 0794     		str	r4, [sp, #28]
 562:Core/Src/main.c ****   /* USER CODE BEGIN MX_GPIO_Init_1 */
 563:Core/Src/main.c **** 
 564:Core/Src/main.c ****   /* USER CODE END MX_GPIO_Init_1 */
 565:Core/Src/main.c **** 
 566:Core/Src/main.c ****   /* GPIO Ports Clock Enable */
 567:Core/Src/main.c ****   __HAL_RCC_GPIOA_CLK_ENABLE();
  50              		.loc 1 567 3 is_stmt 1 view .LVU3
  51              	.LBB9:
  52              		.loc 1 567 3 view .LVU4
  53              		.loc 1 567 3 view .LVU5
  54 0012 204B     		ldr	r3, .L3
  55 0014 DA6C     		ldr	r2, [r3, #76]
  56 0016 42F00102 		orr	r2, r2, #1
  57 001a DA64     		str	r2, [r3, #76]
  58              		.loc 1 567 3 view .LVU6
  59 001c DA6C     		ldr	r2, [r3, #76]
  60 001e 02F00102 		and	r2, r2, #1
  61 0022 0192     		str	r2, [sp, #4]
ARM GAS  C:\Users\Ali\AppData\Local\Temp\ccanl3Qu.s 			page 12


  62              		.loc 1 567 3 view .LVU7
  63 0024 019A     		ldr	r2, [sp, #4]
  64              	.LBE9:
  65              		.loc 1 567 3 view .LVU8
 568:Core/Src/main.c ****   __HAL_RCC_GPIOB_CLK_ENABLE();
  66              		.loc 1 568 3 view .LVU9
  67              	.LBB10:
  68              		.loc 1 568 3 view .LVU10
  69              		.loc 1 568 3 view .LVU11
  70 0026 DA6C     		ldr	r2, [r3, #76]
  71 0028 42F00202 		orr	r2, r2, #2
  72 002c DA64     		str	r2, [r3, #76]
  73              		.loc 1 568 3 view .LVU12
  74 002e DB6C     		ldr	r3, [r3, #76]
  75 0030 03F00203 		and	r3, r3, #2
  76 0034 0293     		str	r3, [sp, #8]
  77              		.loc 1 568 3 view .LVU13
  78 0036 029B     		ldr	r3, [sp, #8]
  79              	.LBE10:
  80              		.loc 1 568 3 view .LVU14
 569:Core/Src/main.c **** 
 570:Core/Src/main.c ****   /*Configure GPIO pin Output Level */
 571:Core/Src/main.c ****   HAL_GPIO_WritePin(GPIOB, MUX_SIG1_Pin|MUX_SIG3_Pin|BMS_RESET_Pin, GPIO_PIN_RESET);
  81              		.loc 1 571 3 view .LVU15
  82 0038 174E     		ldr	r6, .L3+4
  83 003a 2246     		mov	r2, r4
  84 003c 6221     		movs	r1, #98
  85 003e 3046     		mov	r0, r6
  86 0040 FFF7FEFF 		bl	HAL_GPIO_WritePin
  87              	.LVL0:
 572:Core/Src/main.c **** 
 573:Core/Src/main.c ****   /*Configure GPIO pin Output Level */
 574:Core/Src/main.c ****   HAL_GPIO_WritePin(MUX_SIG2_GPIO_Port, MUX_SIG2_Pin, GPIO_PIN_RESET);
  88              		.loc 1 574 3 view .LVU16
  89 0044 2246     		mov	r2, r4
  90 0046 4FF48071 		mov	r1, #256
  91 004a 4FF09040 		mov	r0, #1207959552
  92 004e FFF7FEFF 		bl	HAL_GPIO_WritePin
  93              	.LVL1:
 575:Core/Src/main.c **** 
 576:Core/Src/main.c ****   /*Configure GPIO pins : MUX_SIG1_Pin MUX_SIG3_Pin BMS_RESET_Pin */
 577:Core/Src/main.c ****   GPIO_InitStruct.Pin = MUX_SIG1_Pin|MUX_SIG3_Pin|BMS_RESET_Pin;
  94              		.loc 1 577 3 view .LVU17
  95              		.loc 1 577 23 is_stmt 0 view .LVU18
  96 0052 6223     		movs	r3, #98
  97 0054 0393     		str	r3, [sp, #12]
 578:Core/Src/main.c ****   GPIO_InitStruct.Mode = GPIO_MODE_OUTPUT_PP;
  98              		.loc 1 578 3 is_stmt 1 view .LVU19
  99              		.loc 1 578 24 is_stmt 0 view .LVU20
 100 0056 0127     		movs	r7, #1
 101 0058 0497     		str	r7, [sp, #16]
 579:Core/Src/main.c ****   GPIO_InitStruct.Pull = GPIO_NOPULL;
 102              		.loc 1 579 3 is_stmt 1 view .LVU21
 103              		.loc 1 579 24 is_stmt 0 view .LVU22
 104 005a 0594     		str	r4, [sp, #20]
 580:Core/Src/main.c ****   GPIO_InitStruct.Speed = GPIO_SPEED_FREQ_LOW;
 105              		.loc 1 580 3 is_stmt 1 view .LVU23
ARM GAS  C:\Users\Ali\AppData\Local\Temp\ccanl3Qu.s 			page 13


 106              		.loc 1 580 25 is_stmt 0 view .LVU24
 107 005c 0694     		str	r4, [sp, #24]
 581:Core/Src/main.c ****   HAL_GPIO_Init(GPIOB, &GPIO_InitStruct);
 108              		.loc 1 581 3 is_stmt 1 view .LVU25
 109 005e 2946     		mov	r1, r5
 110 0060 3046     		mov	r0, r6
 111 0062 FFF7FEFF 		bl	HAL_GPIO_Init
 112              	.LVL2:
 582:Core/Src/main.c **** 
 583:Core/Src/main.c ****   /*Configure GPIO pin : MUX_SIG2_Pin */
 584:Core/Src/main.c ****   GPIO_InitStruct.Pin = MUX_SIG2_Pin;
 113              		.loc 1 584 3 view .LVU26
 114              		.loc 1 584 23 is_stmt 0 view .LVU27
 115 0066 4FF48073 		mov	r3, #256
 116 006a 0393     		str	r3, [sp, #12]
 585:Core/Src/main.c ****   GPIO_InitStruct.Mode = GPIO_MODE_OUTPUT_PP;
 117              		.loc 1 585 3 is_stmt 1 view .LVU28
 118              		.loc 1 585 24 is_stmt 0 view .LVU29
 119 006c 0497     		str	r7, [sp, #16]
 586:Core/Src/main.c ****   GPIO_InitStruct.Pull = GPIO_NOPULL;
 120              		.loc 1 586 3 is_stmt 1 view .LVU30
 121              		.loc 1 586 24 is_stmt 0 view .LVU31
 122 006e 0594     		str	r4, [sp, #20]
 587:Core/Src/main.c ****   GPIO_InitStruct.Speed = GPIO_SPEED_FREQ_LOW;
 123              		.loc 1 587 3 is_stmt 1 view .LVU32
 124              		.loc 1 587 25 is_stmt 0 view .LVU33
 125 0070 0694     		str	r4, [sp, #24]
 588:Core/Src/main.c ****   HAL_GPIO_Init(MUX_SIG2_GPIO_Port, &GPIO_InitStruct);
 126              		.loc 1 588 3 is_stmt 1 view .LVU34
 127 0072 2946     		mov	r1, r5
 128 0074 4FF09040 		mov	r0, #1207959552
 129 0078 FFF7FEFF 		bl	HAL_GPIO_Init
 130              	.LVL3:
 589:Core/Src/main.c **** 
 590:Core/Src/main.c ****   /*Configure GPIO pin : ALERT_IN_Pin */
 591:Core/Src/main.c ****   GPIO_InitStruct.Pin = ALERT_IN_Pin;
 131              		.loc 1 591 3 view .LVU35
 132              		.loc 1 591 23 is_stmt 0 view .LVU36
 133 007c 8023     		movs	r3, #128
 134 007e 0393     		str	r3, [sp, #12]
 592:Core/Src/main.c ****   GPIO_InitStruct.Mode = GPIO_MODE_IT_RISING_FALLING;
 135              		.loc 1 592 3 is_stmt 1 view .LVU37
 136              		.loc 1 592 24 is_stmt 0 view .LVU38
 137 0080 4FF44413 		mov	r3, #3211264
 138 0084 0493     		str	r3, [sp, #16]
 593:Core/Src/main.c ****   GPIO_InitStruct.Pull = GPIO_NOPULL;
 139              		.loc 1 593 3 is_stmt 1 view .LVU39
 140              		.loc 1 593 24 is_stmt 0 view .LVU40
 141 0086 0594     		str	r4, [sp, #20]
 594:Core/Src/main.c ****   HAL_GPIO_Init(ALERT_IN_GPIO_Port, &GPIO_InitStruct);
 142              		.loc 1 594 3 is_stmt 1 view .LVU41
 143 0088 2946     		mov	r1, r5
 144 008a 3046     		mov	r0, r6
 145 008c FFF7FEFF 		bl	HAL_GPIO_Init
 146              	.LVL4:
 595:Core/Src/main.c **** 
 596:Core/Src/main.c ****   /* USER CODE BEGIN MX_GPIO_Init_2 */
ARM GAS  C:\Users\Ali\AppData\Local\Temp\ccanl3Qu.s 			page 14


 597:Core/Src/main.c **** 
 598:Core/Src/main.c ****   /* USER CODE END MX_GPIO_Init_2 */
 599:Core/Src/main.c **** }
 147              		.loc 1 599 1 is_stmt 0 view .LVU42
 148 0090 09B0     		add	sp, sp, #36
 149              		.cfi_def_cfa_offset 20
 150              		@ sp needed
 151 0092 F0BD     		pop	{r4, r5, r6, r7, pc}
 152              	.L4:
 153              		.align	2
 154              	.L3:
 155 0094 00100240 		.word	1073876992
 156 0098 00040048 		.word	1207960576
 157              		.cfi_endproc
 158              	.LFE299:
 160              		.section	.text.StartDefaultTask,"ax",%progbits
 161              		.align	1
 162              		.global	StartDefaultTask
 163              		.syntax unified
 164              		.thumb
 165              		.thumb_func
 167              	StartDefaultTask:
 168              	.LFB301:
 600:Core/Src/main.c **** 
 601:Core/Src/main.c **** /* USER CODE BEGIN 4 */
 602:Core/Src/main.c **** 
 603:Core/Src/main.c **** /**
 604:Core/Src/main.c ****   * @brief  Application malloc failed hook (FreeRTOS)
 605:Core/Src/main.c ****   * @retval None
 606:Core/Src/main.c ****   */
 607:Core/Src/main.c **** void vApplicationMallocFailedHook(void)
 608:Core/Src/main.c **** {
 609:Core/Src/main.c ****   /* Called if a call to pvPortMalloc() fails because there is insufficient
 610:Core/Src/main.c ****      free memory available in the FreeRTOS heap. This usually means the heap
 611:Core/Src/main.c ****      size is too small. Blink MUX_SIG1 rapidly to indicate heap failure. */
 612:Core/Src/main.c ****   taskDISABLE_INTERRUPTS();
 613:Core/Src/main.c ****   for(;;) {
 614:Core/Src/main.c ****     HAL_GPIO_TogglePin(GPIOB, MUX_SIG1_Pin);
 615:Core/Src/main.c ****     for(volatile uint32_t i = 0; i < 100000; i++);  // Busy wait
 616:Core/Src/main.c ****   }
 617:Core/Src/main.c **** }
 618:Core/Src/main.c **** 
 619:Core/Src/main.c **** /* USER CODE END 4 */
 620:Core/Src/main.c **** 
 621:Core/Src/main.c **** /* USER CODE BEGIN Header_StartDefaultTask */
 622:Core/Src/main.c **** /**
 623:Core/Src/main.c ****   * @brief  Function implementing the defaultTask thread.
 624:Core/Src/main.c ****   * @param  argument: Not used
 625:Core/Src/main.c ****   * @retval None
 626:Core/Src/main.c ****   */
 627:Core/Src/main.c **** /* USER CODE END Header_StartDefaultTask */
 628:Core/Src/main.c **** void StartDefaultTask(void *argument)
 629:Core/Src/main.c **** {
 169              		.loc 1 629 1 is_stmt 1 view -0
 170              		.cfi_startproc
 171              		@ Volatile: function does not return.
 172              		@ args = 0, pretend = 0, frame = 0
ARM GAS  C:\Users\Ali\AppData\Local\Temp\ccanl3Qu.s 			page 15


 173              		@ frame_needed = 0, uses_anonymous_args = 0
 174              	.LVL5:
 175              		.loc 1 629 1 is_stmt 0 view .LVU44
 176 0000 08B5     		push	{r3, lr}
 177              		.cfi_def_cfa_offset 8
 178              		.cfi_offset 3, -8
 179              		.cfi_offset 14, -4
 180              	.LVL6:
 181              	.L6:
 630:Core/Src/main.c ****   /* USER CODE BEGIN 5 */
 631:Core/Src/main.c ****   /* Infinite loop */
 632:Core/Src/main.c ****   for(;;)
 182              		.loc 1 632 3 is_stmt 1 view .LVU45
 633:Core/Src/main.c ****   {
 634:Core/Src/main.c ****     osDelay(1);
 183              		.loc 1 634 5 discriminator 1 view .LVU46
 184 0002 0120     		movs	r0, #1
 185 0004 FFF7FEFF 		bl	osDelay
 186              	.LVL7:
 632:Core/Src/main.c ****   {
 187              		.loc 1 632 3 view .LVU47
 188 0008 FBE7     		b	.L6
 189              		.cfi_endproc
 190              	.LFE301:
 192              		.section	.text.ReadCellVoltage,"ax",%progbits
 193              		.align	1
 194              		.global	ReadCellVoltage
 195              		.syntax unified
 196              		.thumb
 197              		.thumb_func
 199              	ReadCellVoltage:
 200              	.LFB302:
 635:Core/Src/main.c ****   }
 636:Core/Src/main.c ****   /* USER CODE END 5 */
 637:Core/Src/main.c **** }
 638:Core/Src/main.c **** 
 639:Core/Src/main.c **** /* USER CODE BEGIN Header_ReadCellVoltage */
 640:Core/Src/main.c **** /**
 641:Core/Src/main.c **** * @brief Function implementing the CellVoltage thread.
 642:Core/Src/main.c **** * @param argument: Not used
 643:Core/Src/main.c **** * @retval None
 644:Core/Src/main.c **** */
 645:Core/Src/main.c **** /* USER CODE END Header_ReadCellVoltage */
 646:Core/Src/main.c **** void ReadCellVoltage(void *argument)
 647:Core/Src/main.c **** {
 201              		.loc 1 647 1 view -0
 202              		.cfi_startproc
 203              		@ Volatile: function does not return.
 204              		@ args = 0, pretend = 0, frame = 0
 205              		@ frame_needed = 0, uses_anonymous_args = 0
 206              	.LVL8:
 207              		.loc 1 647 1 is_stmt 0 view .LVU49
 208 0000 08B5     		push	{r3, lr}
 209              		.cfi_def_cfa_offset 8
 210              		.cfi_offset 3, -8
 211              		.cfi_offset 14, -4
 212              	.LVL9:
ARM GAS  C:\Users\Ali\AppData\Local\Temp\ccanl3Qu.s 			page 16


 213              	.L9:
 648:Core/Src/main.c ****   /* USER CODE BEGIN ReadCellVoltage */
 649:Core/Src/main.c ****   /* Infinite loop */
 650:Core/Src/main.c ****   for(;;)
 214              		.loc 1 650 3 is_stmt 1 view .LVU50
 651:Core/Src/main.c ****   {
 652:Core/Src/main.c ****     osDelay(1);
 215              		.loc 1 652 5 discriminator 1 view .LVU51
 216 0002 0120     		movs	r0, #1
 217 0004 FFF7FEFF 		bl	osDelay
 218              	.LVL10:
 650:Core/Src/main.c ****   {
 219              		.loc 1 650 3 view .LVU52
 220 0008 FBE7     		b	.L9
 221              		.cfi_endproc
 222              	.LFE302:
 224              		.section	.text.ReadCellTemps,"ax",%progbits
 225              		.align	1
 226              		.global	ReadCellTemps
 227              		.syntax unified
 228              		.thumb
 229              		.thumb_func
 231              	ReadCellTemps:
 232              	.LVL11:
 233              	.LFB303:
 653:Core/Src/main.c ****   }
 654:Core/Src/main.c ****   /* USER CODE END ReadCellVoltage */
 655:Core/Src/main.c **** }
 656:Core/Src/main.c **** 
 657:Core/Src/main.c **** /* USER CODE BEGIN Header_ReadCellTemps */
 658:Core/Src/main.c **** /**
 659:Core/Src/main.c **** * @brief Function implementing the CellTemperature thread.
 660:Core/Src/main.c **** * @param argument: Not used
 661:Core/Src/main.c **** * @retval None
 662:Core/Src/main.c **** */
 663:Core/Src/main.c **** /* USER CODE END Header_ReadCellTemps */
 664:Core/Src/main.c **** void ReadCellTemps(void *argument)
 665:Core/Src/main.c **** {
 234              		.loc 1 665 1 view -0
 235              		.cfi_startproc
 236              		@ args = 0, pretend = 0, frame = 0
 237              		@ frame_needed = 0, uses_anonymous_args = 0
 238              		.loc 1 665 1 is_stmt 0 view .LVU54
 239 0000 08B5     		push	{r3, lr}
 240              		.cfi_def_cfa_offset 8
 241              		.cfi_offset 3, -8
 242              		.cfi_offset 14, -4
 666:Core/Src/main.c ****   /* USER CODE BEGIN ReadCellTemps */
 667:Core/Src/main.c ****   /* Call the cell temperature monitoring task */
 668:Core/Src/main.c ****   CellTemp_MonitorTask(argument);
 243              		.loc 1 668 3 is_stmt 1 view .LVU55
 244 0002 FFF7FEFF 		bl	CellTemp_MonitorTask
 245              	.LVL12:
 669:Core/Src/main.c ****   /* USER CODE END ReadCellTemps */
 670:Core/Src/main.c **** }
 246              		.loc 1 670 1 is_stmt 0 view .LVU56
 247 0006 08BD     		pop	{r3, pc}
ARM GAS  C:\Users\Ali\AppData\Local\Temp\ccanl3Qu.s 			page 17


 248              		.cfi_endproc
 249              	.LFE303:
 251              		.section	.text.vApplicationMallocFailedHook,"ax",%progbits
 252              		.align	1
 253              		.global	vApplicationMallocFailedHook
 254              		.syntax unified
 255              		.thumb
 256              		.thumb_func
 258              	vApplicationMallocFailedHook:
 259              	.LFB300:
 608:Core/Src/main.c ****   /* Called if a call to pvPortMalloc() fails because there is insufficient
 260              		.loc 1 608 1 is_stmt 1 view -0
 261              		.cfi_startproc
 262              		@ Volatile: function does not return.
 263              		@ args = 0, pretend = 0, frame = 8
 264              		@ frame_needed = 0, uses_anonymous_args = 0
 265 0000 00B5     		push	{lr}
 266              		.cfi_def_cfa_offset 4
 267              		.cfi_offset 14, -4
 268 0002 83B0     		sub	sp, sp, #12
 269              		.cfi_def_cfa_offset 16
 612:Core/Src/main.c ****   for(;;) {
 270              		.loc 1 612 3 view .LVU58
 271              	.LBB11:
 272              	.LBI11:
 273              		.file 2 "Middlewares/Third_Party/FreeRTOS/Source/portable/GCC/ARM_CM4F/portmacro.h"
   1:Middlewares/Third_Party/FreeRTOS/Source/portable/GCC/ARM_CM4F/portmacro.h **** /*
   2:Middlewares/Third_Party/FreeRTOS/Source/portable/GCC/ARM_CM4F/portmacro.h ****  * FreeRTOS Kernel V10.3.1
   3:Middlewares/Third_Party/FreeRTOS/Source/portable/GCC/ARM_CM4F/portmacro.h ****  * Copyright (C) 2020 Amazon.com, Inc. or its affiliates.  All Rights Reserved.
   4:Middlewares/Third_Party/FreeRTOS/Source/portable/GCC/ARM_CM4F/portmacro.h ****  *
   5:Middlewares/Third_Party/FreeRTOS/Source/portable/GCC/ARM_CM4F/portmacro.h ****  * Permission is hereby granted, free of charge, to any person obtaining a copy of
   6:Middlewares/Third_Party/FreeRTOS/Source/portable/GCC/ARM_CM4F/portmacro.h ****  * this software and associated documentation files (the "Software"), to deal in
   7:Middlewares/Third_Party/FreeRTOS/Source/portable/GCC/ARM_CM4F/portmacro.h ****  * the Software without restriction, including without limitation the rights to
   8:Middlewares/Third_Party/FreeRTOS/Source/portable/GCC/ARM_CM4F/portmacro.h ****  * use, copy, modify, merge, publish, distribute, sublicense, and/or sell copies of
   9:Middlewares/Third_Party/FreeRTOS/Source/portable/GCC/ARM_CM4F/portmacro.h ****  * the Software, and to permit persons to whom the Software is furnished to do so,
  10:Middlewares/Third_Party/FreeRTOS/Source/portable/GCC/ARM_CM4F/portmacro.h ****  * subject to the following conditions:
  11:Middlewares/Third_Party/FreeRTOS/Source/portable/GCC/ARM_CM4F/portmacro.h ****  *
  12:Middlewares/Third_Party/FreeRTOS/Source/portable/GCC/ARM_CM4F/portmacro.h ****  * The above copyright notice and this permission notice shall be included in all
  13:Middlewares/Third_Party/FreeRTOS/Source/portable/GCC/ARM_CM4F/portmacro.h ****  * copies or substantial portions of the Software.
  14:Middlewares/Third_Party/FreeRTOS/Source/portable/GCC/ARM_CM4F/portmacro.h ****  *
  15:Middlewares/Third_Party/FreeRTOS/Source/portable/GCC/ARM_CM4F/portmacro.h ****  * THE SOFTWARE IS PROVIDED "AS IS", WITHOUT WARRANTY OF ANY KIND, EXPRESS OR
  16:Middlewares/Third_Party/FreeRTOS/Source/portable/GCC/ARM_CM4F/portmacro.h ****  * IMPLIED, INCLUDING BUT NOT LIMITED TO THE WARRANTIES OF MERCHANTABILITY, FITNESS
  17:Middlewares/Third_Party/FreeRTOS/Source/portable/GCC/ARM_CM4F/portmacro.h ****  * FOR A PARTICULAR PURPOSE AND NONINFRINGEMENT. IN NO EVENT SHALL THE AUTHORS OR
  18:Middlewares/Third_Party/FreeRTOS/Source/portable/GCC/ARM_CM4F/portmacro.h ****  * COPYRIGHT HOLDERS BE LIABLE FOR ANY CLAIM, DAMAGES OR OTHER LIABILITY, WHETHER
  19:Middlewares/Third_Party/FreeRTOS/Source/portable/GCC/ARM_CM4F/portmacro.h ****  * IN AN ACTION OF CONTRACT, TORT OR OTHERWISE, ARISING FROM, OUT OF OR IN
  20:Middlewares/Third_Party/FreeRTOS/Source/portable/GCC/ARM_CM4F/portmacro.h ****  * CONNECTION WITH THE SOFTWARE OR THE USE OR OTHER DEALINGS IN THE SOFTWARE.
  21:Middlewares/Third_Party/FreeRTOS/Source/portable/GCC/ARM_CM4F/portmacro.h ****  *
  22:Middlewares/Third_Party/FreeRTOS/Source/portable/GCC/ARM_CM4F/portmacro.h ****  * http://www.FreeRTOS.org
  23:Middlewares/Third_Party/FreeRTOS/Source/portable/GCC/ARM_CM4F/portmacro.h ****  * http://aws.amazon.com/freertos
  24:Middlewares/Third_Party/FreeRTOS/Source/portable/GCC/ARM_CM4F/portmacro.h ****  *
  25:Middlewares/Third_Party/FreeRTOS/Source/portable/GCC/ARM_CM4F/portmacro.h ****  * 1 tab == 4 spaces!
  26:Middlewares/Third_Party/FreeRTOS/Source/portable/GCC/ARM_CM4F/portmacro.h ****  */
  27:Middlewares/Third_Party/FreeRTOS/Source/portable/GCC/ARM_CM4F/portmacro.h **** 
  28:Middlewares/Third_Party/FreeRTOS/Source/portable/GCC/ARM_CM4F/portmacro.h **** 
  29:Middlewares/Third_Party/FreeRTOS/Source/portable/GCC/ARM_CM4F/portmacro.h **** #ifndef PORTMACRO_H
  30:Middlewares/Third_Party/FreeRTOS/Source/portable/GCC/ARM_CM4F/portmacro.h **** #define PORTMACRO_H
  31:Middlewares/Third_Party/FreeRTOS/Source/portable/GCC/ARM_CM4F/portmacro.h **** 
ARM GAS  C:\Users\Ali\AppData\Local\Temp\ccanl3Qu.s 			page 18


  32:Middlewares/Third_Party/FreeRTOS/Source/portable/GCC/ARM_CM4F/portmacro.h **** #ifdef __cplusplus
  33:Middlewares/Third_Party/FreeRTOS/Source/portable/GCC/ARM_CM4F/portmacro.h **** extern "C" {
  34:Middlewares/Third_Party/FreeRTOS/Source/portable/GCC/ARM_CM4F/portmacro.h **** #endif
  35:Middlewares/Third_Party/FreeRTOS/Source/portable/GCC/ARM_CM4F/portmacro.h **** 
  36:Middlewares/Third_Party/FreeRTOS/Source/portable/GCC/ARM_CM4F/portmacro.h **** /*-----------------------------------------------------------
  37:Middlewares/Third_Party/FreeRTOS/Source/portable/GCC/ARM_CM4F/portmacro.h ****  * Port specific definitions.
  38:Middlewares/Third_Party/FreeRTOS/Source/portable/GCC/ARM_CM4F/portmacro.h ****  *
  39:Middlewares/Third_Party/FreeRTOS/Source/portable/GCC/ARM_CM4F/portmacro.h ****  * The settings in this file configure FreeRTOS correctly for the
  40:Middlewares/Third_Party/FreeRTOS/Source/portable/GCC/ARM_CM4F/portmacro.h ****  * given hardware and compiler.
  41:Middlewares/Third_Party/FreeRTOS/Source/portable/GCC/ARM_CM4F/portmacro.h ****  *
  42:Middlewares/Third_Party/FreeRTOS/Source/portable/GCC/ARM_CM4F/portmacro.h ****  * These settings should not be altered.
  43:Middlewares/Third_Party/FreeRTOS/Source/portable/GCC/ARM_CM4F/portmacro.h ****  *-----------------------------------------------------------
  44:Middlewares/Third_Party/FreeRTOS/Source/portable/GCC/ARM_CM4F/portmacro.h ****  */
  45:Middlewares/Third_Party/FreeRTOS/Source/portable/GCC/ARM_CM4F/portmacro.h **** 
  46:Middlewares/Third_Party/FreeRTOS/Source/portable/GCC/ARM_CM4F/portmacro.h **** /* Type definitions. */
  47:Middlewares/Third_Party/FreeRTOS/Source/portable/GCC/ARM_CM4F/portmacro.h **** #define portCHAR		char
  48:Middlewares/Third_Party/FreeRTOS/Source/portable/GCC/ARM_CM4F/portmacro.h **** #define portFLOAT		float
  49:Middlewares/Third_Party/FreeRTOS/Source/portable/GCC/ARM_CM4F/portmacro.h **** #define portDOUBLE		double
  50:Middlewares/Third_Party/FreeRTOS/Source/portable/GCC/ARM_CM4F/portmacro.h **** #define portLONG		long
  51:Middlewares/Third_Party/FreeRTOS/Source/portable/GCC/ARM_CM4F/portmacro.h **** #define portSHORT		short
  52:Middlewares/Third_Party/FreeRTOS/Source/portable/GCC/ARM_CM4F/portmacro.h **** #define portSTACK_TYPE	uint32_t
  53:Middlewares/Third_Party/FreeRTOS/Source/portable/GCC/ARM_CM4F/portmacro.h **** #define portBASE_TYPE	long
  54:Middlewares/Third_Party/FreeRTOS/Source/portable/GCC/ARM_CM4F/portmacro.h **** 
  55:Middlewares/Third_Party/FreeRTOS/Source/portable/GCC/ARM_CM4F/portmacro.h **** typedef portSTACK_TYPE StackType_t;
  56:Middlewares/Third_Party/FreeRTOS/Source/portable/GCC/ARM_CM4F/portmacro.h **** typedef long BaseType_t;
  57:Middlewares/Third_Party/FreeRTOS/Source/portable/GCC/ARM_CM4F/portmacro.h **** typedef unsigned long UBaseType_t;
  58:Middlewares/Third_Party/FreeRTOS/Source/portable/GCC/ARM_CM4F/portmacro.h **** 
  59:Middlewares/Third_Party/FreeRTOS/Source/portable/GCC/ARM_CM4F/portmacro.h **** #if( configUSE_16_BIT_TICKS == 1 )
  60:Middlewares/Third_Party/FreeRTOS/Source/portable/GCC/ARM_CM4F/portmacro.h **** 	typedef uint16_t TickType_t;
  61:Middlewares/Third_Party/FreeRTOS/Source/portable/GCC/ARM_CM4F/portmacro.h **** 	#define portMAX_DELAY ( TickType_t ) 0xffff
  62:Middlewares/Third_Party/FreeRTOS/Source/portable/GCC/ARM_CM4F/portmacro.h **** #else
  63:Middlewares/Third_Party/FreeRTOS/Source/portable/GCC/ARM_CM4F/portmacro.h **** 	typedef uint32_t TickType_t;
  64:Middlewares/Third_Party/FreeRTOS/Source/portable/GCC/ARM_CM4F/portmacro.h **** 	#define portMAX_DELAY ( TickType_t ) 0xffffffffUL
  65:Middlewares/Third_Party/FreeRTOS/Source/portable/GCC/ARM_CM4F/portmacro.h **** 
  66:Middlewares/Third_Party/FreeRTOS/Source/portable/GCC/ARM_CM4F/portmacro.h **** 	/* 32-bit tick type on a 32-bit architecture, so reads of the tick count do
  67:Middlewares/Third_Party/FreeRTOS/Source/portable/GCC/ARM_CM4F/portmacro.h **** 	not need to be guarded with a critical section. */
  68:Middlewares/Third_Party/FreeRTOS/Source/portable/GCC/ARM_CM4F/portmacro.h **** 	#define portTICK_TYPE_IS_ATOMIC 1
  69:Middlewares/Third_Party/FreeRTOS/Source/portable/GCC/ARM_CM4F/portmacro.h **** #endif
  70:Middlewares/Third_Party/FreeRTOS/Source/portable/GCC/ARM_CM4F/portmacro.h **** /*-----------------------------------------------------------*/
  71:Middlewares/Third_Party/FreeRTOS/Source/portable/GCC/ARM_CM4F/portmacro.h **** 
  72:Middlewares/Third_Party/FreeRTOS/Source/portable/GCC/ARM_CM4F/portmacro.h **** /* Architecture specifics. */
  73:Middlewares/Third_Party/FreeRTOS/Source/portable/GCC/ARM_CM4F/portmacro.h **** #define portSTACK_GROWTH			( -1 )
  74:Middlewares/Third_Party/FreeRTOS/Source/portable/GCC/ARM_CM4F/portmacro.h **** #define portTICK_PERIOD_MS			( ( TickType_t ) 1000 / configTICK_RATE_HZ )
  75:Middlewares/Third_Party/FreeRTOS/Source/portable/GCC/ARM_CM4F/portmacro.h **** #define portBYTE_ALIGNMENT			8
  76:Middlewares/Third_Party/FreeRTOS/Source/portable/GCC/ARM_CM4F/portmacro.h **** /*-----------------------------------------------------------*/
  77:Middlewares/Third_Party/FreeRTOS/Source/portable/GCC/ARM_CM4F/portmacro.h **** 
  78:Middlewares/Third_Party/FreeRTOS/Source/portable/GCC/ARM_CM4F/portmacro.h **** /* Scheduler utilities. */
  79:Middlewares/Third_Party/FreeRTOS/Source/portable/GCC/ARM_CM4F/portmacro.h **** #define portYIELD() 															\
  80:Middlewares/Third_Party/FreeRTOS/Source/portable/GCC/ARM_CM4F/portmacro.h **** {																				\
  81:Middlewares/Third_Party/FreeRTOS/Source/portable/GCC/ARM_CM4F/portmacro.h **** 	/* Set a PendSV to request a context switch. */								\
  82:Middlewares/Third_Party/FreeRTOS/Source/portable/GCC/ARM_CM4F/portmacro.h **** 	portNVIC_INT_CTRL_REG = portNVIC_PENDSVSET_BIT;								\
  83:Middlewares/Third_Party/FreeRTOS/Source/portable/GCC/ARM_CM4F/portmacro.h **** 																				\
  84:Middlewares/Third_Party/FreeRTOS/Source/portable/GCC/ARM_CM4F/portmacro.h **** 	/* Barriers are normally not required but do ensure the code is completely	\
  85:Middlewares/Third_Party/FreeRTOS/Source/portable/GCC/ARM_CM4F/portmacro.h **** 	within the specified behaviour for the architecture. */						\
  86:Middlewares/Third_Party/FreeRTOS/Source/portable/GCC/ARM_CM4F/portmacro.h **** 	__asm volatile( "dsb" ::: "memory" );										\
  87:Middlewares/Third_Party/FreeRTOS/Source/portable/GCC/ARM_CM4F/portmacro.h **** 	__asm volatile( "isb" );													\
  88:Middlewares/Third_Party/FreeRTOS/Source/portable/GCC/ARM_CM4F/portmacro.h **** }
ARM GAS  C:\Users\Ali\AppData\Local\Temp\ccanl3Qu.s 			page 19


  89:Middlewares/Third_Party/FreeRTOS/Source/portable/GCC/ARM_CM4F/portmacro.h **** 
  90:Middlewares/Third_Party/FreeRTOS/Source/portable/GCC/ARM_CM4F/portmacro.h **** #define portNVIC_INT_CTRL_REG		( * ( ( volatile uint32_t * ) 0xe000ed04 ) )
  91:Middlewares/Third_Party/FreeRTOS/Source/portable/GCC/ARM_CM4F/portmacro.h **** #define portNVIC_PENDSVSET_BIT		( 1UL << 28UL )
  92:Middlewares/Third_Party/FreeRTOS/Source/portable/GCC/ARM_CM4F/portmacro.h **** #define portEND_SWITCHING_ISR( xSwitchRequired ) if( xSwitchRequired != pdFALSE ) portYIELD()
  93:Middlewares/Third_Party/FreeRTOS/Source/portable/GCC/ARM_CM4F/portmacro.h **** #define portYIELD_FROM_ISR( x ) portEND_SWITCHING_ISR( x )
  94:Middlewares/Third_Party/FreeRTOS/Source/portable/GCC/ARM_CM4F/portmacro.h **** /*-----------------------------------------------------------*/
  95:Middlewares/Third_Party/FreeRTOS/Source/portable/GCC/ARM_CM4F/portmacro.h **** 
  96:Middlewares/Third_Party/FreeRTOS/Source/portable/GCC/ARM_CM4F/portmacro.h **** /* Critical section management. */
  97:Middlewares/Third_Party/FreeRTOS/Source/portable/GCC/ARM_CM4F/portmacro.h **** extern void vPortEnterCritical( void );
  98:Middlewares/Third_Party/FreeRTOS/Source/portable/GCC/ARM_CM4F/portmacro.h **** extern void vPortExitCritical( void );
  99:Middlewares/Third_Party/FreeRTOS/Source/portable/GCC/ARM_CM4F/portmacro.h **** #define portSET_INTERRUPT_MASK_FROM_ISR()		ulPortRaiseBASEPRI()
 100:Middlewares/Third_Party/FreeRTOS/Source/portable/GCC/ARM_CM4F/portmacro.h **** #define portCLEAR_INTERRUPT_MASK_FROM_ISR(x)	vPortSetBASEPRI(x)
 101:Middlewares/Third_Party/FreeRTOS/Source/portable/GCC/ARM_CM4F/portmacro.h **** #define portDISABLE_INTERRUPTS()				vPortRaiseBASEPRI()
 102:Middlewares/Third_Party/FreeRTOS/Source/portable/GCC/ARM_CM4F/portmacro.h **** #define portENABLE_INTERRUPTS()					vPortSetBASEPRI(0)
 103:Middlewares/Third_Party/FreeRTOS/Source/portable/GCC/ARM_CM4F/portmacro.h **** #define portENTER_CRITICAL()					vPortEnterCritical()
 104:Middlewares/Third_Party/FreeRTOS/Source/portable/GCC/ARM_CM4F/portmacro.h **** #define portEXIT_CRITICAL()						vPortExitCritical()
 105:Middlewares/Third_Party/FreeRTOS/Source/portable/GCC/ARM_CM4F/portmacro.h **** 
 106:Middlewares/Third_Party/FreeRTOS/Source/portable/GCC/ARM_CM4F/portmacro.h **** /*-----------------------------------------------------------*/
 107:Middlewares/Third_Party/FreeRTOS/Source/portable/GCC/ARM_CM4F/portmacro.h **** 
 108:Middlewares/Third_Party/FreeRTOS/Source/portable/GCC/ARM_CM4F/portmacro.h **** /* Task function macros as described on the FreeRTOS.org WEB site.  These are
 109:Middlewares/Third_Party/FreeRTOS/Source/portable/GCC/ARM_CM4F/portmacro.h **** not necessary for to use this port.  They are defined so the common demo files
 110:Middlewares/Third_Party/FreeRTOS/Source/portable/GCC/ARM_CM4F/portmacro.h **** (which build with all the ports) will build. */
 111:Middlewares/Third_Party/FreeRTOS/Source/portable/GCC/ARM_CM4F/portmacro.h **** #define portTASK_FUNCTION_PROTO( vFunction, pvParameters ) void vFunction( void *pvParameters )
 112:Middlewares/Third_Party/FreeRTOS/Source/portable/GCC/ARM_CM4F/portmacro.h **** #define portTASK_FUNCTION( vFunction, pvParameters ) void vFunction( void *pvParameters )
 113:Middlewares/Third_Party/FreeRTOS/Source/portable/GCC/ARM_CM4F/portmacro.h **** /*-----------------------------------------------------------*/
 114:Middlewares/Third_Party/FreeRTOS/Source/portable/GCC/ARM_CM4F/portmacro.h **** 
 115:Middlewares/Third_Party/FreeRTOS/Source/portable/GCC/ARM_CM4F/portmacro.h **** /* Tickless idle/low power functionality. */
 116:Middlewares/Third_Party/FreeRTOS/Source/portable/GCC/ARM_CM4F/portmacro.h **** #ifndef portSUPPRESS_TICKS_AND_SLEEP
 117:Middlewares/Third_Party/FreeRTOS/Source/portable/GCC/ARM_CM4F/portmacro.h **** 	extern void vPortSuppressTicksAndSleep( TickType_t xExpectedIdleTime );
 118:Middlewares/Third_Party/FreeRTOS/Source/portable/GCC/ARM_CM4F/portmacro.h **** 	#define portSUPPRESS_TICKS_AND_SLEEP( xExpectedIdleTime ) vPortSuppressTicksAndSleep( xExpectedIdl
 119:Middlewares/Third_Party/FreeRTOS/Source/portable/GCC/ARM_CM4F/portmacro.h **** #endif
 120:Middlewares/Third_Party/FreeRTOS/Source/portable/GCC/ARM_CM4F/portmacro.h **** /*-----------------------------------------------------------*/
 121:Middlewares/Third_Party/FreeRTOS/Source/portable/GCC/ARM_CM4F/portmacro.h **** 
 122:Middlewares/Third_Party/FreeRTOS/Source/portable/GCC/ARM_CM4F/portmacro.h **** /* Architecture specific optimisations. */
 123:Middlewares/Third_Party/FreeRTOS/Source/portable/GCC/ARM_CM4F/portmacro.h **** #ifndef configUSE_PORT_OPTIMISED_TASK_SELECTION
 124:Middlewares/Third_Party/FreeRTOS/Source/portable/GCC/ARM_CM4F/portmacro.h **** 	#define configUSE_PORT_OPTIMISED_TASK_SELECTION 1
 125:Middlewares/Third_Party/FreeRTOS/Source/portable/GCC/ARM_CM4F/portmacro.h **** #endif
 126:Middlewares/Third_Party/FreeRTOS/Source/portable/GCC/ARM_CM4F/portmacro.h **** 
 127:Middlewares/Third_Party/FreeRTOS/Source/portable/GCC/ARM_CM4F/portmacro.h **** #if configUSE_PORT_OPTIMISED_TASK_SELECTION == 1
 128:Middlewares/Third_Party/FreeRTOS/Source/portable/GCC/ARM_CM4F/portmacro.h **** 
 129:Middlewares/Third_Party/FreeRTOS/Source/portable/GCC/ARM_CM4F/portmacro.h **** 	/* Generic helper function. */
 130:Middlewares/Third_Party/FreeRTOS/Source/portable/GCC/ARM_CM4F/portmacro.h **** 	__attribute__( ( always_inline ) ) static inline uint8_t ucPortCountLeadingZeros( uint32_t ulBitma
 131:Middlewares/Third_Party/FreeRTOS/Source/portable/GCC/ARM_CM4F/portmacro.h **** 	{
 132:Middlewares/Third_Party/FreeRTOS/Source/portable/GCC/ARM_CM4F/portmacro.h **** 	uint8_t ucReturn;
 133:Middlewares/Third_Party/FreeRTOS/Source/portable/GCC/ARM_CM4F/portmacro.h **** 
 134:Middlewares/Third_Party/FreeRTOS/Source/portable/GCC/ARM_CM4F/portmacro.h **** 		__asm volatile ( "clz %0, %1" : "=r" ( ucReturn ) : "r" ( ulBitmap ) : "memory" );
 135:Middlewares/Third_Party/FreeRTOS/Source/portable/GCC/ARM_CM4F/portmacro.h **** 		return ucReturn;
 136:Middlewares/Third_Party/FreeRTOS/Source/portable/GCC/ARM_CM4F/portmacro.h **** 	}
 137:Middlewares/Third_Party/FreeRTOS/Source/portable/GCC/ARM_CM4F/portmacro.h **** 
 138:Middlewares/Third_Party/FreeRTOS/Source/portable/GCC/ARM_CM4F/portmacro.h **** 	/* Check the configuration. */
 139:Middlewares/Third_Party/FreeRTOS/Source/portable/GCC/ARM_CM4F/portmacro.h **** 	#if( configMAX_PRIORITIES > 32 )
 140:Middlewares/Third_Party/FreeRTOS/Source/portable/GCC/ARM_CM4F/portmacro.h **** 		#error configUSE_PORT_OPTIMISED_TASK_SELECTION can only be set to 1 when configMAX_PRIORITIES is 
 141:Middlewares/Third_Party/FreeRTOS/Source/portable/GCC/ARM_CM4F/portmacro.h **** 	#endif
 142:Middlewares/Third_Party/FreeRTOS/Source/portable/GCC/ARM_CM4F/portmacro.h **** 
 143:Middlewares/Third_Party/FreeRTOS/Source/portable/GCC/ARM_CM4F/portmacro.h **** 	/* Store/clear the ready priorities in a bit map. */
 144:Middlewares/Third_Party/FreeRTOS/Source/portable/GCC/ARM_CM4F/portmacro.h **** 	#define portRECORD_READY_PRIORITY( uxPriority, uxReadyPriorities ) ( uxReadyPriorities ) |= ( 1UL 
 145:Middlewares/Third_Party/FreeRTOS/Source/portable/GCC/ARM_CM4F/portmacro.h **** 	#define portRESET_READY_PRIORITY( uxPriority, uxReadyPriorities ) ( uxReadyPriorities ) &= ~( 1UL 
ARM GAS  C:\Users\Ali\AppData\Local\Temp\ccanl3Qu.s 			page 20


 146:Middlewares/Third_Party/FreeRTOS/Source/portable/GCC/ARM_CM4F/portmacro.h **** 
 147:Middlewares/Third_Party/FreeRTOS/Source/portable/GCC/ARM_CM4F/portmacro.h **** 	/*-----------------------------------------------------------*/
 148:Middlewares/Third_Party/FreeRTOS/Source/portable/GCC/ARM_CM4F/portmacro.h **** 
 149:Middlewares/Third_Party/FreeRTOS/Source/portable/GCC/ARM_CM4F/portmacro.h **** 	#define portGET_HIGHEST_PRIORITY( uxTopPriority, uxReadyPriorities ) uxTopPriority = ( 31UL - ( ui
 150:Middlewares/Third_Party/FreeRTOS/Source/portable/GCC/ARM_CM4F/portmacro.h **** 
 151:Middlewares/Third_Party/FreeRTOS/Source/portable/GCC/ARM_CM4F/portmacro.h **** #endif /* configUSE_PORT_OPTIMISED_TASK_SELECTION */
 152:Middlewares/Third_Party/FreeRTOS/Source/portable/GCC/ARM_CM4F/portmacro.h **** 
 153:Middlewares/Third_Party/FreeRTOS/Source/portable/GCC/ARM_CM4F/portmacro.h **** /*-----------------------------------------------------------*/
 154:Middlewares/Third_Party/FreeRTOS/Source/portable/GCC/ARM_CM4F/portmacro.h **** 
 155:Middlewares/Third_Party/FreeRTOS/Source/portable/GCC/ARM_CM4F/portmacro.h **** #ifdef configASSERT
 156:Middlewares/Third_Party/FreeRTOS/Source/portable/GCC/ARM_CM4F/portmacro.h **** 	void vPortValidateInterruptPriority( void );
 157:Middlewares/Third_Party/FreeRTOS/Source/portable/GCC/ARM_CM4F/portmacro.h **** 	#define portASSERT_IF_INTERRUPT_PRIORITY_INVALID() 	vPortValidateInterruptPriority()
 158:Middlewares/Third_Party/FreeRTOS/Source/portable/GCC/ARM_CM4F/portmacro.h **** #endif
 159:Middlewares/Third_Party/FreeRTOS/Source/portable/GCC/ARM_CM4F/portmacro.h **** 
 160:Middlewares/Third_Party/FreeRTOS/Source/portable/GCC/ARM_CM4F/portmacro.h **** /* portNOP() is not required by this port. */
 161:Middlewares/Third_Party/FreeRTOS/Source/portable/GCC/ARM_CM4F/portmacro.h **** #define portNOP()
 162:Middlewares/Third_Party/FreeRTOS/Source/portable/GCC/ARM_CM4F/portmacro.h **** 
 163:Middlewares/Third_Party/FreeRTOS/Source/portable/GCC/ARM_CM4F/portmacro.h **** #define portINLINE	__inline
 164:Middlewares/Third_Party/FreeRTOS/Source/portable/GCC/ARM_CM4F/portmacro.h **** 
 165:Middlewares/Third_Party/FreeRTOS/Source/portable/GCC/ARM_CM4F/portmacro.h **** #ifndef portFORCE_INLINE
 166:Middlewares/Third_Party/FreeRTOS/Source/portable/GCC/ARM_CM4F/portmacro.h **** 	#define portFORCE_INLINE inline __attribute__(( always_inline))
 167:Middlewares/Third_Party/FreeRTOS/Source/portable/GCC/ARM_CM4F/portmacro.h **** #endif
 168:Middlewares/Third_Party/FreeRTOS/Source/portable/GCC/ARM_CM4F/portmacro.h **** 
 169:Middlewares/Third_Party/FreeRTOS/Source/portable/GCC/ARM_CM4F/portmacro.h **** portFORCE_INLINE static BaseType_t xPortIsInsideInterrupt( void )
 170:Middlewares/Third_Party/FreeRTOS/Source/portable/GCC/ARM_CM4F/portmacro.h **** {
 171:Middlewares/Third_Party/FreeRTOS/Source/portable/GCC/ARM_CM4F/portmacro.h **** uint32_t ulCurrentInterrupt;
 172:Middlewares/Third_Party/FreeRTOS/Source/portable/GCC/ARM_CM4F/portmacro.h **** BaseType_t xReturn;
 173:Middlewares/Third_Party/FreeRTOS/Source/portable/GCC/ARM_CM4F/portmacro.h **** 
 174:Middlewares/Third_Party/FreeRTOS/Source/portable/GCC/ARM_CM4F/portmacro.h **** 	/* Obtain the number of the currently executing interrupt. */
 175:Middlewares/Third_Party/FreeRTOS/Source/portable/GCC/ARM_CM4F/portmacro.h **** 	__asm volatile( "mrs %0, ipsr" : "=r"( ulCurrentInterrupt ) :: "memory" );
 176:Middlewares/Third_Party/FreeRTOS/Source/portable/GCC/ARM_CM4F/portmacro.h **** 
 177:Middlewares/Third_Party/FreeRTOS/Source/portable/GCC/ARM_CM4F/portmacro.h **** 	if( ulCurrentInterrupt == 0 )
 178:Middlewares/Third_Party/FreeRTOS/Source/portable/GCC/ARM_CM4F/portmacro.h **** 	{
 179:Middlewares/Third_Party/FreeRTOS/Source/portable/GCC/ARM_CM4F/portmacro.h **** 		xReturn = pdFALSE;
 180:Middlewares/Third_Party/FreeRTOS/Source/portable/GCC/ARM_CM4F/portmacro.h **** 	}
 181:Middlewares/Third_Party/FreeRTOS/Source/portable/GCC/ARM_CM4F/portmacro.h **** 	else
 182:Middlewares/Third_Party/FreeRTOS/Source/portable/GCC/ARM_CM4F/portmacro.h **** 	{
 183:Middlewares/Third_Party/FreeRTOS/Source/portable/GCC/ARM_CM4F/portmacro.h **** 		xReturn = pdTRUE;
 184:Middlewares/Third_Party/FreeRTOS/Source/portable/GCC/ARM_CM4F/portmacro.h **** 	}
 185:Middlewares/Third_Party/FreeRTOS/Source/portable/GCC/ARM_CM4F/portmacro.h **** 
 186:Middlewares/Third_Party/FreeRTOS/Source/portable/GCC/ARM_CM4F/portmacro.h **** 	return xReturn;
 187:Middlewares/Third_Party/FreeRTOS/Source/portable/GCC/ARM_CM4F/portmacro.h **** }
 188:Middlewares/Third_Party/FreeRTOS/Source/portable/GCC/ARM_CM4F/portmacro.h **** 
 189:Middlewares/Third_Party/FreeRTOS/Source/portable/GCC/ARM_CM4F/portmacro.h **** /*-----------------------------------------------------------*/
 190:Middlewares/Third_Party/FreeRTOS/Source/portable/GCC/ARM_CM4F/portmacro.h **** 
 191:Middlewares/Third_Party/FreeRTOS/Source/portable/GCC/ARM_CM4F/portmacro.h **** portFORCE_INLINE static void vPortRaiseBASEPRI( void )
 274              		.loc 2 191 30 view .LVU59
 275              	.LBB12:
 192:Middlewares/Third_Party/FreeRTOS/Source/portable/GCC/ARM_CM4F/portmacro.h **** {
 193:Middlewares/Third_Party/FreeRTOS/Source/portable/GCC/ARM_CM4F/portmacro.h **** uint32_t ulNewBASEPRI;
 276              		.loc 2 193 1 view .LVU60
 194:Middlewares/Third_Party/FreeRTOS/Source/portable/GCC/ARM_CM4F/portmacro.h **** 
 195:Middlewares/Third_Party/FreeRTOS/Source/portable/GCC/ARM_CM4F/portmacro.h **** 	__asm volatile
 277              		.loc 2 195 2 view .LVU61
 278              		.syntax unified
 279              	@ 195 "Middlewares/Third_Party/FreeRTOS/Source/portable/GCC/ARM_CM4F/portmacro.h" 1
 280 0004 4FF05003 			mov r3, #80												
ARM GAS  C:\Users\Ali\AppData\Local\Temp\ccanl3Qu.s 			page 21


 281 0008 83F31188 		msr basepri, r3											
 282 000c BFF36F8F 		isb														
 283 0010 BFF34F8F 		dsb														
 284              	
 285              	@ 0 "" 2
 286              		.thumb
 287              		.syntax unified
 288              	.L16:
 289              	.LBE12:
 290              	.LBE11:
 613:Core/Src/main.c ****     HAL_GPIO_TogglePin(GPIOB, MUX_SIG1_Pin);
 291              		.loc 1 613 3 view .LVU62
 614:Core/Src/main.c ****     for(volatile uint32_t i = 0; i < 100000; i++);  // Busy wait
 292              		.loc 1 614 5 view .LVU63
 293 0014 0221     		movs	r1, #2
 294 0016 0648     		ldr	r0, .L18
 295 0018 FFF7FEFF 		bl	HAL_GPIO_TogglePin
 296              	.LVL13:
 615:Core/Src/main.c ****   }
 297              		.loc 1 615 5 view .LVU64
 298              	.LBB13:
 615:Core/Src/main.c ****   }
 299              		.loc 1 615 9 view .LVU65
 615:Core/Src/main.c ****   }
 300              		.loc 1 615 27 is_stmt 0 view .LVU66
 301 001c 0023     		movs	r3, #0
 302 001e 0193     		str	r3, [sp, #4]
 303              	.L14:
 615:Core/Src/main.c ****   }
 304              		.loc 1 615 36 is_stmt 1 discriminator 1 view .LVU67
 305 0020 019A     		ldr	r2, [sp, #4]
 306 0022 044B     		ldr	r3, .L18+4
 307 0024 9A42     		cmp	r2, r3
 308 0026 F5D8     		bhi	.L16
 615:Core/Src/main.c ****   }
 309              		.loc 1 615 47 discriminator 3 view .LVU68
 310 0028 019B     		ldr	r3, [sp, #4]
 311 002a 0133     		adds	r3, r3, #1
 312 002c 0193     		str	r3, [sp, #4]
 313 002e F7E7     		b	.L14
 314              	.L19:
 315              		.align	2
 316              	.L18:
 317 0030 00040048 		.word	1207960576
 318 0034 9F860100 		.word	99999
 319              	.LBE13:
 320              		.cfi_endproc
 321              	.LFE300:
 323              		.section	.text.HAL_TIM_PeriodElapsedCallback,"ax",%progbits
 324              		.align	1
 325              		.global	HAL_TIM_PeriodElapsedCallback
 326              		.syntax unified
 327              		.thumb
 328              		.thumb_func
 330              	HAL_TIM_PeriodElapsedCallback:
 331              	.LVL14:
 332              	.LFB304:
ARM GAS  C:\Users\Ali\AppData\Local\Temp\ccanl3Qu.s 			page 22


 671:Core/Src/main.c **** 
 672:Core/Src/main.c **** /**
 673:Core/Src/main.c ****   * @brief  Period elapsed callback in non blocking mode
 674:Core/Src/main.c ****   * @note   This function is called  when TIM6 interrupt took place, inside
 675:Core/Src/main.c ****   * HAL_TIM_IRQHandler(). It makes a direct call to HAL_IncTick() to increment
 676:Core/Src/main.c ****   * a global variable "uwTick" used as application time base.
 677:Core/Src/main.c ****   * @param  htim : TIM handle
 678:Core/Src/main.c ****   * @retval None
 679:Core/Src/main.c ****   */
 680:Core/Src/main.c **** void HAL_TIM_PeriodElapsedCallback(TIM_HandleTypeDef *htim)
 681:Core/Src/main.c **** {
 333              		.loc 1 681 1 view -0
 334              		.cfi_startproc
 335              		@ args = 0, pretend = 0, frame = 0
 336              		@ frame_needed = 0, uses_anonymous_args = 0
 337              		.loc 1 681 1 is_stmt 0 view .LVU70
 338 0000 08B5     		push	{r3, lr}
 339              		.cfi_def_cfa_offset 8
 340              		.cfi_offset 3, -8
 341              		.cfi_offset 14, -4
 682:Core/Src/main.c ****   /* USER CODE BEGIN Callback 0 */
 683:Core/Src/main.c **** 
 684:Core/Src/main.c ****   /* USER CODE END Callback 0 */
 685:Core/Src/main.c ****   if (htim->Instance == TIM6)
 342              		.loc 1 685 3 is_stmt 1 view .LVU71
 343              		.loc 1 685 11 is_stmt 0 view .LVU72
 344 0002 0268     		ldr	r2, [r0]
 345              		.loc 1 685 6 view .LVU73
 346 0004 034B     		ldr	r3, .L24
 347 0006 9A42     		cmp	r2, r3
 348 0008 00D0     		beq	.L23
 349              	.LVL15:
 350              	.L20:
 686:Core/Src/main.c ****   {
 687:Core/Src/main.c ****     HAL_IncTick();
 688:Core/Src/main.c ****   }
 689:Core/Src/main.c ****   /* USER CODE BEGIN Callback 1 */
 690:Core/Src/main.c **** 
 691:Core/Src/main.c ****   /* USER CODE END Callback 1 */
 692:Core/Src/main.c **** }
 351              		.loc 1 692 1 view .LVU74
 352 000a 08BD     		pop	{r3, pc}
 353              	.LVL16:
 354              	.L23:
 687:Core/Src/main.c ****   }
 355              		.loc 1 687 5 is_stmt 1 view .LVU75
 356 000c FFF7FEFF 		bl	HAL_IncTick
 357              	.LVL17:
 358              		.loc 1 692 1 is_stmt 0 view .LVU76
 359 0010 FBE7     		b	.L20
 360              	.L25:
 361 0012 00BF     		.align	2
 362              	.L24:
 363 0014 00100040 		.word	1073745920
 364              		.cfi_endproc
 365              	.LFE304:
 367              		.section	.text.Error_Handler,"ax",%progbits
ARM GAS  C:\Users\Ali\AppData\Local\Temp\ccanl3Qu.s 			page 23


 368              		.align	1
 369              		.global	Error_Handler
 370              		.syntax unified
 371              		.thumb
 372              		.thumb_func
 374              	Error_Handler:
 375              	.LFB305:
 693:Core/Src/main.c **** 
 694:Core/Src/main.c **** /**
 695:Core/Src/main.c ****   * @brief  This function is executed in case of error occurrence.
 696:Core/Src/main.c ****   * @retval None
 697:Core/Src/main.c ****   */
 698:Core/Src/main.c **** void Error_Handler(void)
 699:Core/Src/main.c **** {
 376              		.loc 1 699 1 is_stmt 1 view -0
 377              		.cfi_startproc
 378              		@ Volatile: function does not return.
 379              		@ args = 0, pretend = 0, frame = 0
 380              		@ frame_needed = 0, uses_anonymous_args = 0
 381              		@ link register save eliminated.
 700:Core/Src/main.c ****   /* USER CODE BEGIN Error_Handler_Debug */
 701:Core/Src/main.c ****   /* User can add his own implementation to report the HAL error return state */
 702:Core/Src/main.c ****   __disable_irq();
 382              		.loc 1 702 3 view .LVU78
 383              	.LBB14:
 384              	.LBI14:
 385              		.file 3 "Drivers/CMSIS/Include/cmsis_gcc.h"
   1:Drivers/CMSIS/Include/cmsis_gcc.h **** /**************************************************************************//**
   2:Drivers/CMSIS/Include/cmsis_gcc.h ****  * @file     cmsis_gcc.h
   3:Drivers/CMSIS/Include/cmsis_gcc.h ****  * @brief    CMSIS compiler GCC header file
   4:Drivers/CMSIS/Include/cmsis_gcc.h ****  * @version  V5.2.0
   5:Drivers/CMSIS/Include/cmsis_gcc.h ****  * @date     08. May 2019
   6:Drivers/CMSIS/Include/cmsis_gcc.h ****  ******************************************************************************/
   7:Drivers/CMSIS/Include/cmsis_gcc.h **** /*
   8:Drivers/CMSIS/Include/cmsis_gcc.h ****  * Copyright (c) 2009-2019 Arm Limited. All rights reserved.
   9:Drivers/CMSIS/Include/cmsis_gcc.h ****  *
  10:Drivers/CMSIS/Include/cmsis_gcc.h ****  * SPDX-License-Identifier: Apache-2.0
  11:Drivers/CMSIS/Include/cmsis_gcc.h ****  *
  12:Drivers/CMSIS/Include/cmsis_gcc.h ****  * Licensed under the Apache License, Version 2.0 (the License); you may
  13:Drivers/CMSIS/Include/cmsis_gcc.h ****  * not use this file except in compliance with the License.
  14:Drivers/CMSIS/Include/cmsis_gcc.h ****  * You may obtain a copy of the License at
  15:Drivers/CMSIS/Include/cmsis_gcc.h ****  *
  16:Drivers/CMSIS/Include/cmsis_gcc.h ****  * www.apache.org/licenses/LICENSE-2.0
  17:Drivers/CMSIS/Include/cmsis_gcc.h ****  *
  18:Drivers/CMSIS/Include/cmsis_gcc.h ****  * Unless required by applicable law or agreed to in writing, software
  19:Drivers/CMSIS/Include/cmsis_gcc.h ****  * distributed under the License is distributed on an AS IS BASIS, WITHOUT
  20:Drivers/CMSIS/Include/cmsis_gcc.h ****  * WARRANTIES OR CONDITIONS OF ANY KIND, either express or implied.
  21:Drivers/CMSIS/Include/cmsis_gcc.h ****  * See the License for the specific language governing permissions and
  22:Drivers/CMSIS/Include/cmsis_gcc.h ****  * limitations under the License.
  23:Drivers/CMSIS/Include/cmsis_gcc.h ****  */
  24:Drivers/CMSIS/Include/cmsis_gcc.h **** 
  25:Drivers/CMSIS/Include/cmsis_gcc.h **** #ifndef __CMSIS_GCC_H
  26:Drivers/CMSIS/Include/cmsis_gcc.h **** #define __CMSIS_GCC_H
  27:Drivers/CMSIS/Include/cmsis_gcc.h **** 
  28:Drivers/CMSIS/Include/cmsis_gcc.h **** /* ignore some GCC warnings */
  29:Drivers/CMSIS/Include/cmsis_gcc.h **** #pragma GCC diagnostic push
  30:Drivers/CMSIS/Include/cmsis_gcc.h **** #pragma GCC diagnostic ignored "-Wsign-conversion"
ARM GAS  C:\Users\Ali\AppData\Local\Temp\ccanl3Qu.s 			page 24


  31:Drivers/CMSIS/Include/cmsis_gcc.h **** #pragma GCC diagnostic ignored "-Wconversion"
  32:Drivers/CMSIS/Include/cmsis_gcc.h **** #pragma GCC diagnostic ignored "-Wunused-parameter"
  33:Drivers/CMSIS/Include/cmsis_gcc.h **** 
  34:Drivers/CMSIS/Include/cmsis_gcc.h **** /* Fallback for __has_builtin */
  35:Drivers/CMSIS/Include/cmsis_gcc.h **** #ifndef __has_builtin
  36:Drivers/CMSIS/Include/cmsis_gcc.h ****   #define __has_builtin(x) (0)
  37:Drivers/CMSIS/Include/cmsis_gcc.h **** #endif
  38:Drivers/CMSIS/Include/cmsis_gcc.h **** 
  39:Drivers/CMSIS/Include/cmsis_gcc.h **** /* CMSIS compiler specific defines */
  40:Drivers/CMSIS/Include/cmsis_gcc.h **** #ifndef   __ASM
  41:Drivers/CMSIS/Include/cmsis_gcc.h ****   #define __ASM                                  __asm
  42:Drivers/CMSIS/Include/cmsis_gcc.h **** #endif
  43:Drivers/CMSIS/Include/cmsis_gcc.h **** #ifndef   __INLINE
  44:Drivers/CMSIS/Include/cmsis_gcc.h ****   #define __INLINE                               inline
  45:Drivers/CMSIS/Include/cmsis_gcc.h **** #endif
  46:Drivers/CMSIS/Include/cmsis_gcc.h **** #ifndef   __STATIC_INLINE
  47:Drivers/CMSIS/Include/cmsis_gcc.h ****   #define __STATIC_INLINE                        static inline
  48:Drivers/CMSIS/Include/cmsis_gcc.h **** #endif
  49:Drivers/CMSIS/Include/cmsis_gcc.h **** #ifndef   __STATIC_FORCEINLINE                 
  50:Drivers/CMSIS/Include/cmsis_gcc.h ****   #define __STATIC_FORCEINLINE                   __attribute__((always_inline)) static inline
  51:Drivers/CMSIS/Include/cmsis_gcc.h **** #endif                                           
  52:Drivers/CMSIS/Include/cmsis_gcc.h **** #ifndef   __NO_RETURN
  53:Drivers/CMSIS/Include/cmsis_gcc.h ****   #define __NO_RETURN                            __attribute__((__noreturn__))
  54:Drivers/CMSIS/Include/cmsis_gcc.h **** #endif
  55:Drivers/CMSIS/Include/cmsis_gcc.h **** #ifndef   __USED
  56:Drivers/CMSIS/Include/cmsis_gcc.h ****   #define __USED                                 __attribute__((used))
  57:Drivers/CMSIS/Include/cmsis_gcc.h **** #endif
  58:Drivers/CMSIS/Include/cmsis_gcc.h **** #ifndef   __WEAK
  59:Drivers/CMSIS/Include/cmsis_gcc.h ****   #define __WEAK                                 __attribute__((weak))
  60:Drivers/CMSIS/Include/cmsis_gcc.h **** #endif
  61:Drivers/CMSIS/Include/cmsis_gcc.h **** #ifndef   __PACKED
  62:Drivers/CMSIS/Include/cmsis_gcc.h ****   #define __PACKED                               __attribute__((packed, aligned(1)))
  63:Drivers/CMSIS/Include/cmsis_gcc.h **** #endif
  64:Drivers/CMSIS/Include/cmsis_gcc.h **** #ifndef   __PACKED_STRUCT
  65:Drivers/CMSIS/Include/cmsis_gcc.h ****   #define __PACKED_STRUCT                        struct __attribute__((packed, aligned(1)))
  66:Drivers/CMSIS/Include/cmsis_gcc.h **** #endif
  67:Drivers/CMSIS/Include/cmsis_gcc.h **** #ifndef   __PACKED_UNION
  68:Drivers/CMSIS/Include/cmsis_gcc.h ****   #define __PACKED_UNION                         union __attribute__((packed, aligned(1)))
  69:Drivers/CMSIS/Include/cmsis_gcc.h **** #endif
  70:Drivers/CMSIS/Include/cmsis_gcc.h **** #ifndef   __UNALIGNED_UINT32        /* deprecated */
  71:Drivers/CMSIS/Include/cmsis_gcc.h ****   #pragma GCC diagnostic push
  72:Drivers/CMSIS/Include/cmsis_gcc.h ****   #pragma GCC diagnostic ignored "-Wpacked"
  73:Drivers/CMSIS/Include/cmsis_gcc.h ****   #pragma GCC diagnostic ignored "-Wattributes"
  74:Drivers/CMSIS/Include/cmsis_gcc.h ****   struct __attribute__((packed)) T_UINT32 { uint32_t v; };
  75:Drivers/CMSIS/Include/cmsis_gcc.h ****   #pragma GCC diagnostic pop
  76:Drivers/CMSIS/Include/cmsis_gcc.h ****   #define __UNALIGNED_UINT32(x)                  (((struct T_UINT32 *)(x))->v)
  77:Drivers/CMSIS/Include/cmsis_gcc.h **** #endif
  78:Drivers/CMSIS/Include/cmsis_gcc.h **** #ifndef   __UNALIGNED_UINT16_WRITE
  79:Drivers/CMSIS/Include/cmsis_gcc.h ****   #pragma GCC diagnostic push
  80:Drivers/CMSIS/Include/cmsis_gcc.h ****   #pragma GCC diagnostic ignored "-Wpacked"
  81:Drivers/CMSIS/Include/cmsis_gcc.h ****   #pragma GCC diagnostic ignored "-Wattributes"
  82:Drivers/CMSIS/Include/cmsis_gcc.h ****   __PACKED_STRUCT T_UINT16_WRITE { uint16_t v; };
  83:Drivers/CMSIS/Include/cmsis_gcc.h ****   #pragma GCC diagnostic pop
  84:Drivers/CMSIS/Include/cmsis_gcc.h ****   #define __UNALIGNED_UINT16_WRITE(addr, val)    (void)((((struct T_UINT16_WRITE *)(void *)(addr))-
  85:Drivers/CMSIS/Include/cmsis_gcc.h **** #endif
  86:Drivers/CMSIS/Include/cmsis_gcc.h **** #ifndef   __UNALIGNED_UINT16_READ
  87:Drivers/CMSIS/Include/cmsis_gcc.h ****   #pragma GCC diagnostic push
ARM GAS  C:\Users\Ali\AppData\Local\Temp\ccanl3Qu.s 			page 25


  88:Drivers/CMSIS/Include/cmsis_gcc.h ****   #pragma GCC diagnostic ignored "-Wpacked"
  89:Drivers/CMSIS/Include/cmsis_gcc.h ****   #pragma GCC diagnostic ignored "-Wattributes"
  90:Drivers/CMSIS/Include/cmsis_gcc.h ****   __PACKED_STRUCT T_UINT16_READ { uint16_t v; };
  91:Drivers/CMSIS/Include/cmsis_gcc.h ****   #pragma GCC diagnostic pop
  92:Drivers/CMSIS/Include/cmsis_gcc.h ****   #define __UNALIGNED_UINT16_READ(addr)          (((const struct T_UINT16_READ *)(const void *)(add
  93:Drivers/CMSIS/Include/cmsis_gcc.h **** #endif
  94:Drivers/CMSIS/Include/cmsis_gcc.h **** #ifndef   __UNALIGNED_UINT32_WRITE
  95:Drivers/CMSIS/Include/cmsis_gcc.h ****   #pragma GCC diagnostic push
  96:Drivers/CMSIS/Include/cmsis_gcc.h ****   #pragma GCC diagnostic ignored "-Wpacked"
  97:Drivers/CMSIS/Include/cmsis_gcc.h ****   #pragma GCC diagnostic ignored "-Wattributes"
  98:Drivers/CMSIS/Include/cmsis_gcc.h ****   __PACKED_STRUCT T_UINT32_WRITE { uint32_t v; };
  99:Drivers/CMSIS/Include/cmsis_gcc.h ****   #pragma GCC diagnostic pop
 100:Drivers/CMSIS/Include/cmsis_gcc.h ****   #define __UNALIGNED_UINT32_WRITE(addr, val)    (void)((((struct T_UINT32_WRITE *)(void *)(addr))-
 101:Drivers/CMSIS/Include/cmsis_gcc.h **** #endif
 102:Drivers/CMSIS/Include/cmsis_gcc.h **** #ifndef   __UNALIGNED_UINT32_READ
 103:Drivers/CMSIS/Include/cmsis_gcc.h ****   #pragma GCC diagnostic push
 104:Drivers/CMSIS/Include/cmsis_gcc.h ****   #pragma GCC diagnostic ignored "-Wpacked"
 105:Drivers/CMSIS/Include/cmsis_gcc.h ****   #pragma GCC diagnostic ignored "-Wattributes"
 106:Drivers/CMSIS/Include/cmsis_gcc.h ****   __PACKED_STRUCT T_UINT32_READ { uint32_t v; };
 107:Drivers/CMSIS/Include/cmsis_gcc.h ****   #pragma GCC diagnostic pop
 108:Drivers/CMSIS/Include/cmsis_gcc.h ****   #define __UNALIGNED_UINT32_READ(addr)          (((const struct T_UINT32_READ *)(const void *)(add
 109:Drivers/CMSIS/Include/cmsis_gcc.h **** #endif
 110:Drivers/CMSIS/Include/cmsis_gcc.h **** #ifndef   __ALIGNED
 111:Drivers/CMSIS/Include/cmsis_gcc.h ****   #define __ALIGNED(x)                           __attribute__((aligned(x)))
 112:Drivers/CMSIS/Include/cmsis_gcc.h **** #endif
 113:Drivers/CMSIS/Include/cmsis_gcc.h **** #ifndef   __RESTRICT
 114:Drivers/CMSIS/Include/cmsis_gcc.h ****   #define __RESTRICT                             __restrict
 115:Drivers/CMSIS/Include/cmsis_gcc.h **** #endif
 116:Drivers/CMSIS/Include/cmsis_gcc.h **** #ifndef   __COMPILER_BARRIER
 117:Drivers/CMSIS/Include/cmsis_gcc.h ****   #define __COMPILER_BARRIER()                   __ASM volatile("":::"memory")
 118:Drivers/CMSIS/Include/cmsis_gcc.h **** #endif
 119:Drivers/CMSIS/Include/cmsis_gcc.h **** 
 120:Drivers/CMSIS/Include/cmsis_gcc.h **** /* #########################  Startup and Lowlevel Init  ######################## */
 121:Drivers/CMSIS/Include/cmsis_gcc.h **** 
 122:Drivers/CMSIS/Include/cmsis_gcc.h **** #ifndef __PROGRAM_START
 123:Drivers/CMSIS/Include/cmsis_gcc.h **** 
 124:Drivers/CMSIS/Include/cmsis_gcc.h **** /**
 125:Drivers/CMSIS/Include/cmsis_gcc.h ****   \brief   Initializes data and bss sections
 126:Drivers/CMSIS/Include/cmsis_gcc.h ****   \details This default implementations initialized all data and additional bss
 127:Drivers/CMSIS/Include/cmsis_gcc.h ****            sections relying on .copy.table and .zero.table specified properly
 128:Drivers/CMSIS/Include/cmsis_gcc.h ****            in the used linker script.
 129:Drivers/CMSIS/Include/cmsis_gcc.h ****   
 130:Drivers/CMSIS/Include/cmsis_gcc.h ****  */
 131:Drivers/CMSIS/Include/cmsis_gcc.h **** __STATIC_FORCEINLINE __NO_RETURN void __cmsis_start(void)
 132:Drivers/CMSIS/Include/cmsis_gcc.h **** {
 133:Drivers/CMSIS/Include/cmsis_gcc.h ****   extern void _start(void) __NO_RETURN;
 134:Drivers/CMSIS/Include/cmsis_gcc.h ****   
 135:Drivers/CMSIS/Include/cmsis_gcc.h ****   typedef struct {
 136:Drivers/CMSIS/Include/cmsis_gcc.h ****     uint32_t const* src;
 137:Drivers/CMSIS/Include/cmsis_gcc.h ****     uint32_t* dest;
 138:Drivers/CMSIS/Include/cmsis_gcc.h ****     uint32_t  wlen;
 139:Drivers/CMSIS/Include/cmsis_gcc.h ****   } __copy_table_t;
 140:Drivers/CMSIS/Include/cmsis_gcc.h ****   
 141:Drivers/CMSIS/Include/cmsis_gcc.h ****   typedef struct {
 142:Drivers/CMSIS/Include/cmsis_gcc.h ****     uint32_t* dest;
 143:Drivers/CMSIS/Include/cmsis_gcc.h ****     uint32_t  wlen;
 144:Drivers/CMSIS/Include/cmsis_gcc.h ****   } __zero_table_t;
ARM GAS  C:\Users\Ali\AppData\Local\Temp\ccanl3Qu.s 			page 26


 145:Drivers/CMSIS/Include/cmsis_gcc.h ****   
 146:Drivers/CMSIS/Include/cmsis_gcc.h ****   extern const __copy_table_t __copy_table_start__;
 147:Drivers/CMSIS/Include/cmsis_gcc.h ****   extern const __copy_table_t __copy_table_end__;
 148:Drivers/CMSIS/Include/cmsis_gcc.h ****   extern const __zero_table_t __zero_table_start__;
 149:Drivers/CMSIS/Include/cmsis_gcc.h ****   extern const __zero_table_t __zero_table_end__;
 150:Drivers/CMSIS/Include/cmsis_gcc.h **** 
 151:Drivers/CMSIS/Include/cmsis_gcc.h ****   for (__copy_table_t const* pTable = &__copy_table_start__; pTable < &__copy_table_end__; ++pTable
 152:Drivers/CMSIS/Include/cmsis_gcc.h ****     for(uint32_t i=0u; i<pTable->wlen; ++i) {
 153:Drivers/CMSIS/Include/cmsis_gcc.h ****       pTable->dest[i] = pTable->src[i];
 154:Drivers/CMSIS/Include/cmsis_gcc.h ****     }
 155:Drivers/CMSIS/Include/cmsis_gcc.h ****   }
 156:Drivers/CMSIS/Include/cmsis_gcc.h ****  
 157:Drivers/CMSIS/Include/cmsis_gcc.h ****   for (__zero_table_t const* pTable = &__zero_table_start__; pTable < &__zero_table_end__; ++pTable
 158:Drivers/CMSIS/Include/cmsis_gcc.h ****     for(uint32_t i=0u; i<pTable->wlen; ++i) {
 159:Drivers/CMSIS/Include/cmsis_gcc.h ****       pTable->dest[i] = 0u;
 160:Drivers/CMSIS/Include/cmsis_gcc.h ****     }
 161:Drivers/CMSIS/Include/cmsis_gcc.h ****   }
 162:Drivers/CMSIS/Include/cmsis_gcc.h ****  
 163:Drivers/CMSIS/Include/cmsis_gcc.h ****   _start();
 164:Drivers/CMSIS/Include/cmsis_gcc.h **** }
 165:Drivers/CMSIS/Include/cmsis_gcc.h ****   
 166:Drivers/CMSIS/Include/cmsis_gcc.h **** #define __PROGRAM_START           __cmsis_start
 167:Drivers/CMSIS/Include/cmsis_gcc.h **** #endif
 168:Drivers/CMSIS/Include/cmsis_gcc.h **** 
 169:Drivers/CMSIS/Include/cmsis_gcc.h **** #ifndef __INITIAL_SP
 170:Drivers/CMSIS/Include/cmsis_gcc.h **** #define __INITIAL_SP              __StackTop
 171:Drivers/CMSIS/Include/cmsis_gcc.h **** #endif
 172:Drivers/CMSIS/Include/cmsis_gcc.h **** 
 173:Drivers/CMSIS/Include/cmsis_gcc.h **** #ifndef __STACK_LIMIT
 174:Drivers/CMSIS/Include/cmsis_gcc.h **** #define __STACK_LIMIT             __StackLimit
 175:Drivers/CMSIS/Include/cmsis_gcc.h **** #endif
 176:Drivers/CMSIS/Include/cmsis_gcc.h **** 
 177:Drivers/CMSIS/Include/cmsis_gcc.h **** #ifndef __VECTOR_TABLE
 178:Drivers/CMSIS/Include/cmsis_gcc.h **** #define __VECTOR_TABLE            __Vectors
 179:Drivers/CMSIS/Include/cmsis_gcc.h **** #endif
 180:Drivers/CMSIS/Include/cmsis_gcc.h **** 
 181:Drivers/CMSIS/Include/cmsis_gcc.h **** #ifndef __VECTOR_TABLE_ATTRIBUTE
 182:Drivers/CMSIS/Include/cmsis_gcc.h **** #define __VECTOR_TABLE_ATTRIBUTE  __attribute((used, section(".vectors")))
 183:Drivers/CMSIS/Include/cmsis_gcc.h **** #endif
 184:Drivers/CMSIS/Include/cmsis_gcc.h **** 
 185:Drivers/CMSIS/Include/cmsis_gcc.h **** /* ###########################  Core Function Access  ########################### */
 186:Drivers/CMSIS/Include/cmsis_gcc.h **** /** \ingroup  CMSIS_Core_FunctionInterface
 187:Drivers/CMSIS/Include/cmsis_gcc.h ****     \defgroup CMSIS_Core_RegAccFunctions CMSIS Core Register Access Functions
 188:Drivers/CMSIS/Include/cmsis_gcc.h ****   @{
 189:Drivers/CMSIS/Include/cmsis_gcc.h ****  */
 190:Drivers/CMSIS/Include/cmsis_gcc.h **** 
 191:Drivers/CMSIS/Include/cmsis_gcc.h **** /**
 192:Drivers/CMSIS/Include/cmsis_gcc.h ****   \brief   Enable IRQ Interrupts
 193:Drivers/CMSIS/Include/cmsis_gcc.h ****   \details Enables IRQ interrupts by clearing the I-bit in the CPSR.
 194:Drivers/CMSIS/Include/cmsis_gcc.h ****            Can only be executed in Privileged modes.
 195:Drivers/CMSIS/Include/cmsis_gcc.h ****  */
 196:Drivers/CMSIS/Include/cmsis_gcc.h **** __STATIC_FORCEINLINE void __enable_irq(void)
 197:Drivers/CMSIS/Include/cmsis_gcc.h **** {
 198:Drivers/CMSIS/Include/cmsis_gcc.h ****   __ASM volatile ("cpsie i" : : : "memory");
 199:Drivers/CMSIS/Include/cmsis_gcc.h **** }
 200:Drivers/CMSIS/Include/cmsis_gcc.h **** 
 201:Drivers/CMSIS/Include/cmsis_gcc.h **** 
ARM GAS  C:\Users\Ali\AppData\Local\Temp\ccanl3Qu.s 			page 27


 202:Drivers/CMSIS/Include/cmsis_gcc.h **** /**
 203:Drivers/CMSIS/Include/cmsis_gcc.h ****   \brief   Disable IRQ Interrupts
 204:Drivers/CMSIS/Include/cmsis_gcc.h ****   \details Disables IRQ interrupts by setting the I-bit in the CPSR.
 205:Drivers/CMSIS/Include/cmsis_gcc.h ****            Can only be executed in Privileged modes.
 206:Drivers/CMSIS/Include/cmsis_gcc.h ****  */
 207:Drivers/CMSIS/Include/cmsis_gcc.h **** __STATIC_FORCEINLINE void __disable_irq(void)
 386              		.loc 3 207 27 view .LVU79
 387              	.LBB15:
 208:Drivers/CMSIS/Include/cmsis_gcc.h **** {
 209:Drivers/CMSIS/Include/cmsis_gcc.h ****   __ASM volatile ("cpsid i" : : : "memory");
 388              		.loc 3 209 3 view .LVU80
 389              		.syntax unified
 390              	@ 209 "Drivers/CMSIS/Include/cmsis_gcc.h" 1
 391 0000 72B6     		cpsid i
 392              	@ 0 "" 2
 393              		.thumb
 394              		.syntax unified
 395              	.L27:
 396              	.LBE15:
 397              	.LBE14:
 703:Core/Src/main.c ****   while (1)
 398              		.loc 1 703 3 view .LVU81
 704:Core/Src/main.c ****   {
 705:Core/Src/main.c ****   }
 399              		.loc 1 705 3 view .LVU82
 703:Core/Src/main.c ****   while (1)
 400              		.loc 1 703 9 view .LVU83
 401 0002 FEE7     		b	.L27
 402              		.cfi_endproc
 403              	.LFE305:
 405              		.section	.text.MX_ADC1_Init,"ax",%progbits
 406              		.align	1
 407              		.syntax unified
 408              		.thumb
 409              		.thumb_func
 411              	MX_ADC1_Init:
 412              	.LFB294:
 316:Core/Src/main.c **** 
 413              		.loc 1 316 1 view -0
 414              		.cfi_startproc
 415              		@ args = 0, pretend = 0, frame = 24
 416              		@ frame_needed = 0, uses_anonymous_args = 0
 417 0000 00B5     		push	{lr}
 418              		.cfi_def_cfa_offset 4
 419              		.cfi_offset 14, -4
 420 0002 87B0     		sub	sp, sp, #28
 421              		.cfi_def_cfa_offset 32
 322:Core/Src/main.c **** 
 422              		.loc 1 322 3 view .LVU85
 322:Core/Src/main.c **** 
 423              		.loc 1 322 26 is_stmt 0 view .LVU86
 424 0004 0023     		movs	r3, #0
 425 0006 0093     		str	r3, [sp]
 426 0008 0193     		str	r3, [sp, #4]
 427 000a 0293     		str	r3, [sp, #8]
 428 000c 0393     		str	r3, [sp, #12]
 429 000e 0493     		str	r3, [sp, #16]
ARM GAS  C:\Users\Ali\AppData\Local\Temp\ccanl3Qu.s 			page 28


 430 0010 0593     		str	r3, [sp, #20]
 330:Core/Src/main.c ****   hadc1.Init.ClockPrescaler = ADC_CLOCK_ASYNC_DIV1;
 431              		.loc 1 330 3 is_stmt 1 view .LVU87
 330:Core/Src/main.c ****   hadc1.Init.ClockPrescaler = ADC_CLOCK_ASYNC_DIV1;
 432              		.loc 1 330 18 is_stmt 0 view .LVU88
 433 0012 1848     		ldr	r0, .L34
 434 0014 184A     		ldr	r2, .L34+4
 435 0016 0260     		str	r2, [r0]
 331:Core/Src/main.c ****   hadc1.Init.Resolution = ADC_RESOLUTION_12B;
 436              		.loc 1 331 3 is_stmt 1 view .LVU89
 331:Core/Src/main.c ****   hadc1.Init.Resolution = ADC_RESOLUTION_12B;
 437              		.loc 1 331 29 is_stmt 0 view .LVU90
 438 0018 4360     		str	r3, [r0, #4]
 332:Core/Src/main.c ****   hadc1.Init.DataAlign = ADC_DATAALIGN_RIGHT;
 439              		.loc 1 332 3 is_stmt 1 view .LVU91
 332:Core/Src/main.c ****   hadc1.Init.DataAlign = ADC_DATAALIGN_RIGHT;
 440              		.loc 1 332 25 is_stmt 0 view .LVU92
 441 001a 8360     		str	r3, [r0, #8]
 333:Core/Src/main.c ****   hadc1.Init.ScanConvMode = ADC_SCAN_DISABLE;
 442              		.loc 1 333 3 is_stmt 1 view .LVU93
 333:Core/Src/main.c ****   hadc1.Init.ScanConvMode = ADC_SCAN_DISABLE;
 443              		.loc 1 333 24 is_stmt 0 view .LVU94
 444 001c C360     		str	r3, [r0, #12]
 334:Core/Src/main.c ****   hadc1.Init.EOCSelection = ADC_EOC_SINGLE_CONV;
 445              		.loc 1 334 3 is_stmt 1 view .LVU95
 334:Core/Src/main.c ****   hadc1.Init.EOCSelection = ADC_EOC_SINGLE_CONV;
 446              		.loc 1 334 27 is_stmt 0 view .LVU96
 447 001e 0361     		str	r3, [r0, #16]
 335:Core/Src/main.c ****   hadc1.Init.LowPowerAutoWait = DISABLE;
 448              		.loc 1 335 3 is_stmt 1 view .LVU97
 335:Core/Src/main.c ****   hadc1.Init.LowPowerAutoWait = DISABLE;
 449              		.loc 1 335 27 is_stmt 0 view .LVU98
 450 0020 0422     		movs	r2, #4
 451 0022 4261     		str	r2, [r0, #20]
 336:Core/Src/main.c ****   hadc1.Init.ContinuousConvMode = DISABLE;
 452              		.loc 1 336 3 is_stmt 1 view .LVU99
 336:Core/Src/main.c ****   hadc1.Init.ContinuousConvMode = DISABLE;
 453              		.loc 1 336 31 is_stmt 0 view .LVU100
 454 0024 0376     		strb	r3, [r0, #24]
 337:Core/Src/main.c ****   hadc1.Init.NbrOfConversion = 1;
 455              		.loc 1 337 3 is_stmt 1 view .LVU101
 337:Core/Src/main.c ****   hadc1.Init.NbrOfConversion = 1;
 456              		.loc 1 337 33 is_stmt 0 view .LVU102
 457 0026 4376     		strb	r3, [r0, #25]
 338:Core/Src/main.c ****   hadc1.Init.DiscontinuousConvMode = DISABLE;
 458              		.loc 1 338 3 is_stmt 1 view .LVU103
 338:Core/Src/main.c ****   hadc1.Init.DiscontinuousConvMode = DISABLE;
 459              		.loc 1 338 30 is_stmt 0 view .LVU104
 460 0028 0122     		movs	r2, #1
 461 002a C261     		str	r2, [r0, #28]
 339:Core/Src/main.c ****   hadc1.Init.ExternalTrigConv = ADC_SOFTWARE_START;
 462              		.loc 1 339 3 is_stmt 1 view .LVU105
 339:Core/Src/main.c ****   hadc1.Init.ExternalTrigConv = ADC_SOFTWARE_START;
 463              		.loc 1 339 36 is_stmt 0 view .LVU106
 464 002c 80F82030 		strb	r3, [r0, #32]
 340:Core/Src/main.c ****   hadc1.Init.ExternalTrigConvEdge = ADC_EXTERNALTRIGCONVEDGE_NONE;
 465              		.loc 1 340 3 is_stmt 1 view .LVU107
ARM GAS  C:\Users\Ali\AppData\Local\Temp\ccanl3Qu.s 			page 29


 340:Core/Src/main.c ****   hadc1.Init.ExternalTrigConvEdge = ADC_EXTERNALTRIGCONVEDGE_NONE;
 466              		.loc 1 340 31 is_stmt 0 view .LVU108
 467 0030 8362     		str	r3, [r0, #40]
 341:Core/Src/main.c ****   hadc1.Init.DMAContinuousRequests = DISABLE;
 468              		.loc 1 341 3 is_stmt 1 view .LVU109
 341:Core/Src/main.c ****   hadc1.Init.DMAContinuousRequests = DISABLE;
 469              		.loc 1 341 35 is_stmt 0 view .LVU110
 470 0032 C362     		str	r3, [r0, #44]
 342:Core/Src/main.c ****   hadc1.Init.Overrun = ADC_OVR_DATA_PRESERVED;
 471              		.loc 1 342 3 is_stmt 1 view .LVU111
 342:Core/Src/main.c ****   hadc1.Init.Overrun = ADC_OVR_DATA_PRESERVED;
 472              		.loc 1 342 36 is_stmt 0 view .LVU112
 473 0034 80F83030 		strb	r3, [r0, #48]
 343:Core/Src/main.c ****   hadc1.Init.OversamplingMode = DISABLE;
 474              		.loc 1 343 3 is_stmt 1 view .LVU113
 343:Core/Src/main.c ****   hadc1.Init.OversamplingMode = DISABLE;
 475              		.loc 1 343 22 is_stmt 0 view .LVU114
 476 0038 4363     		str	r3, [r0, #52]
 344:Core/Src/main.c ****   if (HAL_ADC_Init(&hadc1) != HAL_OK)
 477              		.loc 1 344 3 is_stmt 1 view .LVU115
 344:Core/Src/main.c ****   if (HAL_ADC_Init(&hadc1) != HAL_OK)
 478              		.loc 1 344 31 is_stmt 0 view .LVU116
 479 003a 80F83830 		strb	r3, [r0, #56]
 345:Core/Src/main.c ****   {
 480              		.loc 1 345 3 is_stmt 1 view .LVU117
 345:Core/Src/main.c ****   {
 481              		.loc 1 345 7 is_stmt 0 view .LVU118
 482 003e FFF7FEFF 		bl	HAL_ADC_Init
 483              	.LVL18:
 345:Core/Src/main.c ****   {
 484              		.loc 1 345 6 discriminator 1 view .LVU119
 485 0042 98B9     		cbnz	r0, .L32
 352:Core/Src/main.c ****   sConfig.Rank = ADC_REGULAR_RANK_1;
 486              		.loc 1 352 3 is_stmt 1 view .LVU120
 352:Core/Src/main.c ****   sConfig.Rank = ADC_REGULAR_RANK_1;
 487              		.loc 1 352 19 is_stmt 0 view .LVU121
 488 0044 0D4B     		ldr	r3, .L34+8
 489 0046 0093     		str	r3, [sp]
 353:Core/Src/main.c ****   sConfig.SamplingTime = ADC_SAMPLETIME_640CYCLES_5;  // Longer sampling for high impedance thermis
 490              		.loc 1 353 3 is_stmt 1 view .LVU122
 353:Core/Src/main.c ****   sConfig.SamplingTime = ADC_SAMPLETIME_640CYCLES_5;  // Longer sampling for high impedance thermis
 491              		.loc 1 353 16 is_stmt 0 view .LVU123
 492 0048 0623     		movs	r3, #6
 493 004a 0193     		str	r3, [sp, #4]
 354:Core/Src/main.c ****   sConfig.SingleDiff = ADC_SINGLE_ENDED;
 494              		.loc 1 354 3 is_stmt 1 view .LVU124
 354:Core/Src/main.c ****   sConfig.SingleDiff = ADC_SINGLE_ENDED;
 495              		.loc 1 354 24 is_stmt 0 view .LVU125
 496 004c 0723     		movs	r3, #7
 497 004e 0293     		str	r3, [sp, #8]
 355:Core/Src/main.c ****   sConfig.OffsetNumber = ADC_OFFSET_NONE;
 498              		.loc 1 355 3 is_stmt 1 view .LVU126
 355:Core/Src/main.c ****   sConfig.OffsetNumber = ADC_OFFSET_NONE;
 499              		.loc 1 355 22 is_stmt 0 view .LVU127
 500 0050 7F23     		movs	r3, #127
 501 0052 0393     		str	r3, [sp, #12]
 356:Core/Src/main.c ****   sConfig.Offset = 0;
ARM GAS  C:\Users\Ali\AppData\Local\Temp\ccanl3Qu.s 			page 30


 502              		.loc 1 356 3 is_stmt 1 view .LVU128
 356:Core/Src/main.c ****   sConfig.Offset = 0;
 503              		.loc 1 356 24 is_stmt 0 view .LVU129
 504 0054 0423     		movs	r3, #4
 505 0056 0493     		str	r3, [sp, #16]
 357:Core/Src/main.c ****   if (HAL_ADC_ConfigChannel(&hadc1, &sConfig) != HAL_OK)
 506              		.loc 1 357 3 is_stmt 1 view .LVU130
 357:Core/Src/main.c ****   if (HAL_ADC_ConfigChannel(&hadc1, &sConfig) != HAL_OK)
 507              		.loc 1 357 18 is_stmt 0 view .LVU131
 508 0058 0023     		movs	r3, #0
 509 005a 0593     		str	r3, [sp, #20]
 358:Core/Src/main.c ****   {
 510              		.loc 1 358 3 is_stmt 1 view .LVU132
 358:Core/Src/main.c ****   {
 511              		.loc 1 358 7 is_stmt 0 view .LVU133
 512 005c 6946     		mov	r1, sp
 513 005e 0548     		ldr	r0, .L34
 514 0060 FFF7FEFF 		bl	HAL_ADC_ConfigChannel
 515              	.LVL19:
 358:Core/Src/main.c ****   {
 516              		.loc 1 358 6 discriminator 1 view .LVU134
 517 0064 20B9     		cbnz	r0, .L33
 366:Core/Src/main.c **** 
 518              		.loc 1 366 1 view .LVU135
 519 0066 07B0     		add	sp, sp, #28
 520              		.cfi_remember_state
 521              		.cfi_def_cfa_offset 4
 522              		@ sp needed
 523 0068 5DF804FB 		ldr	pc, [sp], #4
 524              	.L32:
 525              		.cfi_restore_state
 347:Core/Src/main.c ****   }
 526              		.loc 1 347 5 is_stmt 1 view .LVU136
 527 006c FFF7FEFF 		bl	Error_Handler
 528              	.LVL20:
 529              	.L33:
 360:Core/Src/main.c ****   }
 530              		.loc 1 360 5 view .LVU137
 531 0070 FFF7FEFF 		bl	Error_Handler
 532              	.LVL21:
 533              	.L35:
 534              		.align	2
 535              	.L34:
 536 0074 00000000 		.word	hadc1
 537 0078 00000450 		.word	1342439424
 538 007c 2000F014 		.word	351272992
 539              		.cfi_endproc
 540              	.LFE294:
 542              		.section	.text.MX_CAN1_Init,"ax",%progbits
 543              		.align	1
 544              		.syntax unified
 545              		.thumb
 546              		.thumb_func
 548              	MX_CAN1_Init:
 549              	.LFB295:
 374:Core/Src/main.c **** 
 550              		.loc 1 374 1 view -0
ARM GAS  C:\Users\Ali\AppData\Local\Temp\ccanl3Qu.s 			page 31


 551              		.cfi_startproc
 552              		@ args = 0, pretend = 0, frame = 40
 553              		@ frame_needed = 0, uses_anonymous_args = 0
 554 0000 00B5     		push	{lr}
 555              		.cfi_def_cfa_offset 4
 556              		.cfi_offset 14, -4
 557 0002 8BB0     		sub	sp, sp, #44
 558              		.cfi_def_cfa_offset 48
 383:Core/Src/main.c ****   hcan1.Init.Prescaler = 10;
 559              		.loc 1 383 3 view .LVU139
 383:Core/Src/main.c ****   hcan1.Init.Prescaler = 10;
 560              		.loc 1 383 18 is_stmt 0 view .LVU140
 561 0004 1848     		ldr	r0, .L42
 562 0006 194B     		ldr	r3, .L42+4
 563 0008 0360     		str	r3, [r0]
 384:Core/Src/main.c ****   hcan1.Init.Mode = CAN_MODE_NORMAL;
 564              		.loc 1 384 3 is_stmt 1 view .LVU141
 384:Core/Src/main.c ****   hcan1.Init.Mode = CAN_MODE_NORMAL;
 565              		.loc 1 384 24 is_stmt 0 view .LVU142
 566 000a 0A23     		movs	r3, #10
 567 000c 4360     		str	r3, [r0, #4]
 385:Core/Src/main.c ****   hcan1.Init.SyncJumpWidth = CAN_SJW_1TQ;
 568              		.loc 1 385 3 is_stmt 1 view .LVU143
 385:Core/Src/main.c ****   hcan1.Init.SyncJumpWidth = CAN_SJW_1TQ;
 569              		.loc 1 385 19 is_stmt 0 view .LVU144
 570 000e 0023     		movs	r3, #0
 571 0010 8360     		str	r3, [r0, #8]
 386:Core/Src/main.c ****   hcan1.Init.TimeSeg1 = CAN_BS1_13TQ;
 572              		.loc 1 386 3 is_stmt 1 view .LVU145
 386:Core/Src/main.c ****   hcan1.Init.TimeSeg1 = CAN_BS1_13TQ;
 573              		.loc 1 386 28 is_stmt 0 view .LVU146
 574 0012 C360     		str	r3, [r0, #12]
 387:Core/Src/main.c ****   hcan1.Init.TimeSeg2 = CAN_BS2_2TQ;
 575              		.loc 1 387 3 is_stmt 1 view .LVU147
 387:Core/Src/main.c ****   hcan1.Init.TimeSeg2 = CAN_BS2_2TQ;
 576              		.loc 1 387 23 is_stmt 0 view .LVU148
 577 0014 4FF44022 		mov	r2, #786432
 578 0018 0261     		str	r2, [r0, #16]
 388:Core/Src/main.c ****   hcan1.Init.TimeTriggeredMode = DISABLE;
 579              		.loc 1 388 3 is_stmt 1 view .LVU149
 388:Core/Src/main.c ****   hcan1.Init.TimeTriggeredMode = DISABLE;
 580              		.loc 1 388 23 is_stmt 0 view .LVU150
 581 001a 4FF48012 		mov	r2, #1048576
 582 001e 4261     		str	r2, [r0, #20]
 389:Core/Src/main.c ****   hcan1.Init.AutoBusOff = DISABLE;
 583              		.loc 1 389 3 is_stmt 1 view .LVU151
 389:Core/Src/main.c ****   hcan1.Init.AutoBusOff = DISABLE;
 584              		.loc 1 389 32 is_stmt 0 view .LVU152
 585 0020 0376     		strb	r3, [r0, #24]
 390:Core/Src/main.c ****   hcan1.Init.AutoWakeUp = DISABLE;
 586              		.loc 1 390 3 is_stmt 1 view .LVU153
 390:Core/Src/main.c ****   hcan1.Init.AutoWakeUp = DISABLE;
 587              		.loc 1 390 25 is_stmt 0 view .LVU154
 588 0022 4376     		strb	r3, [r0, #25]
 391:Core/Src/main.c ****   hcan1.Init.AutoRetransmission = DISABLE;
 589              		.loc 1 391 3 is_stmt 1 view .LVU155
 391:Core/Src/main.c ****   hcan1.Init.AutoRetransmission = DISABLE;
ARM GAS  C:\Users\Ali\AppData\Local\Temp\ccanl3Qu.s 			page 32


 590              		.loc 1 391 25 is_stmt 0 view .LVU156
 591 0024 8376     		strb	r3, [r0, #26]
 392:Core/Src/main.c ****   hcan1.Init.ReceiveFifoLocked = DISABLE;
 592              		.loc 1 392 3 is_stmt 1 view .LVU157
 392:Core/Src/main.c ****   hcan1.Init.ReceiveFifoLocked = DISABLE;
 593              		.loc 1 392 33 is_stmt 0 view .LVU158
 594 0026 C376     		strb	r3, [r0, #27]
 393:Core/Src/main.c ****   hcan1.Init.TransmitFifoPriority = DISABLE;
 595              		.loc 1 393 3 is_stmt 1 view .LVU159
 393:Core/Src/main.c ****   hcan1.Init.TransmitFifoPriority = DISABLE;
 596              		.loc 1 393 32 is_stmt 0 view .LVU160
 597 0028 0377     		strb	r3, [r0, #28]
 394:Core/Src/main.c ****   if (HAL_CAN_Init(&hcan1) != HAL_OK)
 598              		.loc 1 394 3 is_stmt 1 view .LVU161
 394:Core/Src/main.c ****   if (HAL_CAN_Init(&hcan1) != HAL_OK)
 599              		.loc 1 394 35 is_stmt 0 view .LVU162
 600 002a 4377     		strb	r3, [r0, #29]
 395:Core/Src/main.c ****   {
 601              		.loc 1 395 3 is_stmt 1 view .LVU163
 395:Core/Src/main.c ****   {
 602              		.loc 1 395 7 is_stmt 0 view .LVU164
 603 002c FFF7FEFF 		bl	HAL_CAN_Init
 604              	.LVL22:
 395:Core/Src/main.c ****   {
 605              		.loc 1 395 6 discriminator 1 view .LVU165
 606 0030 A8B9     		cbnz	r0, .L40
 403:Core/Src/main.c ****   filterConfig.FilterBank = 0;
 607              		.loc 1 403 3 is_stmt 1 view .LVU166
 404:Core/Src/main.c ****   filterConfig.FilterMode = CAN_FILTERMODE_IDMASK;
 608              		.loc 1 404 3 view .LVU167
 404:Core/Src/main.c ****   filterConfig.FilterMode = CAN_FILTERMODE_IDMASK;
 609              		.loc 1 404 27 is_stmt 0 view .LVU168
 610 0032 0023     		movs	r3, #0
 611 0034 0593     		str	r3, [sp, #20]
 405:Core/Src/main.c ****   filterConfig.FilterScale = CAN_FILTERSCALE_32BIT;
 612              		.loc 1 405 3 is_stmt 1 view .LVU169
 405:Core/Src/main.c ****   filterConfig.FilterScale = CAN_FILTERSCALE_32BIT;
 613              		.loc 1 405 27 is_stmt 0 view .LVU170
 614 0036 0693     		str	r3, [sp, #24]
 406:Core/Src/main.c ****   
 615              		.loc 1 406 3 is_stmt 1 view .LVU171
 406:Core/Src/main.c ****   
 616              		.loc 1 406 28 is_stmt 0 view .LVU172
 617 0038 0122     		movs	r2, #1
 618 003a 0792     		str	r2, [sp, #28]
 409:Core/Src/main.c ****   filterConfig.FilterIdLow = 0x0004;   // Only IDE bit set (extended ID)
 619              		.loc 1 409 3 is_stmt 1 view .LVU173
 409:Core/Src/main.c ****   filterConfig.FilterIdLow = 0x0004;   // Only IDE bit set (extended ID)
 620              		.loc 1 409 29 is_stmt 0 view .LVU174
 621 003c 0093     		str	r3, [sp]
 410:Core/Src/main.c ****   filterConfig.FilterMaskIdHigh = 0x0000;  // Don't care about any ID bits
 622              		.loc 1 410 3 is_stmt 1 view .LVU175
 410:Core/Src/main.c ****   filterConfig.FilterMaskIdHigh = 0x0000;  // Don't care about any ID bits
 623              		.loc 1 410 28 is_stmt 0 view .LVU176
 624 003e 0421     		movs	r1, #4
 625 0040 0191     		str	r1, [sp, #4]
 411:Core/Src/main.c ****   filterConfig.FilterMaskIdLow = 0x0004;   // But we DO care about IDE bit (only extended)
ARM GAS  C:\Users\Ali\AppData\Local\Temp\ccanl3Qu.s 			page 33


 626              		.loc 1 411 3 is_stmt 1 view .LVU177
 411:Core/Src/main.c ****   filterConfig.FilterMaskIdLow = 0x0004;   // But we DO care about IDE bit (only extended)
 627              		.loc 1 411 33 is_stmt 0 view .LVU178
 628 0042 0293     		str	r3, [sp, #8]
 412:Core/Src/main.c ****   
 629              		.loc 1 412 3 is_stmt 1 view .LVU179
 412:Core/Src/main.c ****   
 630              		.loc 1 412 32 is_stmt 0 view .LVU180
 631 0044 0391     		str	r1, [sp, #12]
 414:Core/Src/main.c ****   filterConfig.FilterActivation = ENABLE;
 632              		.loc 1 414 3 is_stmt 1 view .LVU181
 414:Core/Src/main.c ****   filterConfig.FilterActivation = ENABLE;
 633              		.loc 1 414 37 is_stmt 0 view .LVU182
 634 0046 0493     		str	r3, [sp, #16]
 415:Core/Src/main.c ****   filterConfig.SlaveStartFilterBank = 14;
 635              		.loc 1 415 3 is_stmt 1 view .LVU183
 415:Core/Src/main.c ****   filterConfig.SlaveStartFilterBank = 14;
 636              		.loc 1 415 33 is_stmt 0 view .LVU184
 637 0048 0892     		str	r2, [sp, #32]
 416:Core/Src/main.c ****   
 638              		.loc 1 416 3 is_stmt 1 view .LVU185
 416:Core/Src/main.c ****   
 639              		.loc 1 416 37 is_stmt 0 view .LVU186
 640 004a 0E23     		movs	r3, #14
 641 004c 0993     		str	r3, [sp, #36]
 418:Core/Src/main.c ****   {
 642              		.loc 1 418 3 is_stmt 1 view .LVU187
 418:Core/Src/main.c ****   {
 643              		.loc 1 418 7 is_stmt 0 view .LVU188
 644 004e 6946     		mov	r1, sp
 645 0050 0548     		ldr	r0, .L42
 646 0052 FFF7FEFF 		bl	HAL_CAN_ConfigFilter
 647              	.LVL23:
 418:Core/Src/main.c ****   {
 648              		.loc 1 418 6 discriminator 1 view .LVU189
 649 0056 20B9     		cbnz	r0, .L41
 425:Core/Src/main.c **** 
 650              		.loc 1 425 1 view .LVU190
 651 0058 0BB0     		add	sp, sp, #44
 652              		.cfi_remember_state
 653              		.cfi_def_cfa_offset 4
 654              		@ sp needed
 655 005a 5DF804FB 		ldr	pc, [sp], #4
 656              	.L40:
 657              		.cfi_restore_state
 397:Core/Src/main.c ****   }
 658              		.loc 1 397 5 is_stmt 1 view .LVU191
 659 005e FFF7FEFF 		bl	Error_Handler
 660              	.LVL24:
 661              	.L41:
 420:Core/Src/main.c ****   }
 662              		.loc 1 420 5 view .LVU192
 663 0062 FFF7FEFF 		bl	Error_Handler
 664              	.LVL25:
 665              	.L43:
 666 0066 00BF     		.align	2
 667              	.L42:
ARM GAS  C:\Users\Ali\AppData\Local\Temp\ccanl3Qu.s 			page 34


 668 0068 00000000 		.word	hcan1
 669 006c 00640040 		.word	1073767424
 670              		.cfi_endproc
 671              	.LFE295:
 673              		.section	.text.MX_CRC_Init,"ax",%progbits
 674              		.align	1
 675              		.syntax unified
 676              		.thumb
 677              		.thumb_func
 679              	MX_CRC_Init:
 680              	.LFB296:
 433:Core/Src/main.c **** 
 681              		.loc 1 433 1 view -0
 682              		.cfi_startproc
 683              		@ args = 0, pretend = 0, frame = 0
 684              		@ frame_needed = 0, uses_anonymous_args = 0
 685 0000 08B5     		push	{r3, lr}
 686              		.cfi_def_cfa_offset 8
 687              		.cfi_offset 3, -8
 688              		.cfi_offset 14, -4
 442:Core/Src/main.c ****   hcrc.Init.DefaultPolynomialUse = DEFAULT_POLYNOMIAL_ENABLE;
 689              		.loc 1 442 3 view .LVU194
 442:Core/Src/main.c ****   hcrc.Init.DefaultPolynomialUse = DEFAULT_POLYNOMIAL_ENABLE;
 690              		.loc 1 442 17 is_stmt 0 view .LVU195
 691 0002 0848     		ldr	r0, .L48
 692 0004 084B     		ldr	r3, .L48+4
 693 0006 0360     		str	r3, [r0]
 443:Core/Src/main.c ****   hcrc.Init.DefaultInitValueUse = DEFAULT_INIT_VALUE_ENABLE;
 694              		.loc 1 443 3 is_stmt 1 view .LVU196
 443:Core/Src/main.c ****   hcrc.Init.DefaultInitValueUse = DEFAULT_INIT_VALUE_ENABLE;
 695              		.loc 1 443 34 is_stmt 0 view .LVU197
 696 0008 0023     		movs	r3, #0
 697 000a 0371     		strb	r3, [r0, #4]
 444:Core/Src/main.c ****   hcrc.Init.InputDataInversionMode = CRC_INPUTDATA_INVERSION_NONE;
 698              		.loc 1 444 3 is_stmt 1 view .LVU198
 444:Core/Src/main.c ****   hcrc.Init.InputDataInversionMode = CRC_INPUTDATA_INVERSION_NONE;
 699              		.loc 1 444 33 is_stmt 0 view .LVU199
 700 000c 4371     		strb	r3, [r0, #5]
 445:Core/Src/main.c ****   hcrc.Init.OutputDataInversionMode = CRC_OUTPUTDATA_INVERSION_DISABLE;
 701              		.loc 1 445 3 is_stmt 1 view .LVU200
 445:Core/Src/main.c ****   hcrc.Init.OutputDataInversionMode = CRC_OUTPUTDATA_INVERSION_DISABLE;
 702              		.loc 1 445 36 is_stmt 0 view .LVU201
 703 000e 4361     		str	r3, [r0, #20]
 446:Core/Src/main.c ****   hcrc.InputDataFormat = CRC_INPUTDATA_FORMAT_BYTES;
 704              		.loc 1 446 3 is_stmt 1 view .LVU202
 446:Core/Src/main.c ****   hcrc.InputDataFormat = CRC_INPUTDATA_FORMAT_BYTES;
 705              		.loc 1 446 37 is_stmt 0 view .LVU203
 706 0010 8361     		str	r3, [r0, #24]
 447:Core/Src/main.c ****   if (HAL_CRC_Init(&hcrc) != HAL_OK)
 707              		.loc 1 447 3 is_stmt 1 view .LVU204
 447:Core/Src/main.c ****   if (HAL_CRC_Init(&hcrc) != HAL_OK)
 708              		.loc 1 447 24 is_stmt 0 view .LVU205
 709 0012 0123     		movs	r3, #1
 710 0014 0362     		str	r3, [r0, #32]
 448:Core/Src/main.c ****   {
 711              		.loc 1 448 3 is_stmt 1 view .LVU206
 448:Core/Src/main.c ****   {
ARM GAS  C:\Users\Ali\AppData\Local\Temp\ccanl3Qu.s 			page 35


 712              		.loc 1 448 7 is_stmt 0 view .LVU207
 713 0016 FFF7FEFF 		bl	HAL_CRC_Init
 714              	.LVL26:
 448:Core/Src/main.c ****   {
 715              		.loc 1 448 6 discriminator 1 view .LVU208
 716 001a 00B9     		cbnz	r0, .L47
 456:Core/Src/main.c **** 
 717              		.loc 1 456 1 view .LVU209
 718 001c 08BD     		pop	{r3, pc}
 719              	.L47:
 450:Core/Src/main.c ****   }
 720              		.loc 1 450 5 is_stmt 1 view .LVU210
 721 001e FFF7FEFF 		bl	Error_Handler
 722              	.LVL27:
 723              	.L49:
 724 0022 00BF     		.align	2
 725              	.L48:
 726 0024 00000000 		.word	hcrc
 727 0028 00300240 		.word	1073885184
 728              		.cfi_endproc
 729              	.LFE296:
 731              		.section	.text.MX_I2C1_Init,"ax",%progbits
 732              		.align	1
 733              		.syntax unified
 734              		.thumb
 735              		.thumb_func
 737              	MX_I2C1_Init:
 738              	.LFB297:
 464:Core/Src/main.c **** 
 739              		.loc 1 464 1 view -0
 740              		.cfi_startproc
 741              		@ args = 0, pretend = 0, frame = 0
 742              		@ frame_needed = 0, uses_anonymous_args = 0
 743 0000 08B5     		push	{r3, lr}
 744              		.cfi_def_cfa_offset 8
 745              		.cfi_offset 3, -8
 746              		.cfi_offset 14, -4
 473:Core/Src/main.c ****   hi2c1.Init.Timing = 0x00503D58;
 747              		.loc 1 473 3 view .LVU212
 473:Core/Src/main.c ****   hi2c1.Init.Timing = 0x00503D58;
 748              		.loc 1 473 18 is_stmt 0 view .LVU213
 749 0002 1148     		ldr	r0, .L58
 750 0004 114B     		ldr	r3, .L58+4
 751 0006 0360     		str	r3, [r0]
 474:Core/Src/main.c ****   hi2c1.Init.OwnAddress1 = 0;
 752              		.loc 1 474 3 is_stmt 1 view .LVU214
 474:Core/Src/main.c ****   hi2c1.Init.OwnAddress1 = 0;
 753              		.loc 1 474 21 is_stmt 0 view .LVU215
 754 0008 114B     		ldr	r3, .L58+8
 755 000a 4360     		str	r3, [r0, #4]
 475:Core/Src/main.c ****   hi2c1.Init.AddressingMode = I2C_ADDRESSINGMODE_7BIT;
 756              		.loc 1 475 3 is_stmt 1 view .LVU216
 475:Core/Src/main.c ****   hi2c1.Init.AddressingMode = I2C_ADDRESSINGMODE_7BIT;
 757              		.loc 1 475 26 is_stmt 0 view .LVU217
 758 000c 0023     		movs	r3, #0
 759 000e 8360     		str	r3, [r0, #8]
 476:Core/Src/main.c ****   hi2c1.Init.DualAddressMode = I2C_DUALADDRESS_DISABLE;
ARM GAS  C:\Users\Ali\AppData\Local\Temp\ccanl3Qu.s 			page 36


 760              		.loc 1 476 3 is_stmt 1 view .LVU218
 476:Core/Src/main.c ****   hi2c1.Init.DualAddressMode = I2C_DUALADDRESS_DISABLE;
 761              		.loc 1 476 29 is_stmt 0 view .LVU219
 762 0010 0122     		movs	r2, #1
 763 0012 C260     		str	r2, [r0, #12]
 477:Core/Src/main.c ****   hi2c1.Init.OwnAddress2 = 0;
 764              		.loc 1 477 3 is_stmt 1 view .LVU220
 477:Core/Src/main.c ****   hi2c1.Init.OwnAddress2 = 0;
 765              		.loc 1 477 30 is_stmt 0 view .LVU221
 766 0014 0361     		str	r3, [r0, #16]
 478:Core/Src/main.c ****   hi2c1.Init.OwnAddress2Masks = I2C_OA2_NOMASK;
 767              		.loc 1 478 3 is_stmt 1 view .LVU222
 478:Core/Src/main.c ****   hi2c1.Init.OwnAddress2Masks = I2C_OA2_NOMASK;
 768              		.loc 1 478 26 is_stmt 0 view .LVU223
 769 0016 4361     		str	r3, [r0, #20]
 479:Core/Src/main.c ****   hi2c1.Init.GeneralCallMode = I2C_GENERALCALL_DISABLE;
 770              		.loc 1 479 3 is_stmt 1 view .LVU224
 479:Core/Src/main.c ****   hi2c1.Init.GeneralCallMode = I2C_GENERALCALL_DISABLE;
 771              		.loc 1 479 31 is_stmt 0 view .LVU225
 772 0018 8361     		str	r3, [r0, #24]
 480:Core/Src/main.c ****   hi2c1.Init.NoStretchMode = I2C_NOSTRETCH_DISABLE;
 773              		.loc 1 480 3 is_stmt 1 view .LVU226
 480:Core/Src/main.c ****   hi2c1.Init.NoStretchMode = I2C_NOSTRETCH_DISABLE;
 774              		.loc 1 480 30 is_stmt 0 view .LVU227
 775 001a C361     		str	r3, [r0, #28]
 481:Core/Src/main.c ****   if (HAL_I2C_Init(&hi2c1) != HAL_OK)
 776              		.loc 1 481 3 is_stmt 1 view .LVU228
 481:Core/Src/main.c ****   if (HAL_I2C_Init(&hi2c1) != HAL_OK)
 777              		.loc 1 481 28 is_stmt 0 view .LVU229
 778 001c 0362     		str	r3, [r0, #32]
 482:Core/Src/main.c ****   {
 779              		.loc 1 482 3 is_stmt 1 view .LVU230
 482:Core/Src/main.c ****   {
 780              		.loc 1 482 7 is_stmt 0 view .LVU231
 781 001e FFF7FEFF 		bl	HAL_I2C_Init
 782              	.LVL28:
 482:Core/Src/main.c ****   {
 783              		.loc 1 482 6 discriminator 1 view .LVU232
 784 0022 50B9     		cbnz	r0, .L55
 489:Core/Src/main.c ****   {
 785              		.loc 1 489 3 is_stmt 1 view .LVU233
 489:Core/Src/main.c ****   {
 786              		.loc 1 489 7 is_stmt 0 view .LVU234
 787 0024 0021     		movs	r1, #0
 788 0026 0848     		ldr	r0, .L58
 789 0028 FFF7FEFF 		bl	HAL_I2CEx_ConfigAnalogFilter
 790              	.LVL29:
 489:Core/Src/main.c ****   {
 791              		.loc 1 489 6 discriminator 1 view .LVU235
 792 002c 38B9     		cbnz	r0, .L56
 496:Core/Src/main.c ****   {
 793              		.loc 1 496 3 is_stmt 1 view .LVU236
 496:Core/Src/main.c ****   {
 794              		.loc 1 496 7 is_stmt 0 view .LVU237
 795 002e 0021     		movs	r1, #0
 796 0030 0548     		ldr	r0, .L58
 797 0032 FFF7FEFF 		bl	HAL_I2CEx_ConfigDigitalFilter
ARM GAS  C:\Users\Ali\AppData\Local\Temp\ccanl3Qu.s 			page 37


 798              	.LVL30:
 496:Core/Src/main.c ****   {
 799              		.loc 1 496 6 discriminator 1 view .LVU238
 800 0036 20B9     		cbnz	r0, .L57
 504:Core/Src/main.c **** 
 801              		.loc 1 504 1 view .LVU239
 802 0038 08BD     		pop	{r3, pc}
 803              	.L55:
 484:Core/Src/main.c ****   }
 804              		.loc 1 484 5 is_stmt 1 view .LVU240
 805 003a FFF7FEFF 		bl	Error_Handler
 806              	.LVL31:
 807              	.L56:
 491:Core/Src/main.c ****   }
 808              		.loc 1 491 5 view .LVU241
 809 003e FFF7FEFF 		bl	Error_Handler
 810              	.LVL32:
 811              	.L57:
 498:Core/Src/main.c ****   }
 812              		.loc 1 498 5 view .LVU242
 813 0042 FFF7FEFF 		bl	Error_Handler
 814              	.LVL33:
 815              	.L59:
 816 0046 00BF     		.align	2
 817              	.L58:
 818 0048 00000000 		.word	hi2c1
 819 004c 00540040 		.word	1073763328
 820 0050 583D5000 		.word	5258584
 821              		.cfi_endproc
 822              	.LFE297:
 824              		.section	.text.MX_I2C3_Init,"ax",%progbits
 825              		.align	1
 826              		.syntax unified
 827              		.thumb
 828              		.thumb_func
 830              	MX_I2C3_Init:
 831              	.LFB298:
 512:Core/Src/main.c **** 
 832              		.loc 1 512 1 view -0
 833              		.cfi_startproc
 834              		@ args = 0, pretend = 0, frame = 0
 835              		@ frame_needed = 0, uses_anonymous_args = 0
 836 0000 08B5     		push	{r3, lr}
 837              		.cfi_def_cfa_offset 8
 838              		.cfi_offset 3, -8
 839              		.cfi_offset 14, -4
 521:Core/Src/main.c ****   hi2c3.Init.Timing = 0x00503D58;
 840              		.loc 1 521 3 view .LVU244
 521:Core/Src/main.c ****   hi2c3.Init.Timing = 0x00503D58;
 841              		.loc 1 521 18 is_stmt 0 view .LVU245
 842 0002 1148     		ldr	r0, .L68
 843 0004 114B     		ldr	r3, .L68+4
 844 0006 0360     		str	r3, [r0]
 522:Core/Src/main.c ****   hi2c3.Init.OwnAddress1 = 0;
 845              		.loc 1 522 3 is_stmt 1 view .LVU246
 522:Core/Src/main.c ****   hi2c3.Init.OwnAddress1 = 0;
 846              		.loc 1 522 21 is_stmt 0 view .LVU247
ARM GAS  C:\Users\Ali\AppData\Local\Temp\ccanl3Qu.s 			page 38


 847 0008 114B     		ldr	r3, .L68+8
 848 000a 4360     		str	r3, [r0, #4]
 523:Core/Src/main.c ****   hi2c3.Init.AddressingMode = I2C_ADDRESSINGMODE_7BIT;
 849              		.loc 1 523 3 is_stmt 1 view .LVU248
 523:Core/Src/main.c ****   hi2c3.Init.AddressingMode = I2C_ADDRESSINGMODE_7BIT;
 850              		.loc 1 523 26 is_stmt 0 view .LVU249
 851 000c 0023     		movs	r3, #0
 852 000e 8360     		str	r3, [r0, #8]
 524:Core/Src/main.c ****   hi2c3.Init.DualAddressMode = I2C_DUALADDRESS_DISABLE;
 853              		.loc 1 524 3 is_stmt 1 view .LVU250
 524:Core/Src/main.c ****   hi2c3.Init.DualAddressMode = I2C_DUALADDRESS_DISABLE;
 854              		.loc 1 524 29 is_stmt 0 view .LVU251
 855 0010 0122     		movs	r2, #1
 856 0012 C260     		str	r2, [r0, #12]
 525:Core/Src/main.c ****   hi2c3.Init.OwnAddress2 = 0;
 857              		.loc 1 525 3 is_stmt 1 view .LVU252
 525:Core/Src/main.c ****   hi2c3.Init.OwnAddress2 = 0;
 858              		.loc 1 525 30 is_stmt 0 view .LVU253
 859 0014 0361     		str	r3, [r0, #16]
 526:Core/Src/main.c ****   hi2c3.Init.OwnAddress2Masks = I2C_OA2_NOMASK;
 860              		.loc 1 526 3 is_stmt 1 view .LVU254
 526:Core/Src/main.c ****   hi2c3.Init.OwnAddress2Masks = I2C_OA2_NOMASK;
 861              		.loc 1 526 26 is_stmt 0 view .LVU255
 862 0016 4361     		str	r3, [r0, #20]
 527:Core/Src/main.c ****   hi2c3.Init.GeneralCallMode = I2C_GENERALCALL_DISABLE;
 863              		.loc 1 527 3 is_stmt 1 view .LVU256
 527:Core/Src/main.c ****   hi2c3.Init.GeneralCallMode = I2C_GENERALCALL_DISABLE;
 864              		.loc 1 527 31 is_stmt 0 view .LVU257
 865 0018 8361     		str	r3, [r0, #24]
 528:Core/Src/main.c ****   hi2c3.Init.NoStretchMode = I2C_NOSTRETCH_DISABLE;
 866              		.loc 1 528 3 is_stmt 1 view .LVU258
 528:Core/Src/main.c ****   hi2c3.Init.NoStretchMode = I2C_NOSTRETCH_DISABLE;
 867              		.loc 1 528 30 is_stmt 0 view .LVU259
 868 001a C361     		str	r3, [r0, #28]
 529:Core/Src/main.c ****   if (HAL_I2C_Init(&hi2c3) != HAL_OK)
 869              		.loc 1 529 3 is_stmt 1 view .LVU260
 529:Core/Src/main.c ****   if (HAL_I2C_Init(&hi2c3) != HAL_OK)
 870              		.loc 1 529 28 is_stmt 0 view .LVU261
 871 001c 0362     		str	r3, [r0, #32]
 530:Core/Src/main.c ****   {
 872              		.loc 1 530 3 is_stmt 1 view .LVU262
 530:Core/Src/main.c ****   {
 873              		.loc 1 530 7 is_stmt 0 view .LVU263
 874 001e FFF7FEFF 		bl	HAL_I2C_Init
 875              	.LVL34:
 530:Core/Src/main.c ****   {
 876              		.loc 1 530 6 discriminator 1 view .LVU264
 877 0022 50B9     		cbnz	r0, .L65
 537:Core/Src/main.c ****   {
 878              		.loc 1 537 3 is_stmt 1 view .LVU265
 537:Core/Src/main.c ****   {
 879              		.loc 1 537 7 is_stmt 0 view .LVU266
 880 0024 0021     		movs	r1, #0
 881 0026 0848     		ldr	r0, .L68
 882 0028 FFF7FEFF 		bl	HAL_I2CEx_ConfigAnalogFilter
 883              	.LVL35:
 537:Core/Src/main.c ****   {
ARM GAS  C:\Users\Ali\AppData\Local\Temp\ccanl3Qu.s 			page 39


 884              		.loc 1 537 6 discriminator 1 view .LVU267
 885 002c 38B9     		cbnz	r0, .L66
 544:Core/Src/main.c ****   {
 886              		.loc 1 544 3 is_stmt 1 view .LVU268
 544:Core/Src/main.c ****   {
 887              		.loc 1 544 7 is_stmt 0 view .LVU269
 888 002e 0021     		movs	r1, #0
 889 0030 0548     		ldr	r0, .L68
 890 0032 FFF7FEFF 		bl	HAL_I2CEx_ConfigDigitalFilter
 891              	.LVL36:
 544:Core/Src/main.c ****   {
 892              		.loc 1 544 6 discriminator 1 view .LVU270
 893 0036 20B9     		cbnz	r0, .L67
 552:Core/Src/main.c **** 
 894              		.loc 1 552 1 view .LVU271
 895 0038 08BD     		pop	{r3, pc}
 896              	.L65:
 532:Core/Src/main.c ****   }
 897              		.loc 1 532 5 is_stmt 1 view .LVU272
 898 003a FFF7FEFF 		bl	Error_Handler
 899              	.LVL37:
 900              	.L66:
 539:Core/Src/main.c ****   }
 901              		.loc 1 539 5 view .LVU273
 902 003e FFF7FEFF 		bl	Error_Handler
 903              	.LVL38:
 904              	.L67:
 546:Core/Src/main.c ****   }
 905              		.loc 1 546 5 view .LVU274
 906 0042 FFF7FEFF 		bl	Error_Handler
 907              	.LVL39:
 908              	.L69:
 909 0046 00BF     		.align	2
 910              	.L68:
 911 0048 00000000 		.word	hi2c3
 912 004c 005C0040 		.word	1073765376
 913 0050 583D5000 		.word	5258584
 914              		.cfi_endproc
 915              	.LFE298:
 917              		.section	.text.SystemClock_Config,"ax",%progbits
 918              		.align	1
 919              		.global	SystemClock_Config
 920              		.syntax unified
 921              		.thumb
 922              		.thumb_func
 924              	SystemClock_Config:
 925              	.LFB293:
 266:Core/Src/main.c ****   RCC_OscInitTypeDef RCC_OscInitStruct = {0};
 926              		.loc 1 266 1 view -0
 927              		.cfi_startproc
 928              		@ args = 0, pretend = 0, frame = 88
 929              		@ frame_needed = 0, uses_anonymous_args = 0
 930 0000 00B5     		push	{lr}
 931              		.cfi_def_cfa_offset 4
 932              		.cfi_offset 14, -4
 933 0002 97B0     		sub	sp, sp, #92
 934              		.cfi_def_cfa_offset 96
ARM GAS  C:\Users\Ali\AppData\Local\Temp\ccanl3Qu.s 			page 40


 267:Core/Src/main.c ****   RCC_ClkInitTypeDef RCC_ClkInitStruct = {0};
 935              		.loc 1 267 3 view .LVU276
 267:Core/Src/main.c ****   RCC_ClkInitTypeDef RCC_ClkInitStruct = {0};
 936              		.loc 1 267 22 is_stmt 0 view .LVU277
 937 0004 4422     		movs	r2, #68
 938 0006 0021     		movs	r1, #0
 939 0008 05A8     		add	r0, sp, #20
 940 000a FFF7FEFF 		bl	memset
 941              	.LVL40:
 268:Core/Src/main.c **** 
 942              		.loc 1 268 3 is_stmt 1 view .LVU278
 268:Core/Src/main.c **** 
 943              		.loc 1 268 22 is_stmt 0 view .LVU279
 944 000e 0023     		movs	r3, #0
 945 0010 0093     		str	r3, [sp]
 946 0012 0193     		str	r3, [sp, #4]
 947 0014 0293     		str	r3, [sp, #8]
 948 0016 0393     		str	r3, [sp, #12]
 949 0018 0493     		str	r3, [sp, #16]
 272:Core/Src/main.c ****   {
 950              		.loc 1 272 3 is_stmt 1 view .LVU280
 272:Core/Src/main.c ****   {
 951              		.loc 1 272 7 is_stmt 0 view .LVU281
 952 001a 4FF40070 		mov	r0, #512
 953 001e FFF7FEFF 		bl	HAL_PWREx_ControlVoltageScaling
 954              	.LVL41:
 272:Core/Src/main.c ****   {
 955              		.loc 1 272 6 discriminator 1 view .LVU282
 956 0022 18BB     		cbnz	r0, .L75
 280:Core/Src/main.c ****   RCC_OscInitStruct.HSIState = RCC_HSI_ON;
 957              		.loc 1 280 3 is_stmt 1 view .LVU283
 280:Core/Src/main.c ****   RCC_OscInitStruct.HSIState = RCC_HSI_ON;
 958              		.loc 1 280 36 is_stmt 0 view .LVU284
 959 0024 0223     		movs	r3, #2
 960 0026 0593     		str	r3, [sp, #20]
 281:Core/Src/main.c ****   RCC_OscInitStruct.HSICalibrationValue = RCC_HSICALIBRATION_DEFAULT;
 961              		.loc 1 281 3 is_stmt 1 view .LVU285
 281:Core/Src/main.c ****   RCC_OscInitStruct.HSICalibrationValue = RCC_HSICALIBRATION_DEFAULT;
 962              		.loc 1 281 30 is_stmt 0 view .LVU286
 963 0028 4FF48072 		mov	r2, #256
 964 002c 0892     		str	r2, [sp, #32]
 282:Core/Src/main.c ****   RCC_OscInitStruct.PLL.PLLState = RCC_PLL_ON;
 965              		.loc 1 282 3 is_stmt 1 view .LVU287
 282:Core/Src/main.c ****   RCC_OscInitStruct.PLL.PLLState = RCC_PLL_ON;
 966              		.loc 1 282 41 is_stmt 0 view .LVU288
 967 002e 1022     		movs	r2, #16
 968 0030 0992     		str	r2, [sp, #36]
 283:Core/Src/main.c ****   RCC_OscInitStruct.PLL.PLLSource = RCC_PLLSOURCE_HSI;
 969              		.loc 1 283 3 is_stmt 1 view .LVU289
 283:Core/Src/main.c ****   RCC_OscInitStruct.PLL.PLLSource = RCC_PLLSOURCE_HSI;
 970              		.loc 1 283 34 is_stmt 0 view .LVU290
 971 0032 0F93     		str	r3, [sp, #60]
 284:Core/Src/main.c ****   RCC_OscInitStruct.PLL.PLLM = 2;
 972              		.loc 1 284 3 is_stmt 1 view .LVU291
 284:Core/Src/main.c ****   RCC_OscInitStruct.PLL.PLLM = 2;
 973              		.loc 1 284 35 is_stmt 0 view .LVU292
 974 0034 1093     		str	r3, [sp, #64]
ARM GAS  C:\Users\Ali\AppData\Local\Temp\ccanl3Qu.s 			page 41


 285:Core/Src/main.c ****   RCC_OscInitStruct.PLL.PLLN = 20;
 975              		.loc 1 285 3 is_stmt 1 view .LVU293
 285:Core/Src/main.c ****   RCC_OscInitStruct.PLL.PLLN = 20;
 976              		.loc 1 285 30 is_stmt 0 view .LVU294
 977 0036 1193     		str	r3, [sp, #68]
 286:Core/Src/main.c ****   RCC_OscInitStruct.PLL.PLLP = RCC_PLLP_DIV7;
 978              		.loc 1 286 3 is_stmt 1 view .LVU295
 286:Core/Src/main.c ****   RCC_OscInitStruct.PLL.PLLP = RCC_PLLP_DIV7;
 979              		.loc 1 286 30 is_stmt 0 view .LVU296
 980 0038 1422     		movs	r2, #20
 981 003a 1292     		str	r2, [sp, #72]
 287:Core/Src/main.c ****   RCC_OscInitStruct.PLL.PLLQ = RCC_PLLQ_DIV2;
 982              		.loc 1 287 3 is_stmt 1 view .LVU297
 287:Core/Src/main.c ****   RCC_OscInitStruct.PLL.PLLQ = RCC_PLLQ_DIV2;
 983              		.loc 1 287 30 is_stmt 0 view .LVU298
 984 003c 0722     		movs	r2, #7
 985 003e 1392     		str	r2, [sp, #76]
 288:Core/Src/main.c ****   RCC_OscInitStruct.PLL.PLLR = RCC_PLLR_DIV2;
 986              		.loc 1 288 3 is_stmt 1 view .LVU299
 288:Core/Src/main.c ****   RCC_OscInitStruct.PLL.PLLR = RCC_PLLR_DIV2;
 987              		.loc 1 288 30 is_stmt 0 view .LVU300
 988 0040 1493     		str	r3, [sp, #80]
 289:Core/Src/main.c ****   if (HAL_RCC_OscConfig(&RCC_OscInitStruct) != HAL_OK)
 989              		.loc 1 289 3 is_stmt 1 view .LVU301
 289:Core/Src/main.c ****   if (HAL_RCC_OscConfig(&RCC_OscInitStruct) != HAL_OK)
 990              		.loc 1 289 30 is_stmt 0 view .LVU302
 991 0042 1593     		str	r3, [sp, #84]
 290:Core/Src/main.c ****   {
 992              		.loc 1 290 3 is_stmt 1 view .LVU303
 290:Core/Src/main.c ****   {
 993              		.loc 1 290 7 is_stmt 0 view .LVU304
 994 0044 05A8     		add	r0, sp, #20
 995 0046 FFF7FEFF 		bl	HAL_RCC_OscConfig
 996              	.LVL42:
 290:Core/Src/main.c ****   {
 997              		.loc 1 290 6 discriminator 1 view .LVU305
 998 004a 88B9     		cbnz	r0, .L76
 297:Core/Src/main.c ****                               |RCC_CLOCKTYPE_PCLK1|RCC_CLOCKTYPE_PCLK2;
 999              		.loc 1 297 3 is_stmt 1 view .LVU306
 297:Core/Src/main.c ****                               |RCC_CLOCKTYPE_PCLK1|RCC_CLOCKTYPE_PCLK2;
 1000              		.loc 1 297 31 is_stmt 0 view .LVU307
 1001 004c 0F23     		movs	r3, #15
 1002 004e 0093     		str	r3, [sp]
 299:Core/Src/main.c ****   RCC_ClkInitStruct.AHBCLKDivider = RCC_SYSCLK_DIV1;
 1003              		.loc 1 299 3 is_stmt 1 view .LVU308
 299:Core/Src/main.c ****   RCC_ClkInitStruct.AHBCLKDivider = RCC_SYSCLK_DIV1;
 1004              		.loc 1 299 34 is_stmt 0 view .LVU309
 1005 0050 0323     		movs	r3, #3
 1006 0052 0193     		str	r3, [sp, #4]
 300:Core/Src/main.c ****   RCC_ClkInitStruct.APB1CLKDivider = RCC_HCLK_DIV1;
 1007              		.loc 1 300 3 is_stmt 1 view .LVU310
 300:Core/Src/main.c ****   RCC_ClkInitStruct.APB1CLKDivider = RCC_HCLK_DIV1;
 1008              		.loc 1 300 35 is_stmt 0 view .LVU311
 1009 0054 0023     		movs	r3, #0
 1010 0056 0293     		str	r3, [sp, #8]
 301:Core/Src/main.c ****   RCC_ClkInitStruct.APB2CLKDivider = RCC_HCLK_DIV1;
 1011              		.loc 1 301 3 is_stmt 1 view .LVU312
ARM GAS  C:\Users\Ali\AppData\Local\Temp\ccanl3Qu.s 			page 42


 301:Core/Src/main.c ****   RCC_ClkInitStruct.APB2CLKDivider = RCC_HCLK_DIV1;
 1012              		.loc 1 301 36 is_stmt 0 view .LVU313
 1013 0058 0393     		str	r3, [sp, #12]
 302:Core/Src/main.c **** 
 1014              		.loc 1 302 3 is_stmt 1 view .LVU314
 302:Core/Src/main.c **** 
 1015              		.loc 1 302 36 is_stmt 0 view .LVU315
 1016 005a 0493     		str	r3, [sp, #16]
 304:Core/Src/main.c ****   {
 1017              		.loc 1 304 3 is_stmt 1 view .LVU316
 304:Core/Src/main.c ****   {
 1018              		.loc 1 304 7 is_stmt 0 view .LVU317
 1019 005c 0421     		movs	r1, #4
 1020 005e 6846     		mov	r0, sp
 1021 0060 FFF7FEFF 		bl	HAL_RCC_ClockConfig
 1022              	.LVL43:
 304:Core/Src/main.c ****   {
 1023              		.loc 1 304 6 discriminator 1 view .LVU318
 1024 0064 30B9     		cbnz	r0, .L77
 308:Core/Src/main.c **** 
 1025              		.loc 1 308 1 view .LVU319
 1026 0066 17B0     		add	sp, sp, #92
 1027              		.cfi_remember_state
 1028              		.cfi_def_cfa_offset 4
 1029              		@ sp needed
 1030 0068 5DF804FB 		ldr	pc, [sp], #4
 1031              	.L75:
 1032              		.cfi_restore_state
 274:Core/Src/main.c ****   }
 1033              		.loc 1 274 5 is_stmt 1 view .LVU320
 1034 006c FFF7FEFF 		bl	Error_Handler
 1035              	.LVL44:
 1036              	.L76:
 292:Core/Src/main.c ****   }
 1037              		.loc 1 292 5 view .LVU321
 1038 0070 FFF7FEFF 		bl	Error_Handler
 1039              	.LVL45:
 1040              	.L77:
 306:Core/Src/main.c ****   }
 1041              		.loc 1 306 5 view .LVU322
 1042 0074 FFF7FEFF 		bl	Error_Handler
 1043              	.LVL46:
 1044              		.cfi_endproc
 1045              	.LFE293:
 1047              		.section	.text.main,"ax",%progbits
 1048              		.align	1
 1049              		.global	main
 1050              		.syntax unified
 1051              		.thumb
 1052              		.thumb_func
 1054              	main:
 1055              	.LFB292:
 130:Core/Src/main.c **** 
 1056              		.loc 1 130 1 view -0
 1057              		.cfi_startproc
 1058              		@ Volatile: function does not return.
 1059              		@ args = 0, pretend = 0, frame = 0
ARM GAS  C:\Users\Ali\AppData\Local\Temp\ccanl3Qu.s 			page 43


 1060              		@ frame_needed = 0, uses_anonymous_args = 0
 1061 0000 08B5     		push	{r3, lr}
 1062              		.cfi_def_cfa_offset 8
 1063              		.cfi_offset 3, -8
 1064              		.cfi_offset 14, -4
 134:Core/Src/main.c **** 
 1065              		.loc 1 134 3 view .LVU324
 1066              	.LBB16:
 1067              	.LBI16:
 207:Drivers/CMSIS/Include/cmsis_gcc.h **** {
 1068              		.loc 3 207 27 view .LVU325
 1069              	.LBB17:
 1070              		.loc 3 209 3 view .LVU326
 1071              		.syntax unified
 1072              	@ 209 "Drivers/CMSIS/Include/cmsis_gcc.h" 1
 1073 0002 72B6     		cpsid i
 1074              	@ 0 "" 2
 1075              		.thumb
 1076              		.syntax unified
 1077              	.LBE17:
 1078              	.LBE16:
 137:Core/Src/main.c ****   SysTick->LOAD = 0;
 1079              		.loc 1 137 3 view .LVU327
 137:Core/Src/main.c ****   SysTick->LOAD = 0;
 1080              		.loc 1 137 17 is_stmt 0 view .LVU328
 1081 0004 4FF0E023 		mov	r3, #-536813568
 1082 0008 0022     		movs	r2, #0
 1083 000a 1A61     		str	r2, [r3, #16]
 138:Core/Src/main.c ****   SysTick->VAL = 0;
 1084              		.loc 1 138 3 is_stmt 1 view .LVU329
 138:Core/Src/main.c ****   SysTick->VAL = 0;
 1085              		.loc 1 138 17 is_stmt 0 view .LVU330
 1086 000c 5A61     		str	r2, [r3, #20]
 139:Core/Src/main.c **** 
 1087              		.loc 1 139 3 is_stmt 1 view .LVU331
 139:Core/Src/main.c **** 
 1088              		.loc 1 139 16 is_stmt 0 view .LVU332
 1089 000e 9A61     		str	r2, [r3, #24]
 146:Core/Src/main.c **** 
 1090              		.loc 1 146 3 is_stmt 1 view .LVU333
 1091 0010 FFF7FEFF 		bl	HAL_Init
 1092              	.LVL47:
 153:Core/Src/main.c **** 
 1093              		.loc 1 153 3 view .LVU334
 1094 0014 FFF7FEFF 		bl	SystemClock_Config
 1095              	.LVL48:
 160:Core/Src/main.c ****   MX_ADC1_Init();
 1096              		.loc 1 160 3 view .LVU335
 1097 0018 FFF7FEFF 		bl	MX_GPIO_Init
 1098              	.LVL49:
 161:Core/Src/main.c ****   MX_CAN1_Init();
 1099              		.loc 1 161 3 view .LVU336
 1100 001c FFF7FEFF 		bl	MX_ADC1_Init
 1101              	.LVL50:
 162:Core/Src/main.c ****   MX_CRC_Init();
 1102              		.loc 1 162 3 view .LVU337
 1103 0020 FFF7FEFF 		bl	MX_CAN1_Init
ARM GAS  C:\Users\Ali\AppData\Local\Temp\ccanl3Qu.s 			page 44


 1104              	.LVL51:
 163:Core/Src/main.c ****   MX_I2C1_Init();
 1105              		.loc 1 163 3 view .LVU338
 1106 0024 FFF7FEFF 		bl	MX_CRC_Init
 1107              	.LVL52:
 164:Core/Src/main.c ****   MX_I2C3_Init();
 1108              		.loc 1 164 3 view .LVU339
 1109 0028 FFF7FEFF 		bl	MX_I2C1_Init
 1110              	.LVL53:
 165:Core/Src/main.c ****   /* USER CODE BEGIN 2 */
 1111              		.loc 1 165 3 view .LVU340
 1112 002c FFF7FEFF 		bl	MX_I2C3_Init
 1113              	.LVL54:
 169:Core/Src/main.c ****   {
 1114              		.loc 1 169 3 view .LVU341
 169:Core/Src/main.c ****   {
 1115              		.loc 1 169 7 is_stmt 0 view .LVU342
 1116 0030 7F21     		movs	r1, #127
 1117 0032 2548     		ldr	r0, .L85
 1118 0034 FFF7FEFF 		bl	HAL_ADCEx_Calibration_Start
 1119              	.LVL55:
 169:Core/Src/main.c ****   {
 1120              		.loc 1 169 6 discriminator 1 view .LVU343
 1121 0038 08B1     		cbz	r0, .L79
 171:Core/Src/main.c ****   }
 1122              		.loc 1 171 5 is_stmt 1 view .LVU344
 1123 003a FFF7FEFF 		bl	Error_Handler
 1124              	.LVL56:
 1125              	.L79:
 175:Core/Src/main.c ****   {
 1126              		.loc 1 175 3 view .LVU345
 175:Core/Src/main.c ****   {
 1127              		.loc 1 175 7 is_stmt 0 view .LVU346
 1128 003e 2348     		ldr	r0, .L85+4
 1129 0040 FFF7FEFF 		bl	HAL_CAN_Start
 1130              	.LVL57:
 175:Core/Src/main.c ****   {
 1131              		.loc 1 175 6 discriminator 1 view .LVU347
 1132 0044 08B1     		cbz	r0, .L80
 177:Core/Src/main.c ****   }
 1133              		.loc 1 177 5 is_stmt 1 view .LVU348
 1134 0046 FFF7FEFF 		bl	Error_Handler
 1135              	.LVL58:
 1136              	.L80:
 183:Core/Src/main.c ****   /* Create the mutex(es) */
 1137              		.loc 1 183 3 view .LVU349
 1138 004a FFF7FEFF 		bl	osKernelInitialize
 1139              	.LVL59:
 186:Core/Src/main.c **** 
 1140              		.loc 1 186 3 view .LVU350
 186:Core/Src/main.c **** 
 1141              		.loc 1 186 16 is_stmt 0 view .LVU351
 1142 004e 2048     		ldr	r0, .L85+8
 1143 0050 FFF7FEFF 		bl	osMutexNew
 1144              	.LVL60:
 186:Core/Src/main.c **** 
 1145              		.loc 1 186 14 discriminator 1 view .LVU352
ARM GAS  C:\Users\Ali\AppData\Local\Temp\ccanl3Qu.s 			page 45


 1146 0054 1F4B     		ldr	r3, .L85+12
 1147 0056 1860     		str	r0, [r3]
 189:Core/Src/main.c **** 
 1148              		.loc 1 189 3 is_stmt 1 view .LVU353
 189:Core/Src/main.c **** 
 1149              		.loc 1 189 16 is_stmt 0 view .LVU354
 1150 0058 1F48     		ldr	r0, .L85+16
 1151 005a FFF7FEFF 		bl	osMutexNew
 1152              	.LVL61:
 189:Core/Src/main.c **** 
 1153              		.loc 1 189 14 discriminator 1 view .LVU355
 1154 005e 1F4B     		ldr	r3, .L85+20
 1155 0060 1860     		str	r0, [r3]
 192:Core/Src/main.c **** 
 1156              		.loc 1 192 3 is_stmt 1 view .LVU356
 192:Core/Src/main.c **** 
 1157              		.loc 1 192 15 is_stmt 0 view .LVU357
 1158 0062 1F48     		ldr	r0, .L85+24
 1159 0064 FFF7FEFF 		bl	osMutexNew
 1160              	.LVL62:
 192:Core/Src/main.c **** 
 1161              		.loc 1 192 13 discriminator 1 view .LVU358
 1162 0068 1E4B     		ldr	r3, .L85+28
 1163 006a 1860     		str	r0, [r3]
 208:Core/Src/main.c ****   
 1164              		.loc 1 208 3 is_stmt 1 view .LVU359
 1165 006c FFF7FEFF 		bl	Config_Init
 1166              	.LVL63:
 211:Core/Src/main.c ****   {
 1167              		.loc 1 211 3 view .LVU360
 211:Core/Src/main.c ****   {
 1168              		.loc 1 211 7 is_stmt 0 view .LVU361
 1169 0070 FFF7FEFF 		bl	ErrorMgr_Init
 1170              	.LVL64:
 211:Core/Src/main.c ****   {
 1171              		.loc 1 211 6 discriminator 1 view .LVU362
 1172 0074 08B1     		cbz	r0, .L81
 213:Core/Src/main.c ****   }
 1173              		.loc 1 213 5 is_stmt 1 view .LVU363
 1174 0076 FFF7FEFF 		bl	Error_Handler
 1175              	.LVL65:
 1176              	.L81:
 217:Core/Src/main.c ****   {
 1177              		.loc 1 217 3 view .LVU364
 217:Core/Src/main.c ****   {
 1178              		.loc 1 217 7 is_stmt 0 view .LVU365
 1179 007a FFF7FEFF 		bl	CAN_Manager_Init
 1180              	.LVL66:
 217:Core/Src/main.c ****   {
 1181              		.loc 1 217 6 discriminator 1 view .LVU366
 1182 007e 08B1     		cbz	r0, .L82
 219:Core/Src/main.c ****   }
 1183              		.loc 1 219 5 is_stmt 1 view .LVU367
 1184 0080 FFF7FEFF 		bl	Error_Handler
 1185              	.LVL67:
 1186              	.L82:
 223:Core/Src/main.c ****   /* USER CODE END RTOS_QUEUES */
ARM GAS  C:\Users\Ali\AppData\Local\Temp\ccanl3Qu.s 			page 46


 1187              		.loc 1 223 3 view .LVU368
 1188 0084 0120     		movs	r0, #1
 1189 0086 FFF7FEFF 		bl	ErrorMgr_SetState
 1190              	.LVL68:
 228:Core/Src/main.c **** 
 1191              		.loc 1 228 3 view .LVU369
 228:Core/Src/main.c **** 
 1192              		.loc 1 228 23 is_stmt 0 view .LVU370
 1193 008a 174A     		ldr	r2, .L85+32
 1194 008c 0021     		movs	r1, #0
 1195 008e 1748     		ldr	r0, .L85+36
 1196 0090 FFF7FEFF 		bl	osThreadNew
 1197              	.LVL69:
 228:Core/Src/main.c **** 
 1198              		.loc 1 228 21 discriminator 1 view .LVU371
 1199 0094 164B     		ldr	r3, .L85+40
 1200 0096 1860     		str	r0, [r3]
 232:Core/Src/main.c **** 
 1201              		.loc 1 232 3 is_stmt 1 view .LVU372
 232:Core/Src/main.c **** 
 1202              		.loc 1 232 23 is_stmt 0 view .LVU373
 1203 0098 164A     		ldr	r2, .L85+44
 1204 009a 0021     		movs	r1, #0
 1205 009c 1648     		ldr	r0, .L85+48
 1206 009e FFF7FEFF 		bl	osThreadNew
 1207              	.LVL70:
 232:Core/Src/main.c **** 
 1208              		.loc 1 232 21 discriminator 1 view .LVU374
 1209 00a2 164B     		ldr	r3, .L85+52
 1210 00a4 1860     		str	r0, [r3]
 235:Core/Src/main.c **** 
 1211              		.loc 1 235 3 is_stmt 1 view .LVU375
 235:Core/Src/main.c **** 
 1212              		.loc 1 235 27 is_stmt 0 view .LVU376
 1213 00a6 164A     		ldr	r2, .L85+56
 1214 00a8 0021     		movs	r1, #0
 1215 00aa 1648     		ldr	r0, .L85+60
 1216 00ac FFF7FEFF 		bl	osThreadNew
 1217              	.LVL71:
 235:Core/Src/main.c **** 
 1218              		.loc 1 235 25 discriminator 1 view .LVU377
 1219 00b0 154B     		ldr	r3, .L85+64
 1220 00b2 1860     		str	r0, [r3]
 238:Core/Src/main.c ****   /* USER CODE END RTOS_THREADS */
 1221              		.loc 1 238 3 is_stmt 1 view .LVU378
 238:Core/Src/main.c ****   /* USER CODE END RTOS_THREADS */
 1222              		.loc 1 238 22 is_stmt 0 view .LVU379
 1223 00b4 154A     		ldr	r2, .L85+68
 1224 00b6 0021     		movs	r1, #0
 1225 00b8 1548     		ldr	r0, .L85+72
 1226 00ba FFF7FEFF 		bl	osThreadNew
 1227              	.LVL72:
 238:Core/Src/main.c ****   /* USER CODE END RTOS_THREADS */
 1228              		.loc 1 238 20 discriminator 1 view .LVU380
 1229 00be 154B     		ldr	r3, .L85+76
 1230 00c0 1860     		str	r0, [r3]
 246:Core/Src/main.c **** 
ARM GAS  C:\Users\Ali\AppData\Local\Temp\ccanl3Qu.s 			page 47


 1231              		.loc 1 246 3 is_stmt 1 view .LVU381
 1232 00c2 FFF7FEFF 		bl	osKernelStart
 1233              	.LVL73:
 1234              	.L83:
 252:Core/Src/main.c ****   {
 1235              		.loc 1 252 3 view .LVU382
 257:Core/Src/main.c ****   /* USER CODE END 3 */
 1236              		.loc 1 257 3 view .LVU383
 252:Core/Src/main.c ****   {
 1237              		.loc 1 252 9 view .LVU384
 1238 00c6 FEE7     		b	.L83
 1239              	.L86:
 1240              		.align	2
 1241              	.L85:
 1242 00c8 00000000 		.word	hadc1
 1243 00cc 00000000 		.word	hcan1
 1244 00d0 00000000 		.word	I2C1_attributes
 1245 00d4 00000000 		.word	I2C1Handle
 1246 00d8 00000000 		.word	I2C3_attributes
 1247 00dc 00000000 		.word	I2C3Handle
 1248 00e0 00000000 		.word	CAN_attributes
 1249 00e4 00000000 		.word	CANHandle
 1250 00e8 00000000 		.word	defaultTask_attributes
 1251 00ec 00000000 		.word	StartDefaultTask
 1252 00f0 00000000 		.word	defaultTaskHandle
 1253 00f4 00000000 		.word	CellVoltage_attributes
 1254 00f8 00000000 		.word	ReadCellVoltage
 1255 00fc 00000000 		.word	CellVoltageHandle
 1256 0100 00000000 		.word	CellTemperature_attributes
 1257 0104 00000000 		.word	ReadCellTemps
 1258 0108 00000000 		.word	CellTemperatureHandle
 1259 010c 00000000 		.word	CANManager_attributes
 1260 0110 00000000 		.word	CAN_ManagerTask
 1261 0114 00000000 		.word	CANManagerHandle
 1262              		.cfi_endproc
 1263              	.LFE292:
 1265              		.global	CAN_attributes
 1266              		.section	.rodata.str1.4,"aMS",%progbits,1
 1267              		.align	2
 1268              	.LC0:
 1269 0000 43414E00 		.ascii	"CAN\000"
 1270              		.section	.rodata.CAN_attributes,"a"
 1271              		.align	2
 1274              	CAN_attributes:
 1275 0000 00000000 		.word	.LC0
 1276 0004 00000000 		.space	12
 1276      00000000 
 1276      00000000 
 1277              		.global	CANHandle
 1278              		.section	.bss.CANHandle,"aw",%nobits
 1279              		.align	2
 1282              	CANHandle:
 1283 0000 00000000 		.space	4
 1284              		.global	I2C3_attributes
 1285              		.section	.rodata.str1.4
 1286              		.align	2
 1287              	.LC1:
ARM GAS  C:\Users\Ali\AppData\Local\Temp\ccanl3Qu.s 			page 48


 1288 0004 49324333 		.ascii	"I2C3\000"
 1288      00
 1289              		.section	.rodata.I2C3_attributes,"a"
 1290              		.align	2
 1293              	I2C3_attributes:
 1294 0000 04000000 		.word	.LC1
 1295 0004 00000000 		.space	12
 1295      00000000 
 1295      00000000 
 1296              		.global	I2C3Handle
 1297              		.section	.bss.I2C3Handle,"aw",%nobits
 1298              		.align	2
 1301              	I2C3Handle:
 1302 0000 00000000 		.space	4
 1303              		.global	I2C1_attributes
 1304              		.section	.rodata.str1.4
 1305 0009 000000   		.align	2
 1306              	.LC2:
 1307 000c 49324331 		.ascii	"I2C1\000"
 1307      00
 1308              		.section	.rodata.I2C1_attributes,"a"
 1309              		.align	2
 1312              	I2C1_attributes:
 1313 0000 0C000000 		.word	.LC2
 1314 0004 00000000 		.space	12
 1314      00000000 
 1314      00000000 
 1315              		.global	I2C1Handle
 1316              		.section	.bss.I2C1Handle,"aw",%nobits
 1317              		.align	2
 1320              	I2C1Handle:
 1321 0000 00000000 		.space	4
 1322              		.global	CANManager_attributes
 1323              		.section	.rodata.str1.4
 1324 0011 000000   		.align	2
 1325              	.LC3:
 1326 0014 43414E4D 		.ascii	"CANManager\000"
 1326      616E6167 
 1326      657200
 1327              		.section	.rodata.CANManager_attributes,"a"
 1328              		.align	2
 1331              	CANManager_attributes:
 1332 0000 14000000 		.word	.LC3
 1333 0004 00000000 		.space	16
 1333      00000000 
 1333      00000000 
 1333      00000000 
 1334 0014 00040000 		.word	1024
 1335 0018 30000000 		.word	48
 1336 001c 00000000 		.space	8
 1336      00000000 
 1337              		.global	CANManagerHandle
 1338              		.section	.bss.CANManagerHandle,"aw",%nobits
 1339              		.align	2
 1342              	CANManagerHandle:
 1343 0000 00000000 		.space	4
 1344              		.global	CellTemperature_attributes
ARM GAS  C:\Users\Ali\AppData\Local\Temp\ccanl3Qu.s 			page 49


 1345              		.section	.rodata.str1.4
 1346 001f 00       		.align	2
 1347              	.LC4:
 1348 0020 43656C6C 		.ascii	"CellTemperature\000"
 1348      54656D70 
 1348      65726174 
 1348      75726500 
 1349              		.section	.rodata.CellTemperature_attributes,"a"
 1350              		.align	2
 1353              	CellTemperature_attributes:
 1354 0000 20000000 		.word	.LC4
 1355 0004 00000000 		.space	16
 1355      00000000 
 1355      00000000 
 1355      00000000 
 1356 0014 00020000 		.word	512
 1357 0018 28000000 		.word	40
 1358 001c 00000000 		.space	8
 1358      00000000 
 1359              		.global	CellTemperatureHandle
 1360              		.section	.bss.CellTemperatureHandle,"aw",%nobits
 1361              		.align	2
 1364              	CellTemperatureHandle:
 1365 0000 00000000 		.space	4
 1366              		.global	CellVoltage_attributes
 1367              		.section	.rodata.str1.4
 1368              		.align	2
 1369              	.LC5:
 1370 0030 43656C6C 		.ascii	"CellVoltage\000"
 1370      566F6C74 
 1370      61676500 
 1371              		.section	.rodata.CellVoltage_attributes,"a"
 1372              		.align	2
 1375              	CellVoltage_attributes:
 1376 0000 30000000 		.word	.LC5
 1377 0004 00000000 		.space	16
 1377      00000000 
 1377      00000000 
 1377      00000000 
 1378 0014 00020000 		.word	512
 1379 0018 28000000 		.word	40
 1380 001c 00000000 		.space	8
 1380      00000000 
 1381              		.global	CellVoltageHandle
 1382              		.section	.bss.CellVoltageHandle,"aw",%nobits
 1383              		.align	2
 1386              	CellVoltageHandle:
 1387 0000 00000000 		.space	4
 1388              		.global	defaultTask_attributes
 1389              		.section	.rodata.str1.4
 1390              		.align	2
 1391              	.LC6:
 1392 003c 64656661 		.ascii	"defaultTask\000"
 1392      756C7454 
 1392      61736B00 
 1393              		.section	.rodata.defaultTask_attributes,"a"
 1394              		.align	2
ARM GAS  C:\Users\Ali\AppData\Local\Temp\ccanl3Qu.s 			page 50


 1397              	defaultTask_attributes:
 1398 0000 3C000000 		.word	.LC6
 1399 0004 00000000 		.space	16
 1399      00000000 
 1399      00000000 
 1399      00000000 
 1400 0014 00020000 		.word	512
 1401 0018 18000000 		.word	24
 1402 001c 00000000 		.space	8
 1402      00000000 
 1403              		.global	defaultTaskHandle
 1404              		.section	.bss.defaultTaskHandle,"aw",%nobits
 1405              		.align	2
 1408              	defaultTaskHandle:
 1409 0000 00000000 		.space	4
 1410              		.global	hi2c3
 1411              		.section	.bss.hi2c3,"aw",%nobits
 1412              		.align	2
 1415              	hi2c3:
 1416 0000 00000000 		.space	84
 1416      00000000 
 1416      00000000 
 1416      00000000 
 1416      00000000 
 1417              		.global	hi2c1
 1418              		.section	.bss.hi2c1,"aw",%nobits
 1419              		.align	2
 1422              	hi2c1:
 1423 0000 00000000 		.space	84
 1423      00000000 
 1423      00000000 
 1423      00000000 
 1423      00000000 
 1424              		.global	hcrc
 1425              		.section	.bss.hcrc,"aw",%nobits
 1426              		.align	2
 1429              	hcrc:
 1430 0000 00000000 		.space	36
 1430      00000000 
 1430      00000000 
 1430      00000000 
 1430      00000000 
 1431              		.global	hcan1
 1432              		.section	.bss.hcan1,"aw",%nobits
 1433              		.align	2
 1436              	hcan1:
 1437 0000 00000000 		.space	40
 1437      00000000 
 1437      00000000 
 1437      00000000 
 1437      00000000 
 1438              		.global	hadc1
 1439              		.section	.bss.hadc1,"aw",%nobits
 1440              		.align	2
 1443              	hadc1:
 1444 0000 00000000 		.space	100
 1444      00000000 
ARM GAS  C:\Users\Ali\AppData\Local\Temp\ccanl3Qu.s 			page 51


 1444      00000000 
 1444      00000000 
 1444      00000000 
 1445              		.text
 1446              	.Letext0:
 1447              		.file 4 "C:/Users/Ali/AppData/Roaming/Code/User/globalStorage/bmd.stm32-for-vscode/@xpack-dev-tool
 1448              		.file 5 "C:/Users/Ali/AppData/Roaming/Code/User/globalStorage/bmd.stm32-for-vscode/@xpack-dev-tool
 1449              		.file 6 "Drivers/CMSIS/Include/core_cm4.h"
 1450              		.file 7 "Drivers/CMSIS/Device/ST/STM32L4xx/Include/stm32l432xx.h"
 1451              		.file 8 "Drivers/CMSIS/Device/ST/STM32L4xx/Include/stm32l4xx.h"
 1452              		.file 9 "Drivers/STM32L4xx_HAL_Driver/Inc/stm32l4xx_hal_def.h"
 1453              		.file 10 "Drivers/STM32L4xx_HAL_Driver/Inc/stm32l4xx_hal_rcc.h"
 1454              		.file 11 "Drivers/STM32L4xx_HAL_Driver/Inc/stm32l4xx_hal_gpio.h"
 1455              		.file 12 "Drivers/STM32L4xx_HAL_Driver/Inc/stm32l4xx_hal_dma.h"
 1456              		.file 13 "Drivers/STM32L4xx_HAL_Driver/Inc/stm32l4xx_hal_adc.h"
 1457              		.file 14 "Drivers/STM32L4xx_HAL_Driver/Inc/stm32l4xx_hal_can.h"
 1458              		.file 15 "Drivers/STM32L4xx_HAL_Driver/Inc/stm32l4xx_hal_crc.h"
 1459              		.file 16 "Drivers/STM32L4xx_HAL_Driver/Inc/stm32l4xx_hal_i2c.h"
 1460              		.file 17 "Drivers/STM32L4xx_HAL_Driver/Inc/stm32l4xx_hal_tim.h"
 1461              		.file 18 "Middlewares/Third_Party/FreeRTOS/Source/CMSIS_RTOS_V2/cmsis_os2.h"
 1462              		.file 19 "Core/Inc/cell_temp_handler.h"
 1463              		.file 20 "Core/Inc/error_manager.h"
 1464              		.file 21 "Drivers/STM32L4xx_HAL_Driver/Inc/stm32l4xx_hal_pwr_ex.h"
 1465              		.file 22 "Drivers/STM32L4xx_HAL_Driver/Inc/stm32l4xx_hal_i2c_ex.h"
 1466              		.file 23 "Core/Inc/can_manager.h"
 1467              		.file 24 "Drivers/STM32L4xx_HAL_Driver/Inc/stm32l4xx_hal.h"
 1468              		.file 25 "Core/Inc/config_manager.h"
 1469              		.file 26 "Drivers/STM32L4xx_HAL_Driver/Inc/stm32l4xx_hal_adc_ex.h"
 1470              		.file 27 "<built-in>"
ARM GAS  C:\Users\Ali\AppData\Local\Temp\ccanl3Qu.s 			page 52


DEFINED SYMBOLS
                            *ABS*:00000000 main.c
C:\Users\Ali\AppData\Local\Temp\ccanl3Qu.s:21     .text.MX_GPIO_Init:00000000 $t
C:\Users\Ali\AppData\Local\Temp\ccanl3Qu.s:26     .text.MX_GPIO_Init:00000000 MX_GPIO_Init
C:\Users\Ali\AppData\Local\Temp\ccanl3Qu.s:155    .text.MX_GPIO_Init:00000094 $d
C:\Users\Ali\AppData\Local\Temp\ccanl3Qu.s:161    .text.StartDefaultTask:00000000 $t
C:\Users\Ali\AppData\Local\Temp\ccanl3Qu.s:167    .text.StartDefaultTask:00000000 StartDefaultTask
C:\Users\Ali\AppData\Local\Temp\ccanl3Qu.s:193    .text.ReadCellVoltage:00000000 $t
C:\Users\Ali\AppData\Local\Temp\ccanl3Qu.s:199    .text.ReadCellVoltage:00000000 ReadCellVoltage
C:\Users\Ali\AppData\Local\Temp\ccanl3Qu.s:225    .text.ReadCellTemps:00000000 $t
C:\Users\Ali\AppData\Local\Temp\ccanl3Qu.s:231    .text.ReadCellTemps:00000000 ReadCellTemps
C:\Users\Ali\AppData\Local\Temp\ccanl3Qu.s:252    .text.vApplicationMallocFailedHook:00000000 $t
C:\Users\Ali\AppData\Local\Temp\ccanl3Qu.s:258    .text.vApplicationMallocFailedHook:00000000 vApplicationMallocFailedHook
C:\Users\Ali\AppData\Local\Temp\ccanl3Qu.s:317    .text.vApplicationMallocFailedHook:00000030 $d
C:\Users\Ali\AppData\Local\Temp\ccanl3Qu.s:324    .text.HAL_TIM_PeriodElapsedCallback:00000000 $t
C:\Users\Ali\AppData\Local\Temp\ccanl3Qu.s:330    .text.HAL_TIM_PeriodElapsedCallback:00000000 HAL_TIM_PeriodElapsedCallback
C:\Users\Ali\AppData\Local\Temp\ccanl3Qu.s:363    .text.HAL_TIM_PeriodElapsedCallback:00000014 $d
C:\Users\Ali\AppData\Local\Temp\ccanl3Qu.s:368    .text.Error_Handler:00000000 $t
C:\Users\Ali\AppData\Local\Temp\ccanl3Qu.s:374    .text.Error_Handler:00000000 Error_Handler
C:\Users\Ali\AppData\Local\Temp\ccanl3Qu.s:406    .text.MX_ADC1_Init:00000000 $t
C:\Users\Ali\AppData\Local\Temp\ccanl3Qu.s:411    .text.MX_ADC1_Init:00000000 MX_ADC1_Init
C:\Users\Ali\AppData\Local\Temp\ccanl3Qu.s:536    .text.MX_ADC1_Init:00000074 $d
C:\Users\Ali\AppData\Local\Temp\ccanl3Qu.s:1443   .bss.hadc1:00000000 hadc1
C:\Users\Ali\AppData\Local\Temp\ccanl3Qu.s:543    .text.MX_CAN1_Init:00000000 $t
C:\Users\Ali\AppData\Local\Temp\ccanl3Qu.s:548    .text.MX_CAN1_Init:00000000 MX_CAN1_Init
C:\Users\Ali\AppData\Local\Temp\ccanl3Qu.s:668    .text.MX_CAN1_Init:00000068 $d
C:\Users\Ali\AppData\Local\Temp\ccanl3Qu.s:1436   .bss.hcan1:00000000 hcan1
C:\Users\Ali\AppData\Local\Temp\ccanl3Qu.s:674    .text.MX_CRC_Init:00000000 $t
C:\Users\Ali\AppData\Local\Temp\ccanl3Qu.s:679    .text.MX_CRC_Init:00000000 MX_CRC_Init
C:\Users\Ali\AppData\Local\Temp\ccanl3Qu.s:726    .text.MX_CRC_Init:00000024 $d
C:\Users\Ali\AppData\Local\Temp\ccanl3Qu.s:1429   .bss.hcrc:00000000 hcrc
C:\Users\Ali\AppData\Local\Temp\ccanl3Qu.s:732    .text.MX_I2C1_Init:00000000 $t
C:\Users\Ali\AppData\Local\Temp\ccanl3Qu.s:737    .text.MX_I2C1_Init:00000000 MX_I2C1_Init
C:\Users\Ali\AppData\Local\Temp\ccanl3Qu.s:818    .text.MX_I2C1_Init:00000048 $d
C:\Users\Ali\AppData\Local\Temp\ccanl3Qu.s:1422   .bss.hi2c1:00000000 hi2c1
C:\Users\Ali\AppData\Local\Temp\ccanl3Qu.s:825    .text.MX_I2C3_Init:00000000 $t
C:\Users\Ali\AppData\Local\Temp\ccanl3Qu.s:830    .text.MX_I2C3_Init:00000000 MX_I2C3_Init
C:\Users\Ali\AppData\Local\Temp\ccanl3Qu.s:911    .text.MX_I2C3_Init:00000048 $d
C:\Users\Ali\AppData\Local\Temp\ccanl3Qu.s:1415   .bss.hi2c3:00000000 hi2c3
C:\Users\Ali\AppData\Local\Temp\ccanl3Qu.s:918    .text.SystemClock_Config:00000000 $t
C:\Users\Ali\AppData\Local\Temp\ccanl3Qu.s:924    .text.SystemClock_Config:00000000 SystemClock_Config
C:\Users\Ali\AppData\Local\Temp\ccanl3Qu.s:1048   .text.main:00000000 $t
C:\Users\Ali\AppData\Local\Temp\ccanl3Qu.s:1054   .text.main:00000000 main
C:\Users\Ali\AppData\Local\Temp\ccanl3Qu.s:1242   .text.main:000000c8 $d
C:\Users\Ali\AppData\Local\Temp\ccanl3Qu.s:1312   .rodata.I2C1_attributes:00000000 I2C1_attributes
C:\Users\Ali\AppData\Local\Temp\ccanl3Qu.s:1320   .bss.I2C1Handle:00000000 I2C1Handle
C:\Users\Ali\AppData\Local\Temp\ccanl3Qu.s:1293   .rodata.I2C3_attributes:00000000 I2C3_attributes
C:\Users\Ali\AppData\Local\Temp\ccanl3Qu.s:1301   .bss.I2C3Handle:00000000 I2C3Handle
C:\Users\Ali\AppData\Local\Temp\ccanl3Qu.s:1274   .rodata.CAN_attributes:00000000 CAN_attributes
C:\Users\Ali\AppData\Local\Temp\ccanl3Qu.s:1282   .bss.CANHandle:00000000 CANHandle
C:\Users\Ali\AppData\Local\Temp\ccanl3Qu.s:1397   .rodata.defaultTask_attributes:00000000 defaultTask_attributes
C:\Users\Ali\AppData\Local\Temp\ccanl3Qu.s:1408   .bss.defaultTaskHandle:00000000 defaultTaskHandle
C:\Users\Ali\AppData\Local\Temp\ccanl3Qu.s:1375   .rodata.CellVoltage_attributes:00000000 CellVoltage_attributes
C:\Users\Ali\AppData\Local\Temp\ccanl3Qu.s:1386   .bss.CellVoltageHandle:00000000 CellVoltageHandle
C:\Users\Ali\AppData\Local\Temp\ccanl3Qu.s:1353   .rodata.CellTemperature_attributes:00000000 CellTemperature_attributes
C:\Users\Ali\AppData\Local\Temp\ccanl3Qu.s:1364   .bss.CellTemperatureHandle:00000000 CellTemperatureHandle
C:\Users\Ali\AppData\Local\Temp\ccanl3Qu.s:1331   .rodata.CANManager_attributes:00000000 CANManager_attributes
ARM GAS  C:\Users\Ali\AppData\Local\Temp\ccanl3Qu.s 			page 53


C:\Users\Ali\AppData\Local\Temp\ccanl3Qu.s:1342   .bss.CANManagerHandle:00000000 CANManagerHandle
C:\Users\Ali\AppData\Local\Temp\ccanl3Qu.s:1267   .rodata.str1.4:00000000 $d
C:\Users\Ali\AppData\Local\Temp\ccanl3Qu.s:1271   .rodata.CAN_attributes:00000000 $d
C:\Users\Ali\AppData\Local\Temp\ccanl3Qu.s:1279   .bss.CANHandle:00000000 $d
C:\Users\Ali\AppData\Local\Temp\ccanl3Qu.s:1290   .rodata.I2C3_attributes:00000000 $d
C:\Users\Ali\AppData\Local\Temp\ccanl3Qu.s:1298   .bss.I2C3Handle:00000000 $d
C:\Users\Ali\AppData\Local\Temp\ccanl3Qu.s:1309   .rodata.I2C1_attributes:00000000 $d
C:\Users\Ali\AppData\Local\Temp\ccanl3Qu.s:1317   .bss.I2C1Handle:00000000 $d
C:\Users\Ali\AppData\Local\Temp\ccanl3Qu.s:1328   .rodata.CANManager_attributes:00000000 $d
C:\Users\Ali\AppData\Local\Temp\ccanl3Qu.s:1339   .bss.CANManagerHandle:00000000 $d
C:\Users\Ali\AppData\Local\Temp\ccanl3Qu.s:1350   .rodata.CellTemperature_attributes:00000000 $d
C:\Users\Ali\AppData\Local\Temp\ccanl3Qu.s:1361   .bss.CellTemperatureHandle:00000000 $d
C:\Users\Ali\AppData\Local\Temp\ccanl3Qu.s:1372   .rodata.CellVoltage_attributes:00000000 $d
C:\Users\Ali\AppData\Local\Temp\ccanl3Qu.s:1383   .bss.CellVoltageHandle:00000000 $d
C:\Users\Ali\AppData\Local\Temp\ccanl3Qu.s:1394   .rodata.defaultTask_attributes:00000000 $d
C:\Users\Ali\AppData\Local\Temp\ccanl3Qu.s:1405   .bss.defaultTaskHandle:00000000 $d
C:\Users\Ali\AppData\Local\Temp\ccanl3Qu.s:1412   .bss.hi2c3:00000000 $d
C:\Users\Ali\AppData\Local\Temp\ccanl3Qu.s:1419   .bss.hi2c1:00000000 $d
C:\Users\Ali\AppData\Local\Temp\ccanl3Qu.s:1426   .bss.hcrc:00000000 $d
C:\Users\Ali\AppData\Local\Temp\ccanl3Qu.s:1433   .bss.hcan1:00000000 $d
C:\Users\Ali\AppData\Local\Temp\ccanl3Qu.s:1440   .bss.hadc1:00000000 $d

UNDEFINED SYMBOLS
HAL_GPIO_WritePin
HAL_GPIO_Init
osDelay
CellTemp_MonitorTask
HAL_GPIO_TogglePin
HAL_IncTick
HAL_ADC_Init
HAL_ADC_ConfigChannel
HAL_CAN_Init
HAL_CAN_ConfigFilter
HAL_CRC_Init
HAL_I2C_Init
HAL_I2CEx_ConfigAnalogFilter
HAL_I2CEx_ConfigDigitalFilter
memset
HAL_PWREx_ControlVoltageScaling
HAL_RCC_OscConfig
HAL_RCC_ClockConfig
HAL_Init
HAL_ADCEx_Calibration_Start
HAL_CAN_Start
osKernelInitialize
osMutexNew
Config_Init
ErrorMgr_Init
CAN_Manager_Init
ErrorMgr_SetState
osThreadNew
osKernelStart
CAN_ManagerTask
