ARM GAS  C:\Users\Ali\AppData\Local\Temp\cc8gb0JI.s 			page 1


   1              		.cpu cortex-m4
   2              		.arch armv7e-m
   3              		.fpu fpv4-sp-d16
   4              		.eabi_attribute 27, 1
   5              		.eabi_attribute 28, 1
   6              		.eabi_attribute 20, 1
   7              		.eabi_attribute 21, 1
   8              		.eabi_attribute 23, 3
   9              		.eabi_attribute 24, 1
  10              		.eabi_attribute 25, 1
  11              		.eabi_attribute 26, 1
  12              		.eabi_attribute 30, 1
  13              		.eabi_attribute 34, 1
  14              		.eabi_attribute 18, 4
  15              		.file	"main.c"
  16              		.text
  17              	.Ltext0:
  18              		.cfi_sections	.debug_frame
  19              		.file 1 "Core/Src/main.c"
  20              		.section	.text.MX_GPIO_Init,"ax",%progbits
  21              		.align	1
  22              		.syntax unified
  23              		.thumb
  24              		.thumb_func
  26              	MX_GPIO_Init:
  27              	.LFB299:
   1:Core/Src/main.c **** /* USER CODE BEGIN Header */
   2:Core/Src/main.c **** /**
   3:Core/Src/main.c ****   ******************************************************************************
   4:Core/Src/main.c ****   * @file           : main.c
   5:Core/Src/main.c ****   * @brief          : Main program body
   6:Core/Src/main.c ****   ******************************************************************************
   7:Core/Src/main.c ****   * @attention
   8:Core/Src/main.c ****   *
   9:Core/Src/main.c ****   * Copyright (c) 2025 STMicroelectronics.
  10:Core/Src/main.c ****   * All rights reserved.
  11:Core/Src/main.c ****   *
  12:Core/Src/main.c ****   * This software is licensed under terms that can be found in the LICENSE file
  13:Core/Src/main.c ****   * in the root directory of this software component.
  14:Core/Src/main.c ****   * If no LICENSE file comes with this software, it is provided AS-IS.
  15:Core/Src/main.c ****   *
  16:Core/Src/main.c ****   ******************************************************************************
  17:Core/Src/main.c ****   */
  18:Core/Src/main.c **** /* USER CODE END Header */
  19:Core/Src/main.c **** /* Includes ------------------------------------------------------------------*/
  20:Core/Src/main.c **** #include "main.h"
  21:Core/Src/main.c **** #include "cmsis_os.h"
  22:Core/Src/main.c **** 
  23:Core/Src/main.c **** /* Private includes ----------------------------------------------------------*/
  24:Core/Src/main.c **** /* USER CODE BEGIN Includes */
  25:Core/Src/main.c **** #include "cell_temp_handler.h"
  26:Core/Src/main.c **** #include "bq_handler.h"
  27:Core/Src/main.c **** #include "can_manager.h"
  28:Core/Src/main.c **** #include "config_manager.h"
  29:Core/Src/main.c **** #include "error_manager.h"
  30:Core/Src/main.c **** /* USER CODE END Includes */
  31:Core/Src/main.c **** 
ARM GAS  C:\Users\Ali\AppData\Local\Temp\cc8gb0JI.s 			page 2


  32:Core/Src/main.c **** /* Private typedef -----------------------------------------------------------*/
  33:Core/Src/main.c **** /* USER CODE BEGIN PTD */
  34:Core/Src/main.c **** 
  35:Core/Src/main.c **** /* USER CODE END PTD */
  36:Core/Src/main.c **** 
  37:Core/Src/main.c **** /* Private define ------------------------------------------------------------*/
  38:Core/Src/main.c **** /* USER CODE BEGIN PD */
  39:Core/Src/main.c **** 
  40:Core/Src/main.c **** /* USER CODE END PD */
  41:Core/Src/main.c **** 
  42:Core/Src/main.c **** /* Private macro -------------------------------------------------------------*/
  43:Core/Src/main.c **** /* USER CODE BEGIN PM */
  44:Core/Src/main.c **** 
  45:Core/Src/main.c **** /* USER CODE END PM */
  46:Core/Src/main.c **** 
  47:Core/Src/main.c **** /* Private variables ---------------------------------------------------------*/
  48:Core/Src/main.c **** ADC_HandleTypeDef hadc1;
  49:Core/Src/main.c **** 
  50:Core/Src/main.c **** CAN_HandleTypeDef hcan1;
  51:Core/Src/main.c **** 
  52:Core/Src/main.c **** CRC_HandleTypeDef hcrc;
  53:Core/Src/main.c **** 
  54:Core/Src/main.c **** I2C_HandleTypeDef hi2c1;
  55:Core/Src/main.c **** I2C_HandleTypeDef hi2c3;
  56:Core/Src/main.c **** 
  57:Core/Src/main.c **** /* Definitions for defaultTask */
  58:Core/Src/main.c **** osThreadId_t defaultTaskHandle;
  59:Core/Src/main.c **** const osThreadAttr_t defaultTask_attributes = {
  60:Core/Src/main.c ****   .name = "defaultTask",
  61:Core/Src/main.c ****   .stack_size = 128 * 4,
  62:Core/Src/main.c ****   .priority = (osPriority_t) osPriorityNormal,
  63:Core/Src/main.c **** };
  64:Core/Src/main.c **** /* USER CODE BEGIN PV */
  65:Core/Src/main.c **** 
  66:Core/Src/main.c **** /* Definitions for CellVoltageBMS1 */
  67:Core/Src/main.c **** osThreadId_t CellVoltageBMS1Handle;
  68:Core/Src/main.c **** const osThreadAttr_t CellVoltageBMS1_attributes = {
  69:Core/Src/main.c ****   .name = "CellVoltageBMS1",
  70:Core/Src/main.c ****   .stack_size = 128 * 4,
  71:Core/Src/main.c ****   .priority = (osPriority_t) osPriorityHigh,
  72:Core/Src/main.c **** };
  73:Core/Src/main.c **** /* Definitions for CellVoltageBMS2 */
  74:Core/Src/main.c **** osThreadId_t CellVoltageBMS2Handle;
  75:Core/Src/main.c **** const osThreadAttr_t CellVoltageBMS2_attributes = {
  76:Core/Src/main.c ****   .name = "CellVoltageBMS2",
  77:Core/Src/main.c ****   .stack_size = 128 * 4,
  78:Core/Src/main.c ****   .priority = (osPriority_t) osPriorityHigh,
  79:Core/Src/main.c **** };
  80:Core/Src/main.c **** /* Definitions for CellTemperature */
  81:Core/Src/main.c **** osThreadId_t CellTemperatureHandle;
  82:Core/Src/main.c **** const osThreadAttr_t CellTemperature_attributes = {
  83:Core/Src/main.c ****   .name = "CellTemperature",
  84:Core/Src/main.c ****   .stack_size = 128 * 4,
  85:Core/Src/main.c ****   .priority = (osPriority_t) osPriorityHigh,
  86:Core/Src/main.c **** };
  87:Core/Src/main.c **** /* Definitions for CANManager */
  88:Core/Src/main.c **** osThreadId_t CANManagerHandle;
ARM GAS  C:\Users\Ali\AppData\Local\Temp\cc8gb0JI.s 			page 3


  89:Core/Src/main.c **** const osThreadAttr_t CANManager_attributes = {
  90:Core/Src/main.c ****   .name = "CANManager",
  91:Core/Src/main.c ****   .stack_size = 256 * 4,
  92:Core/Src/main.c ****   .priority = (osPriority_t) osPriorityRealtime,
  93:Core/Src/main.c **** };
  94:Core/Src/main.c **** /* Definitions for I2C1 */
  95:Core/Src/main.c **** osMutexId_t I2C1Handle;
  96:Core/Src/main.c **** const osMutexAttr_t I2C1_attributes = {
  97:Core/Src/main.c ****   .name = "I2C1"
  98:Core/Src/main.c **** };
  99:Core/Src/main.c **** /* Definitions for I2C3 */
 100:Core/Src/main.c **** osMutexId_t I2C3Handle;
 101:Core/Src/main.c **** const osMutexAttr_t I2C3_attributes = {
 102:Core/Src/main.c ****   .name = "I2C3"
 103:Core/Src/main.c **** };
 104:Core/Src/main.c **** /* Definitions for CAN */
 105:Core/Src/main.c **** osMutexId_t CANHandle;
 106:Core/Src/main.c **** const osMutexAttr_t CAN_attributes = {
 107:Core/Src/main.c ****   .name = "CAN"
 108:Core/Src/main.c **** };
 109:Core/Src/main.c **** 
 110:Core/Src/main.c **** /* USER CODE BEGIN PV */
 111:Core/Src/main.c **** /* Definitions for BMS Reset Semaphore */
 112:Core/Src/main.c **** osSemaphoreId_t BMSResetSemHandle;
 113:Core/Src/main.c **** const osSemaphoreAttr_t BMSResetSem_attributes = {
 114:Core/Src/main.c ****   .name = "BMSResetSem"
 115:Core/Src/main.c **** };
 116:Core/Src/main.c **** 
 117:Core/Src/main.c **** /* Definitions for BMSResetHandler task */
 118:Core/Src/main.c **** osThreadId_t BMSResetHandlerHandle;
 119:Core/Src/main.c **** const osThreadAttr_t BMSResetHandler_attributes = {
 120:Core/Src/main.c ****   .name = "BMSResetHandler",
 121:Core/Src/main.c ****   .stack_size = 128 * 4,
 122:Core/Src/main.c ****   .priority = (osPriority_t) osPriorityLow,
 123:Core/Src/main.c **** };
 124:Core/Src/main.c **** 
 125:Core/Src/main.c **** /* Definitions for MasterStateManager task */
 126:Core/Src/main.c **** osThreadId_t MasterStateManagerHandle;
 127:Core/Src/main.c **** const osThreadAttr_t MasterStateManager_attributes = {
 128:Core/Src/main.c ****   .name = "MasterStateManager",
 129:Core/Src/main.c ****   .stack_size = 128 * 4,
 130:Core/Src/main.c ****   .priority = (osPriority_t) osPriorityAboveNormal,
 131:Core/Src/main.c **** };
 132:Core/Src/main.c **** /* USER CODE END PV */
 133:Core/Src/main.c **** 
 134:Core/Src/main.c **** /* Private function prototypes -----------------------------------------------*/
 135:Core/Src/main.c **** void SystemClock_Config(void);
 136:Core/Src/main.c **** static void MX_GPIO_Init(void);
 137:Core/Src/main.c **** static void MX_ADC1_Init(void);
 138:Core/Src/main.c **** static void MX_CAN1_Init(void);
 139:Core/Src/main.c **** static void MX_CRC_Init(void);
 140:Core/Src/main.c **** static void MX_I2C1_Init(void);
 141:Core/Src/main.c **** static void MX_I2C3_Init(void);
 142:Core/Src/main.c **** void StartDefaultTask(void *argument);
 143:Core/Src/main.c **** 
 144:Core/Src/main.c **** /* USER CODE BEGIN PFP */
 145:Core/Src/main.c **** void ReadBQBMS1(void *argument);
ARM GAS  C:\Users\Ali\AppData\Local\Temp\cc8gb0JI.s 			page 4


 146:Core/Src/main.c **** void ReadBQBMS2(void *argument);
 147:Core/Src/main.c **** void ReadCellTemps(void *argument);
 148:Core/Src/main.c **** void BMSResetHandlerTask(void *argument);
 149:Core/Src/main.c **** void MasterStateManagerTask(void *argument);  // Defined in error_manager.c
 150:Core/Src/main.c **** /* USER CODE END PFP */
 151:Core/Src/main.c **** 
 152:Core/Src/main.c **** /* Private user code ---------------------------------------------------------*/
 153:Core/Src/main.c **** /* USER CODE BEGIN 0 */
 154:Core/Src/main.c **** 
 155:Core/Src/main.c **** /* USER CODE END 0 */
 156:Core/Src/main.c **** 
 157:Core/Src/main.c **** /**
 158:Core/Src/main.c ****   * @brief  The application entry point.
 159:Core/Src/main.c ****   * @retval int
 160:Core/Src/main.c ****   */
 161:Core/Src/main.c **** int main(void)
 162:Core/Src/main.c **** {
 163:Core/Src/main.c **** 
 164:Core/Src/main.c ****   /* USER CODE BEGIN 1 */
 165:Core/Src/main.c ****   // When coming from bootloader, disable all interrupts first
 166:Core/Src/main.c ****   __disable_irq();
 167:Core/Src/main.c **** 
 168:Core/Src/main.c ****   // Disable SysTick (bootloader might have enabled it)
 169:Core/Src/main.c ****   SysTick->CTRL = 0;
 170:Core/Src/main.c ****   SysTick->LOAD = 0;
 171:Core/Src/main.c ****   SysTick->VAL = 0;
 172:Core/Src/main.c **** 
 173:Core/Src/main.c ****   /* USER CODE END 1 */
 174:Core/Src/main.c **** 
 175:Core/Src/main.c ****   /* MCU Configuration--------------------------------------------------------*/
 176:Core/Src/main.c **** 
 177:Core/Src/main.c ****   /* Reset of all peripherals, Initializes the Flash interface and the Systick. */
 178:Core/Src/main.c ****   HAL_Init();
 179:Core/Src/main.c **** 
 180:Core/Src/main.c ****   /* USER CODE BEGIN Init */
 181:Core/Src/main.c **** 
 182:Core/Src/main.c ****   /* USER CODE END Init */
 183:Core/Src/main.c **** 
 184:Core/Src/main.c ****   /* Configure the system clock */
 185:Core/Src/main.c ****   SystemClock_Config();
 186:Core/Src/main.c **** 
 187:Core/Src/main.c ****   /* USER CODE BEGIN SysInit */
 188:Core/Src/main.c **** 
 189:Core/Src/main.c ****   /* USER CODE END SysInit */
 190:Core/Src/main.c **** 
 191:Core/Src/main.c ****   /* Initialize all configured peripherals */
 192:Core/Src/main.c ****   MX_GPIO_Init();
 193:Core/Src/main.c ****   MX_ADC1_Init();
 194:Core/Src/main.c ****   MX_CAN1_Init();
 195:Core/Src/main.c ****   MX_CRC_Init();
 196:Core/Src/main.c ****   MX_I2C1_Init();
 197:Core/Src/main.c ****   MX_I2C3_Init();
 198:Core/Src/main.c ****   /* USER CODE BEGIN 2 */
 199:Core/Src/main.c ****   
 200:Core/Src/main.c ****   // Calibrate ADC
 201:Core/Src/main.c ****   if (HAL_ADCEx_Calibration_Start(&hadc1, ADC_SINGLE_ENDED) != HAL_OK)
 202:Core/Src/main.c ****   {
ARM GAS  C:\Users\Ali\AppData\Local\Temp\cc8gb0JI.s 			page 5


 203:Core/Src/main.c ****     Error_Handler();
 204:Core/Src/main.c ****   }
 205:Core/Src/main.c ****   
 206:Core/Src/main.c ****   // Start CAN peripheral
 207:Core/Src/main.c ****   if (HAL_CAN_Start(&hcan1) != HAL_OK)
 208:Core/Src/main.c ****   {
 209:Core/Src/main.c ****     Error_Handler();
 210:Core/Src/main.c ****   }
 211:Core/Src/main.c **** 
 212:Core/Src/main.c ****   /* USER CODE END 2 */
 213:Core/Src/main.c **** 
 214:Core/Src/main.c ****   /* Init scheduler */
 215:Core/Src/main.c ****   osKernelInitialize();
 216:Core/Src/main.c ****   /* Create the mutex(es) */
 217:Core/Src/main.c ****   /* creation of I2C1 */
 218:Core/Src/main.c ****   I2C1Handle = osMutexNew(&I2C1_attributes);
 219:Core/Src/main.c **** 
 220:Core/Src/main.c ****   /* creation of I2C3 */
 221:Core/Src/main.c ****   I2C3Handle = osMutexNew(&I2C3_attributes);
 222:Core/Src/main.c **** 
 223:Core/Src/main.c ****   /* creation of CAN */
 224:Core/Src/main.c ****   CANHandle = osMutexNew(&CAN_attributes);
 225:Core/Src/main.c **** 
 226:Core/Src/main.c ****   /* USER CODE BEGIN RTOS_MUTEX */
 227:Core/Src/main.c ****   /* add mutexes, ... */
 228:Core/Src/main.c ****   /* USER CODE END RTOS_MUTEX */
 229:Core/Src/main.c **** 
 230:Core/Src/main.c ****   /* USER CODE BEGIN RTOS_SEMAPHORES */
 231:Core/Src/main.c ****   /* Create BMS reset semaphore (binary semaphore for reset signaling) */
 232:Core/Src/main.c ****   BMSResetSemHandle = osSemaphoreNew(1, 0, &BMSResetSem_attributes);
 233:Core/Src/main.c ****   if (BMSResetSemHandle == NULL)
 234:Core/Src/main.c ****   {
 235:Core/Src/main.c ****     Error_Handler();
 236:Core/Src/main.c ****   }
 237:Core/Src/main.c ****   /* USER CODE END RTOS_SEMAPHORES */
 238:Core/Src/main.c **** 
 239:Core/Src/main.c ****   /* USER CODE BEGIN RTOS_TIMERS */
 240:Core/Src/main.c ****   /* start timers, add new ones, ... */
 241:Core/Src/main.c ****   /* USER CODE END RTOS_TIMERS */
 242:Core/Src/main.c **** 
 243:Core/Src/main.c ****   /* USER CODE BEGIN RTOS_QUEUES */
 244:Core/Src/main.c ****   // Initialize Configuration Manager
 245:Core/Src/main.c ****   Config_Init();
 246:Core/Src/main.c ****   
 247:Core/Src/main.c ****   // Initialize Error Manager
 248:Core/Src/main.c ****   if (ErrorMgr_Init() != HAL_OK)
 249:Core/Src/main.c ****   {
 250:Core/Src/main.c ****     Error_Handler();
 251:Core/Src/main.c ****   }
 252:Core/Src/main.c ****   
 253:Core/Src/main.c ****   // Initialize CAN Manager (creates TX and RX message queues)
 254:Core/Src/main.c ****   if (CAN_Manager_Init() != HAL_OK)
 255:Core/Src/main.c ****   {
 256:Core/Src/main.c ****     Error_Handler();
 257:Core/Src/main.c ****   }
 258:Core/Src/main.c ****   
 259:Core/Src/main.c ****   // Set initial BMS state to IDLE after initialization
ARM GAS  C:\Users\Ali\AppData\Local\Temp\cc8gb0JI.s 			page 6


 260:Core/Src/main.c ****   ErrorMgr_SetState(BMS_STATE_IDLE);
 261:Core/Src/main.c ****   /* USER CODE END RTOS_QUEUES */
 262:Core/Src/main.c **** 
 263:Core/Src/main.c ****   /* Create the thread(s) */
 264:Core/Src/main.c ****   /* creation of defaultTask */
 265:Core/Src/main.c ****   defaultTaskHandle = osThreadNew(StartDefaultTask, NULL, &defaultTask_attributes);
 266:Core/Src/main.c **** 
 267:Core/Src/main.c ****   /* USER CODE BEGIN RTOS_THREADS */
 268:Core/Src/main.c ****   /* creation of CellVoltageBMS1 */
 269:Core/Src/main.c ****   CellVoltageBMS1Handle = osThreadNew(ReadBQBMS1, NULL, &CellVoltageBMS1_attributes);
 270:Core/Src/main.c **** 
 271:Core/Src/main.c ****   /* creation of CellVoltageBMS2 */
 272:Core/Src/main.c ****   CellVoltageBMS2Handle = osThreadNew(ReadBQBMS2, NULL, &CellVoltageBMS2_attributes);
 273:Core/Src/main.c **** 
 274:Core/Src/main.c ****   /* creation of CellTemperature */
 275:Core/Src/main.c ****   CellTemperatureHandle = osThreadNew(ReadCellTemps, NULL, &CellTemperature_attributes);
 276:Core/Src/main.c **** 
 277:Core/Src/main.c ****   /* creation of CANManager */
 278:Core/Src/main.c ****   CANManagerHandle = osThreadNew(CAN_ManagerTask, NULL, &CANManager_attributes);
 279:Core/Src/main.c **** 
 280:Core/Src/main.c ****   /* creation of BMSResetHandler */
 281:Core/Src/main.c ****   BMSResetHandlerHandle = osThreadNew(BMSResetHandlerTask, NULL, &BMSResetHandler_attributes);
 282:Core/Src/main.c ****   
 283:Core/Src/main.c ****   /* creation of MasterStateManager */
 284:Core/Src/main.c ****   MasterStateManagerHandle = osThreadNew(MasterStateManagerTask, NULL, &MasterStateManager_attribut
 285:Core/Src/main.c ****   /* USER CODE END RTOS_THREADS */
 286:Core/Src/main.c **** 
 287:Core/Src/main.c ****   /* USER CODE BEGIN RTOS_EVENTS */
 288:Core/Src/main.c ****   /* add events, ... */
 289:Core/Src/main.c ****   /* USER CODE END RTOS_EVENTS */
 290:Core/Src/main.c **** 
 291:Core/Src/main.c ****   /* Start scheduler */
 292:Core/Src/main.c ****   osKernelStart();
 293:Core/Src/main.c **** 
 294:Core/Src/main.c ****   /* We should never get here as control is now taken by the scheduler */
 295:Core/Src/main.c **** 
 296:Core/Src/main.c ****   /* Infinite loop */
 297:Core/Src/main.c ****   /* USER CODE BEGIN WHILE */
 298:Core/Src/main.c ****   while (1)
 299:Core/Src/main.c ****   {
 300:Core/Src/main.c ****     /* USER CODE END WHILE */
 301:Core/Src/main.c **** 
 302:Core/Src/main.c ****     /* USER CODE BEGIN 3 */
 303:Core/Src/main.c ****   }
 304:Core/Src/main.c ****   /* USER CODE END 3 */
 305:Core/Src/main.c **** }
 306:Core/Src/main.c **** 
 307:Core/Src/main.c **** /**
 308:Core/Src/main.c ****   * @brief System Clock Configuration
 309:Core/Src/main.c ****   * @retval None
 310:Core/Src/main.c ****   */
 311:Core/Src/main.c **** void SystemClock_Config(void)
 312:Core/Src/main.c **** {
 313:Core/Src/main.c ****   RCC_OscInitTypeDef RCC_OscInitStruct = {0};
 314:Core/Src/main.c ****   RCC_ClkInitTypeDef RCC_ClkInitStruct = {0};
 315:Core/Src/main.c **** 
 316:Core/Src/main.c ****   /** Configure the main internal regulator output voltage
ARM GAS  C:\Users\Ali\AppData\Local\Temp\cc8gb0JI.s 			page 7


 317:Core/Src/main.c ****   */
 318:Core/Src/main.c ****   if (HAL_PWREx_ControlVoltageScaling(PWR_REGULATOR_VOLTAGE_SCALE1) != HAL_OK)
 319:Core/Src/main.c ****   {
 320:Core/Src/main.c ****     Error_Handler();
 321:Core/Src/main.c ****   }
 322:Core/Src/main.c **** 
 323:Core/Src/main.c ****   /** Initializes the RCC Oscillators according to the specified parameters
 324:Core/Src/main.c ****   * in the RCC_OscInitTypeDef structure.
 325:Core/Src/main.c ****   */
 326:Core/Src/main.c ****   RCC_OscInitStruct.OscillatorType = RCC_OSCILLATORTYPE_HSI;
 327:Core/Src/main.c ****   RCC_OscInitStruct.HSIState = RCC_HSI_ON;
 328:Core/Src/main.c ****   RCC_OscInitStruct.HSICalibrationValue = RCC_HSICALIBRATION_DEFAULT;
 329:Core/Src/main.c ****   RCC_OscInitStruct.PLL.PLLState = RCC_PLL_ON;
 330:Core/Src/main.c ****   RCC_OscInitStruct.PLL.PLLSource = RCC_PLLSOURCE_HSI;
 331:Core/Src/main.c ****   RCC_OscInitStruct.PLL.PLLM = 2;
 332:Core/Src/main.c ****   RCC_OscInitStruct.PLL.PLLN = 20;
 333:Core/Src/main.c ****   RCC_OscInitStruct.PLL.PLLP = RCC_PLLP_DIV7;
 334:Core/Src/main.c ****   RCC_OscInitStruct.PLL.PLLQ = RCC_PLLQ_DIV2;
 335:Core/Src/main.c ****   RCC_OscInitStruct.PLL.PLLR = RCC_PLLR_DIV2;
 336:Core/Src/main.c ****   if (HAL_RCC_OscConfig(&RCC_OscInitStruct) != HAL_OK)
 337:Core/Src/main.c ****   {
 338:Core/Src/main.c ****     Error_Handler();
 339:Core/Src/main.c ****   }
 340:Core/Src/main.c **** 
 341:Core/Src/main.c ****   /** Initializes the CPU, AHB and APB buses clocks
 342:Core/Src/main.c ****   */
 343:Core/Src/main.c ****   RCC_ClkInitStruct.ClockType = RCC_CLOCKTYPE_HCLK|RCC_CLOCKTYPE_SYSCLK
 344:Core/Src/main.c ****                               |RCC_CLOCKTYPE_PCLK1|RCC_CLOCKTYPE_PCLK2;
 345:Core/Src/main.c ****   RCC_ClkInitStruct.SYSCLKSource = RCC_SYSCLKSOURCE_PLLCLK;
 346:Core/Src/main.c ****   RCC_ClkInitStruct.AHBCLKDivider = RCC_SYSCLK_DIV1;
 347:Core/Src/main.c ****   RCC_ClkInitStruct.APB1CLKDivider = RCC_HCLK_DIV1;
 348:Core/Src/main.c ****   RCC_ClkInitStruct.APB2CLKDivider = RCC_HCLK_DIV1;
 349:Core/Src/main.c **** 
 350:Core/Src/main.c ****   if (HAL_RCC_ClockConfig(&RCC_ClkInitStruct, FLASH_LATENCY_4) != HAL_OK)
 351:Core/Src/main.c ****   {
 352:Core/Src/main.c ****     Error_Handler();  
 353:Core/Src/main.c ****   }
 354:Core/Src/main.c **** }
 355:Core/Src/main.c **** 
 356:Core/Src/main.c **** /**
 357:Core/Src/main.c ****   * @brief ADC1 Initialization Function
 358:Core/Src/main.c ****   * @param None
 359:Core/Src/main.c ****   * @retval None
 360:Core/Src/main.c ****   */
 361:Core/Src/main.c **** static void MX_ADC1_Init(void)
 362:Core/Src/main.c **** {
 363:Core/Src/main.c **** 
 364:Core/Src/main.c ****   /* USER CODE BEGIN ADC1_Init 0 */
 365:Core/Src/main.c **** 
 366:Core/Src/main.c ****   /* USER CODE END ADC1_Init 0 */
 367:Core/Src/main.c **** 
 368:Core/Src/main.c ****   ADC_ChannelConfTypeDef sConfig = {0};
 369:Core/Src/main.c **** 
 370:Core/Src/main.c ****   /* USER CODE BEGIN ADC1_Init 1 */
 371:Core/Src/main.c **** 
 372:Core/Src/main.c ****   /* USER CODE END ADC1_Init 1 */
 373:Core/Src/main.c **** 
ARM GAS  C:\Users\Ali\AppData\Local\Temp\cc8gb0JI.s 			page 8


 374:Core/Src/main.c ****   /** Common config
 375:Core/Src/main.c ****   */
 376:Core/Src/main.c ****   hadc1.Instance = ADC1;
 377:Core/Src/main.c ****   hadc1.Init.ClockPrescaler = ADC_CLOCK_ASYNC_DIV1;
 378:Core/Src/main.c ****   hadc1.Init.Resolution = ADC_RESOLUTION_12B;
 379:Core/Src/main.c ****   hadc1.Init.DataAlign = ADC_DATAALIGN_RIGHT;
 380:Core/Src/main.c ****   hadc1.Init.ScanConvMode = ADC_SCAN_DISABLE;
 381:Core/Src/main.c ****   hadc1.Init.EOCSelection = ADC_EOC_SINGLE_CONV;
 382:Core/Src/main.c ****   hadc1.Init.LowPowerAutoWait = DISABLE;
 383:Core/Src/main.c ****   hadc1.Init.ContinuousConvMode = DISABLE;
 384:Core/Src/main.c ****   hadc1.Init.NbrOfConversion = 1;
 385:Core/Src/main.c ****   hadc1.Init.DiscontinuousConvMode = DISABLE;
 386:Core/Src/main.c ****   hadc1.Init.ExternalTrigConv = ADC_SOFTWARE_START;
 387:Core/Src/main.c ****   hadc1.Init.ExternalTrigConvEdge = ADC_EXTERNALTRIGCONVEDGE_NONE;
 388:Core/Src/main.c ****   hadc1.Init.DMAContinuousRequests = DISABLE;
 389:Core/Src/main.c ****   hadc1.Init.Overrun = ADC_OVR_DATA_PRESERVED;
 390:Core/Src/main.c ****   hadc1.Init.OversamplingMode = DISABLE;
 391:Core/Src/main.c ****   if (HAL_ADC_Init(&hadc1) != HAL_OK)
 392:Core/Src/main.c ****   {
 393:Core/Src/main.c ****     Error_Handler();
 394:Core/Src/main.c ****   }
 395:Core/Src/main.c **** 
 396:Core/Src/main.c ****   /** Configure Regular Channel
 397:Core/Src/main.c ****   */
 398:Core/Src/main.c ****   sConfig.Channel = ADC_CHANNEL_5;  // ADC1 (PA0) - first thermistor channel
 399:Core/Src/main.c ****   sConfig.Rank = ADC_REGULAR_RANK_1;
 400:Core/Src/main.c ****   sConfig.SamplingTime = ADC_SAMPLETIME_640CYCLES_5;  // Longer sampling for high impedance thermis
 401:Core/Src/main.c ****   sConfig.SingleDiff = ADC_SINGLE_ENDED;
 402:Core/Src/main.c ****   sConfig.OffsetNumber = ADC_OFFSET_NONE;
 403:Core/Src/main.c ****   sConfig.Offset = 0;
 404:Core/Src/main.c ****   if (HAL_ADC_ConfigChannel(&hadc1, &sConfig) != HAL_OK)
 405:Core/Src/main.c ****   {
 406:Core/Src/main.c ****     Error_Handler();
 407:Core/Src/main.c ****   }
 408:Core/Src/main.c ****   /* USER CODE BEGIN ADC1_Init 2 */
 409:Core/Src/main.c **** 
 410:Core/Src/main.c ****   /* USER CODE END ADC1_Init 2 */
 411:Core/Src/main.c **** 
 412:Core/Src/main.c **** }
 413:Core/Src/main.c **** 
 414:Core/Src/main.c **** /**
 415:Core/Src/main.c ****   * @brief CAN1 Initialization Function
 416:Core/Src/main.c ****   * @param None
 417:Core/Src/main.c ****   * @retval None
 418:Core/Src/main.c ****   */
 419:Core/Src/main.c **** static void MX_CAN1_Init(void)
 420:Core/Src/main.c **** {
 421:Core/Src/main.c **** 
 422:Core/Src/main.c ****   /* USER CODE BEGIN CAN1_Init 0 */
 423:Core/Src/main.c **** 
 424:Core/Src/main.c ****   /* USER CODE END CAN1_Init 0 */
 425:Core/Src/main.c **** 
 426:Core/Src/main.c ****   /* USER CODE BEGIN CAN1_Init 1 */
 427:Core/Src/main.c **** 
 428:Core/Src/main.c ****   /* USER CODE END CAN1_Init 1 */
 429:Core/Src/main.c ****   hcan1.Instance = CAN1;
 430:Core/Src/main.c ****   hcan1.Init.Prescaler = 10;
ARM GAS  C:\Users\Ali\AppData\Local\Temp\cc8gb0JI.s 			page 9


 431:Core/Src/main.c ****   hcan1.Init.Mode = CAN_MODE_NORMAL;
 432:Core/Src/main.c ****   hcan1.Init.SyncJumpWidth = CAN_SJW_1TQ;
 433:Core/Src/main.c ****   hcan1.Init.TimeSeg1 = CAN_BS1_13TQ;
 434:Core/Src/main.c ****   hcan1.Init.TimeSeg2 = CAN_BS2_2TQ;
 435:Core/Src/main.c ****   hcan1.Init.TimeTriggeredMode = DISABLE;
 436:Core/Src/main.c ****   hcan1.Init.AutoBusOff = DISABLE;
 437:Core/Src/main.c ****   hcan1.Init.AutoWakeUp = DISABLE;
 438:Core/Src/main.c ****   hcan1.Init.AutoRetransmission = DISABLE;
 439:Core/Src/main.c ****   hcan1.Init.ReceiveFifoLocked = DISABLE;
 440:Core/Src/main.c ****   hcan1.Init.TransmitFifoPriority = DISABLE;
 441:Core/Src/main.c ****   if (HAL_CAN_Init(&hcan1) != HAL_OK)
 442:Core/Src/main.c ****   {
 443:Core/Src/main.c ****     Error_Handler();
 444:Core/Src/main.c ****   }
 445:Core/Src/main.c ****   /* USER CODE BEGIN CAN1_Init 2 */
 446:Core/Src/main.c ****   
 447:Core/Src/main.c ****   // Configure CAN filter BEFORE starting CAN
 448:Core/Src/main.c ****   // Accept all extended CAN IDs (for debugging)
 449:Core/Src/main.c ****   CAN_FilterTypeDef filterConfig;
 450:Core/Src/main.c ****   filterConfig.FilterBank = 0;
 451:Core/Src/main.c ****   filterConfig.FilterMode = CAN_FILTERMODE_IDMASK;
 452:Core/Src/main.c ****   filterConfig.FilterScale = CAN_FILTERSCALE_32BIT;
 453:Core/Src/main.c ****   
 454:Core/Src/main.c ****   // Accept all extended IDs: ID=0, Mask=0 means "don't care about any bits"
 455:Core/Src/main.c ****   filterConfig.FilterIdHigh = 0x0000;
 456:Core/Src/main.c ****   filterConfig.FilterIdLow = 0x0004;   // Only IDE bit set (extended ID)
 457:Core/Src/main.c ****   filterConfig.FilterMaskIdHigh = 0x0000;  // Don't care about any ID bits
 458:Core/Src/main.c ****   filterConfig.FilterMaskIdLow = 0x0004;   // But we DO care about IDE bit (only extended)
 459:Core/Src/main.c ****   
 460:Core/Src/main.c ****   filterConfig.FilterFIFOAssignment = CAN_RX_FIFO0;
 461:Core/Src/main.c ****   filterConfig.FilterActivation = ENABLE;
 462:Core/Src/main.c ****   filterConfig.SlaveStartFilterBank = 14;
 463:Core/Src/main.c ****   
 464:Core/Src/main.c ****   if (HAL_CAN_ConfigFilter(&hcan1, &filterConfig) != HAL_OK)
 465:Core/Src/main.c ****   {
 466:Core/Src/main.c ****     Error_Handler();
 467:Core/Src/main.c ****   }
 468:Core/Src/main.c **** 
 469:Core/Src/main.c ****   /* USER CODE END CAN1_Init 2 */
 470:Core/Src/main.c **** 
 471:Core/Src/main.c **** }
 472:Core/Src/main.c **** 
 473:Core/Src/main.c **** /**
 474:Core/Src/main.c ****   * @brief CRC Initialization Function
 475:Core/Src/main.c ****   * @param None
 476:Core/Src/main.c ****   * @retval None
 477:Core/Src/main.c ****   */
 478:Core/Src/main.c **** static void MX_CRC_Init(void)
 479:Core/Src/main.c **** {
 480:Core/Src/main.c **** 
 481:Core/Src/main.c ****   /* USER CODE BEGIN CRC_Init 0 */
 482:Core/Src/main.c **** 
 483:Core/Src/main.c ****   /* USER CODE END CRC_Init 0 */
 484:Core/Src/main.c **** 
 485:Core/Src/main.c ****   /* USER CODE BEGIN CRC_Init 1 */
 486:Core/Src/main.c **** 
 487:Core/Src/main.c ****   /* USER CODE END CRC_Init 1 */
ARM GAS  C:\Users\Ali\AppData\Local\Temp\cc8gb0JI.s 			page 10


 488:Core/Src/main.c ****   hcrc.Instance = CRC;
 489:Core/Src/main.c ****   hcrc.Init.DefaultPolynomialUse = DEFAULT_POLYNOMIAL_ENABLE;
 490:Core/Src/main.c ****   hcrc.Init.DefaultInitValueUse = DEFAULT_INIT_VALUE_ENABLE;
 491:Core/Src/main.c ****   hcrc.Init.InputDataInversionMode = CRC_INPUTDATA_INVERSION_NONE;
 492:Core/Src/main.c ****   hcrc.Init.OutputDataInversionMode = CRC_OUTPUTDATA_INVERSION_DISABLE;
 493:Core/Src/main.c ****   hcrc.InputDataFormat = CRC_INPUTDATA_FORMAT_BYTES;
 494:Core/Src/main.c ****   if (HAL_CRC_Init(&hcrc) != HAL_OK)
 495:Core/Src/main.c ****   {
 496:Core/Src/main.c ****     Error_Handler();
 497:Core/Src/main.c ****   }
 498:Core/Src/main.c ****   /* USER CODE BEGIN CRC_Init 2 */
 499:Core/Src/main.c **** 
 500:Core/Src/main.c ****   /* USER CODE END CRC_Init 2 */
 501:Core/Src/main.c **** 
 502:Core/Src/main.c **** }
 503:Core/Src/main.c **** 
 504:Core/Src/main.c **** /**
 505:Core/Src/main.c ****   * @brief I2C1 Initialization Function
 506:Core/Src/main.c ****   * @param None
 507:Core/Src/main.c ****   * @retval None
 508:Core/Src/main.c ****   */
 509:Core/Src/main.c **** static void MX_I2C1_Init(void)
 510:Core/Src/main.c **** {
 511:Core/Src/main.c **** 
 512:Core/Src/main.c ****   /* USER CODE BEGIN I2C1_Init 0 */
 513:Core/Src/main.c **** 
 514:Core/Src/main.c ****   /* USER CODE END I2C1_Init 0 */
 515:Core/Src/main.c **** 
 516:Core/Src/main.c ****   /* USER CODE BEGIN I2C1_Init 1 */
 517:Core/Src/main.c **** 
 518:Core/Src/main.c ****   /* USER CODE END I2C1_Init 1 */
 519:Core/Src/main.c ****   hi2c1.Instance = I2C1;
 520:Core/Src/main.c ****   hi2c1.Init.Timing = 0x00503D58;
 521:Core/Src/main.c ****   hi2c1.Init.OwnAddress1 = 0;
 522:Core/Src/main.c ****   hi2c1.Init.AddressingMode = I2C_ADDRESSINGMODE_7BIT;
 523:Core/Src/main.c ****   hi2c1.Init.DualAddressMode = I2C_DUALADDRESS_DISABLE;
 524:Core/Src/main.c ****   hi2c1.Init.OwnAddress2 = 0;
 525:Core/Src/main.c ****   hi2c1.Init.OwnAddress2Masks = I2C_OA2_NOMASK;
 526:Core/Src/main.c ****   hi2c1.Init.GeneralCallMode = I2C_GENERALCALL_DISABLE;
 527:Core/Src/main.c ****   hi2c1.Init.NoStretchMode = I2C_NOSTRETCH_DISABLE;
 528:Core/Src/main.c ****   if (HAL_I2C_Init(&hi2c1) != HAL_OK)
 529:Core/Src/main.c ****   {
 530:Core/Src/main.c ****     Error_Handler();
 531:Core/Src/main.c ****   }
 532:Core/Src/main.c **** 
 533:Core/Src/main.c ****   /** Configure Analogue filter
 534:Core/Src/main.c ****   */
 535:Core/Src/main.c ****   if (HAL_I2CEx_ConfigAnalogFilter(&hi2c1, I2C_ANALOGFILTER_ENABLE) != HAL_OK)
 536:Core/Src/main.c ****   {
 537:Core/Src/main.c ****     Error_Handler();
 538:Core/Src/main.c ****   }
 539:Core/Src/main.c **** 
 540:Core/Src/main.c ****   /** Configure Digital filter
 541:Core/Src/main.c ****   */
 542:Core/Src/main.c ****   if (HAL_I2CEx_ConfigDigitalFilter(&hi2c1, 0) != HAL_OK)
 543:Core/Src/main.c ****   {
 544:Core/Src/main.c ****     Error_Handler();
ARM GAS  C:\Users\Ali\AppData\Local\Temp\cc8gb0JI.s 			page 11


 545:Core/Src/main.c ****   }
 546:Core/Src/main.c ****   /* USER CODE BEGIN I2C1_Init 2 */
 547:Core/Src/main.c **** 
 548:Core/Src/main.c ****   /* USER CODE END I2C1_Init 2 */
 549:Core/Src/main.c **** 
 550:Core/Src/main.c **** }
 551:Core/Src/main.c **** 
 552:Core/Src/main.c **** /**
 553:Core/Src/main.c ****   * @brief I2C3 Initialization Function
 554:Core/Src/main.c ****   * @param None
 555:Core/Src/main.c ****   * @retval None
 556:Core/Src/main.c ****   */
 557:Core/Src/main.c **** static void MX_I2C3_Init(void)
 558:Core/Src/main.c **** {
 559:Core/Src/main.c **** 
 560:Core/Src/main.c ****   /* USER CODE BEGIN I2C3_Init 0 */
 561:Core/Src/main.c **** 
 562:Core/Src/main.c ****   /* USER CODE END I2C3_Init 0 */
 563:Core/Src/main.c **** 
 564:Core/Src/main.c ****   /* USER CODE BEGIN I2C3_Init 1 */
 565:Core/Src/main.c **** 
 566:Core/Src/main.c ****   /* USER CODE END I2C3_Init 1 */
 567:Core/Src/main.c ****   hi2c3.Instance = I2C3;
 568:Core/Src/main.c ****   hi2c3.Init.Timing = 0x00503D58;
 569:Core/Src/main.c ****   hi2c3.Init.OwnAddress1 = 0;
 570:Core/Src/main.c ****   hi2c3.Init.AddressingMode = I2C_ADDRESSINGMODE_7BIT;
 571:Core/Src/main.c ****   hi2c3.Init.DualAddressMode = I2C_DUALADDRESS_DISABLE;
 572:Core/Src/main.c ****   hi2c3.Init.OwnAddress2 = 0;
 573:Core/Src/main.c ****   hi2c3.Init.OwnAddress2Masks = I2C_OA2_NOMASK;
 574:Core/Src/main.c ****   hi2c3.Init.GeneralCallMode = I2C_GENERALCALL_DISABLE;
 575:Core/Src/main.c ****   hi2c3.Init.NoStretchMode = I2C_NOSTRETCH_DISABLE;
 576:Core/Src/main.c ****   if (HAL_I2C_Init(&hi2c3) != HAL_OK)
 577:Core/Src/main.c ****   {
 578:Core/Src/main.c ****     Error_Handler();
 579:Core/Src/main.c ****   }
 580:Core/Src/main.c **** 
 581:Core/Src/main.c ****   /** Configure Analogue filter
 582:Core/Src/main.c ****   */
 583:Core/Src/main.c ****   if (HAL_I2CEx_ConfigAnalogFilter(&hi2c3, I2C_ANALOGFILTER_ENABLE) != HAL_OK)
 584:Core/Src/main.c ****   {
 585:Core/Src/main.c ****     Error_Handler();
 586:Core/Src/main.c ****   }
 587:Core/Src/main.c **** 
 588:Core/Src/main.c ****   /** Configure Digital filter
 589:Core/Src/main.c ****   */
 590:Core/Src/main.c ****   if (HAL_I2CEx_ConfigDigitalFilter(&hi2c3, 0) != HAL_OK)
 591:Core/Src/main.c ****   {
 592:Core/Src/main.c ****     Error_Handler();
 593:Core/Src/main.c ****   }
 594:Core/Src/main.c ****   /* USER CODE BEGIN I2C3_Init 2 */
 595:Core/Src/main.c **** 
 596:Core/Src/main.c ****   /* USER CODE END I2C3_Init 2 */
 597:Core/Src/main.c **** 
 598:Core/Src/main.c **** }
 599:Core/Src/main.c **** 
 600:Core/Src/main.c **** /**
 601:Core/Src/main.c ****   * @brief GPIO Initialization Function
ARM GAS  C:\Users\Ali\AppData\Local\Temp\cc8gb0JI.s 			page 12


 602:Core/Src/main.c ****   * @param None
 603:Core/Src/main.c ****   * @retval None
 604:Core/Src/main.c ****   */
 605:Core/Src/main.c **** static void MX_GPIO_Init(void)
 606:Core/Src/main.c **** {
  28              		.loc 1 606 1 view -0
  29              		.cfi_startproc
  30              		@ args = 0, pretend = 0, frame = 32
  31              		@ frame_needed = 0, uses_anonymous_args = 0
  32 0000 F0B5     		push	{r4, r5, r6, r7, lr}
  33              		.cfi_def_cfa_offset 20
  34              		.cfi_offset 4, -20
  35              		.cfi_offset 5, -16
  36              		.cfi_offset 6, -12
  37              		.cfi_offset 7, -8
  38              		.cfi_offset 14, -4
  39 0002 89B0     		sub	sp, sp, #36
  40              		.cfi_def_cfa_offset 56
 607:Core/Src/main.c ****   GPIO_InitTypeDef GPIO_InitStruct = {0};
  41              		.loc 1 607 3 view .LVU1
  42              		.loc 1 607 20 is_stmt 0 view .LVU2
  43 0004 03AD     		add	r5, sp, #12
  44 0006 0024     		movs	r4, #0
  45 0008 0394     		str	r4, [sp, #12]
  46 000a 0494     		str	r4, [sp, #16]
  47 000c 0594     		str	r4, [sp, #20]
  48 000e 0694     		str	r4, [sp, #24]
  49 0010 0794     		str	r4, [sp, #28]
 608:Core/Src/main.c ****   /* USER CODE BEGIN MX_GPIO_Init_1 */
 609:Core/Src/main.c **** 
 610:Core/Src/main.c ****   /* USER CODE END MX_GPIO_Init_1 */
 611:Core/Src/main.c **** 
 612:Core/Src/main.c ****   /* GPIO Ports Clock Enable */
 613:Core/Src/main.c ****   __HAL_RCC_GPIOA_CLK_ENABLE();
  50              		.loc 1 613 3 is_stmt 1 view .LVU3
  51              	.LBB9:
  52              		.loc 1 613 3 view .LVU4
  53              		.loc 1 613 3 view .LVU5
  54 0012 204B     		ldr	r3, .L3
  55 0014 DA6C     		ldr	r2, [r3, #76]
  56 0016 42F00102 		orr	r2, r2, #1
  57 001a DA64     		str	r2, [r3, #76]
  58              		.loc 1 613 3 view .LVU6
  59 001c DA6C     		ldr	r2, [r3, #76]
  60 001e 02F00102 		and	r2, r2, #1
  61 0022 0192     		str	r2, [sp, #4]
  62              		.loc 1 613 3 view .LVU7
  63 0024 019A     		ldr	r2, [sp, #4]
  64              	.LBE9:
  65              		.loc 1 613 3 view .LVU8
 614:Core/Src/main.c ****   __HAL_RCC_GPIOB_CLK_ENABLE();
  66              		.loc 1 614 3 view .LVU9
  67              	.LBB10:
  68              		.loc 1 614 3 view .LVU10
  69              		.loc 1 614 3 view .LVU11
  70 0026 DA6C     		ldr	r2, [r3, #76]
  71 0028 42F00202 		orr	r2, r2, #2
ARM GAS  C:\Users\Ali\AppData\Local\Temp\cc8gb0JI.s 			page 13


  72 002c DA64     		str	r2, [r3, #76]
  73              		.loc 1 614 3 view .LVU12
  74 002e DB6C     		ldr	r3, [r3, #76]
  75 0030 03F00203 		and	r3, r3, #2
  76 0034 0293     		str	r3, [sp, #8]
  77              		.loc 1 614 3 view .LVU13
  78 0036 029B     		ldr	r3, [sp, #8]
  79              	.LBE10:
  80              		.loc 1 614 3 view .LVU14
 615:Core/Src/main.c **** 
 616:Core/Src/main.c ****   /*Configure GPIO pin Output Level */
 617:Core/Src/main.c ****   HAL_GPIO_WritePin(GPIOB, MUX_SIG1_Pin|MUX_SIG3_Pin|BMS_RESET_Pin, GPIO_PIN_RESET);
  81              		.loc 1 617 3 view .LVU15
  82 0038 174E     		ldr	r6, .L3+4
  83 003a 2246     		mov	r2, r4
  84 003c 6221     		movs	r1, #98
  85 003e 3046     		mov	r0, r6
  86 0040 FFF7FEFF 		bl	HAL_GPIO_WritePin
  87              	.LVL0:
 618:Core/Src/main.c **** 
 619:Core/Src/main.c ****   /*Configure GPIO pin Output Level */
 620:Core/Src/main.c ****   HAL_GPIO_WritePin(MUX_SIG2_GPIO_Port, MUX_SIG2_Pin, GPIO_PIN_RESET);
  88              		.loc 1 620 3 view .LVU16
  89 0044 2246     		mov	r2, r4
  90 0046 4FF48071 		mov	r1, #256
  91 004a 4FF09040 		mov	r0, #1207959552
  92 004e FFF7FEFF 		bl	HAL_GPIO_WritePin
  93              	.LVL1:
 621:Core/Src/main.c **** 
 622:Core/Src/main.c ****   /*Configure GPIO pins : MUX_SIG1_Pin MUX_SIG3_Pin BMS_RESET_Pin */
 623:Core/Src/main.c ****   GPIO_InitStruct.Pin = MUX_SIG1_Pin|MUX_SIG3_Pin|BMS_RESET_Pin;
  94              		.loc 1 623 3 view .LVU17
  95              		.loc 1 623 23 is_stmt 0 view .LVU18
  96 0052 6223     		movs	r3, #98
  97 0054 0393     		str	r3, [sp, #12]
 624:Core/Src/main.c ****   GPIO_InitStruct.Mode = GPIO_MODE_OUTPUT_PP;
  98              		.loc 1 624 3 is_stmt 1 view .LVU19
  99              		.loc 1 624 24 is_stmt 0 view .LVU20
 100 0056 0127     		movs	r7, #1
 101 0058 0497     		str	r7, [sp, #16]
 625:Core/Src/main.c ****   GPIO_InitStruct.Pull = GPIO_NOPULL;
 102              		.loc 1 625 3 is_stmt 1 view .LVU21
 103              		.loc 1 625 24 is_stmt 0 view .LVU22
 104 005a 0594     		str	r4, [sp, #20]
 626:Core/Src/main.c ****   GPIO_InitStruct.Speed = GPIO_SPEED_FREQ_LOW;
 105              		.loc 1 626 3 is_stmt 1 view .LVU23
 106              		.loc 1 626 25 is_stmt 0 view .LVU24
 107 005c 0694     		str	r4, [sp, #24]
 627:Core/Src/main.c ****   HAL_GPIO_Init(GPIOB, &GPIO_InitStruct);
 108              		.loc 1 627 3 is_stmt 1 view .LVU25
 109 005e 2946     		mov	r1, r5
 110 0060 3046     		mov	r0, r6
 111 0062 FFF7FEFF 		bl	HAL_GPIO_Init
 112              	.LVL2:
 628:Core/Src/main.c **** 
 629:Core/Src/main.c ****   /*Configure GPIO pin : MUX_SIG2_Pin */
 630:Core/Src/main.c ****   GPIO_InitStruct.Pin = MUX_SIG2_Pin;
ARM GAS  C:\Users\Ali\AppData\Local\Temp\cc8gb0JI.s 			page 14


 113              		.loc 1 630 3 view .LVU26
 114              		.loc 1 630 23 is_stmt 0 view .LVU27
 115 0066 4FF48073 		mov	r3, #256
 116 006a 0393     		str	r3, [sp, #12]
 631:Core/Src/main.c ****   GPIO_InitStruct.Mode = GPIO_MODE_OUTPUT_PP;
 117              		.loc 1 631 3 is_stmt 1 view .LVU28
 118              		.loc 1 631 24 is_stmt 0 view .LVU29
 119 006c 0497     		str	r7, [sp, #16]
 632:Core/Src/main.c ****   GPIO_InitStruct.Pull = GPIO_NOPULL;
 120              		.loc 1 632 3 is_stmt 1 view .LVU30
 121              		.loc 1 632 24 is_stmt 0 view .LVU31
 122 006e 0594     		str	r4, [sp, #20]
 633:Core/Src/main.c ****   GPIO_InitStruct.Speed = GPIO_SPEED_FREQ_LOW;
 123              		.loc 1 633 3 is_stmt 1 view .LVU32
 124              		.loc 1 633 25 is_stmt 0 view .LVU33
 125 0070 0694     		str	r4, [sp, #24]
 634:Core/Src/main.c ****   HAL_GPIO_Init(MUX_SIG2_GPIO_Port, &GPIO_InitStruct);
 126              		.loc 1 634 3 is_stmt 1 view .LVU34
 127 0072 2946     		mov	r1, r5
 128 0074 4FF09040 		mov	r0, #1207959552
 129 0078 FFF7FEFF 		bl	HAL_GPIO_Init
 130              	.LVL3:
 635:Core/Src/main.c **** 
 636:Core/Src/main.c ****   /*Configure GPIO pin : ALERT_IN_Pin */
 637:Core/Src/main.c ****   GPIO_InitStruct.Pin = ALERT_IN_Pin;
 131              		.loc 1 637 3 view .LVU35
 132              		.loc 1 637 23 is_stmt 0 view .LVU36
 133 007c 8023     		movs	r3, #128
 134 007e 0393     		str	r3, [sp, #12]
 638:Core/Src/main.c ****   GPIO_InitStruct.Mode = GPIO_MODE_IT_RISING_FALLING;
 135              		.loc 1 638 3 is_stmt 1 view .LVU37
 136              		.loc 1 638 24 is_stmt 0 view .LVU38
 137 0080 4FF44413 		mov	r3, #3211264
 138 0084 0493     		str	r3, [sp, #16]
 639:Core/Src/main.c ****   GPIO_InitStruct.Pull = GPIO_NOPULL;
 139              		.loc 1 639 3 is_stmt 1 view .LVU39
 140              		.loc 1 639 24 is_stmt 0 view .LVU40
 141 0086 0594     		str	r4, [sp, #20]
 640:Core/Src/main.c ****   HAL_GPIO_Init(ALERT_IN_GPIO_Port, &GPIO_InitStruct);
 142              		.loc 1 640 3 is_stmt 1 view .LVU41
 143 0088 2946     		mov	r1, r5
 144 008a 3046     		mov	r0, r6
 145 008c FFF7FEFF 		bl	HAL_GPIO_Init
 146              	.LVL4:
 641:Core/Src/main.c **** 
 642:Core/Src/main.c ****   /* USER CODE BEGIN MX_GPIO_Init_2 */
 643:Core/Src/main.c **** 
 644:Core/Src/main.c ****   /* USER CODE END MX_GPIO_Init_2 */
 645:Core/Src/main.c **** }
 147              		.loc 1 645 1 is_stmt 0 view .LVU42
 148 0090 09B0     		add	sp, sp, #36
 149              		.cfi_def_cfa_offset 20
 150              		@ sp needed
 151 0092 F0BD     		pop	{r4, r5, r6, r7, pc}
 152              	.L4:
 153              		.align	2
 154              	.L3:
ARM GAS  C:\Users\Ali\AppData\Local\Temp\cc8gb0JI.s 			page 15


 155 0094 00100240 		.word	1073876992
 156 0098 00040048 		.word	1207960576
 157              		.cfi_endproc
 158              	.LFE299:
 160              		.section	.text.StartDefaultTask,"ax",%progbits
 161              		.align	1
 162              		.global	StartDefaultTask
 163              		.syntax unified
 164              		.thumb
 165              		.thumb_func
 167              	StartDefaultTask:
 168              	.LFB301:
 646:Core/Src/main.c **** 
 647:Core/Src/main.c **** /* USER CODE BEGIN 4 */
 648:Core/Src/main.c **** 
 649:Core/Src/main.c **** /**
 650:Core/Src/main.c ****   * @brief  Application malloc failed hook (FreeRTOS)
 651:Core/Src/main.c ****   * @retval None
 652:Core/Src/main.c ****   */
 653:Core/Src/main.c **** void vApplicationMallocFailedHook(void)
 654:Core/Src/main.c **** {
 655:Core/Src/main.c ****   /* Called if a call to pvPortMalloc() fails because there is insufficient
 656:Core/Src/main.c ****      free memory available in the FreeRTOS heap. This usually means the heap
 657:Core/Src/main.c ****      size is too small. Blink MUX_SIG1 rapidly to indicate heap failure. */
 658:Core/Src/main.c ****   taskDISABLE_INTERRUPTS();
 659:Core/Src/main.c ****   for(;;) {
 660:Core/Src/main.c ****     HAL_GPIO_TogglePin(GPIOB, MUX_SIG1_Pin);
 661:Core/Src/main.c ****     for(volatile uint32_t i = 0; i < 100000; i++);  // Busy wait
 662:Core/Src/main.c ****   }
 663:Core/Src/main.c **** }
 664:Core/Src/main.c **** 
 665:Core/Src/main.c **** /* USER CODE END 4 */
 666:Core/Src/main.c **** 
 667:Core/Src/main.c **** /* USER CODE BEGIN Header_StartDefaultTask */
 668:Core/Src/main.c **** /**
 669:Core/Src/main.c ****   * @brief  Function implementing the defaultTask thread.
 670:Core/Src/main.c ****   * @param  argument: Not used
 671:Core/Src/main.c ****   * @retval None
 672:Core/Src/main.c ****   */
 673:Core/Src/main.c **** /* USER CODE END Header_StartDefaultTask */
 674:Core/Src/main.c **** void StartDefaultTask(void *argument)
 675:Core/Src/main.c **** {
 169              		.loc 1 675 1 is_stmt 1 view -0
 170              		.cfi_startproc
 171              		@ Volatile: function does not return.
 172              		@ args = 0, pretend = 0, frame = 0
 173              		@ frame_needed = 0, uses_anonymous_args = 0
 174              	.LVL5:
 175              		.loc 1 675 1 is_stmt 0 view .LVU44
 176 0000 08B5     		push	{r3, lr}
 177              		.cfi_def_cfa_offset 8
 178              		.cfi_offset 3, -8
 179              		.cfi_offset 14, -4
 180              	.LVL6:
 181              	.L6:
 676:Core/Src/main.c ****   /* USER CODE BEGIN 5 */
 677:Core/Src/main.c ****   /* Infinite loop */
ARM GAS  C:\Users\Ali\AppData\Local\Temp\cc8gb0JI.s 			page 16


 678:Core/Src/main.c ****   for(;;)
 182              		.loc 1 678 3 is_stmt 1 view .LVU45
 679:Core/Src/main.c ****   {
 680:Core/Src/main.c ****     osDelay(1);
 183              		.loc 1 680 5 discriminator 1 view .LVU46
 184 0002 0120     		movs	r0, #1
 185 0004 FFF7FEFF 		bl	osDelay
 186              	.LVL7:
 678:Core/Src/main.c ****   {
 187              		.loc 1 678 3 view .LVU47
 188 0008 FBE7     		b	.L6
 189              		.cfi_endproc
 190              	.LFE301:
 192              		.section	.text.ReadBQBMS1,"ax",%progbits
 193              		.align	1
 194              		.global	ReadBQBMS1
 195              		.syntax unified
 196              		.thumb
 197              		.thumb_func
 199              	ReadBQBMS1:
 200              	.LVL8:
 201              	.LFB302:
 681:Core/Src/main.c ****   }
 682:Core/Src/main.c ****   /* USER CODE END 5 */
 683:Core/Src/main.c **** }
 684:Core/Src/main.c **** 
 685:Core/Src/main.c **** /* USER CODE BEGIN Header_ReadCellVoltage */
 686:Core/Src/main.c **** /**
 687:Core/Src/main.c **** * @brief Function implementing the CellVoltage thread.
 688:Core/Src/main.c **** * @param argument: Not used
 689:Core/Src/main.c **** * @retval None
 690:Core/Src/main.c **** */
 691:Core/Src/main.c **** /* USER CODE BEGIN Header_ReadCellVoltageBMS1 */
 692:Core/Src/main.c **** /**
 693:Core/Src/main.c **** * @brief Function implementing the CellVoltageBMS1 thread.
 694:Core/Src/main.c **** * @param argument: Not used
 695:Core/Src/main.c **** * @retval None
 696:Core/Src/main.c **** */
 697:Core/Src/main.c **** /* USER CODE END Header_ReadCellVoltageBMS1 */
 698:Core/Src/main.c **** void ReadBQBMS1(void *argument)
 699:Core/Src/main.c **** {
 202              		.loc 1 699 1 view -0
 203              		.cfi_startproc
 204              		@ args = 0, pretend = 0, frame = 0
 205              		@ frame_needed = 0, uses_anonymous_args = 0
 206              		.loc 1 699 1 is_stmt 0 view .LVU49
 207 0000 08B5     		push	{r3, lr}
 208              		.cfi_def_cfa_offset 8
 209              		.cfi_offset 3, -8
 210              		.cfi_offset 14, -4
 700:Core/Src/main.c ****   /* USER CODE BEGIN ReadCellVoltageBMS1 */
 701:Core/Src/main.c ****   /* Call the BMS1 cell voltage monitoring task */
 702:Core/Src/main.c ****   BQ_MonitorTask(argument);
 211              		.loc 1 702 3 is_stmt 1 view .LVU50
 212 0002 FFF7FEFF 		bl	BQ_MonitorTask
 213              	.LVL9:
 703:Core/Src/main.c ****   /* USER CODE END ReadCellVoltageBMS1 */
ARM GAS  C:\Users\Ali\AppData\Local\Temp\cc8gb0JI.s 			page 17


 704:Core/Src/main.c **** }
 214              		.loc 1 704 1 is_stmt 0 view .LVU51
 215 0006 08BD     		pop	{r3, pc}
 216              		.cfi_endproc
 217              	.LFE302:
 219              		.section	.text.ReadBQBMS2,"ax",%progbits
 220              		.align	1
 221              		.global	ReadBQBMS2
 222              		.syntax unified
 223              		.thumb
 224              		.thumb_func
 226              	ReadBQBMS2:
 227              	.LVL10:
 228              	.LFB303:
 705:Core/Src/main.c **** 
 706:Core/Src/main.c **** /* USER CODE BEGIN Header_ReadCellVoltageBMS2 */
 707:Core/Src/main.c **** /**
 708:Core/Src/main.c **** * @brief Function implementing the CellVoltageBMS2 thread.
 709:Core/Src/main.c **** * @param argument: Not used
 710:Core/Src/main.c **** * @retval None
 711:Core/Src/main.c **** */
 712:Core/Src/main.c **** /* USER CODE END Header_ReadCellVoltageBMS2 */
 713:Core/Src/main.c **** void ReadBQBMS2(void *argument)
 714:Core/Src/main.c **** {
 229              		.loc 1 714 1 is_stmt 1 view -0
 230              		.cfi_startproc
 231              		@ args = 0, pretend = 0, frame = 0
 232              		@ frame_needed = 0, uses_anonymous_args = 0
 233              		.loc 1 714 1 is_stmt 0 view .LVU53
 234 0000 08B5     		push	{r3, lr}
 235              		.cfi_def_cfa_offset 8
 236              		.cfi_offset 3, -8
 237              		.cfi_offset 14, -4
 715:Core/Src/main.c ****   /* USER CODE BEGIN ReadCellVoltageBMS2 */
 716:Core/Src/main.c ****   /* Call the BMS2 cell voltage monitoring task */
 717:Core/Src/main.c ****   BQ_MonitorTask_BMS2(argument);
 238              		.loc 1 717 3 is_stmt 1 view .LVU54
 239 0002 FFF7FEFF 		bl	BQ_MonitorTask_BMS2
 240              	.LVL11:
 718:Core/Src/main.c ****   /* USER CODE END ReadCellVoltageBMS2 */
 719:Core/Src/main.c **** }
 241              		.loc 1 719 1 is_stmt 0 view .LVU55
 242 0006 08BD     		pop	{r3, pc}
 243              		.cfi_endproc
 244              	.LFE303:
 246              		.section	.text.ReadCellTemps,"ax",%progbits
 247              		.align	1
 248              		.global	ReadCellTemps
 249              		.syntax unified
 250              		.thumb
 251              		.thumb_func
 253              	ReadCellTemps:
 254              	.LVL12:
 255              	.LFB304:
 720:Core/Src/main.c **** 
 721:Core/Src/main.c **** /* USER CODE BEGIN Header_ReadCellTemps */
 722:Core/Src/main.c **** /**
ARM GAS  C:\Users\Ali\AppData\Local\Temp\cc8gb0JI.s 			page 18


 723:Core/Src/main.c **** * @brief Function implementing the CellTemperature thread.
 724:Core/Src/main.c **** * @param argument: Not used
 725:Core/Src/main.c **** * @retval None
 726:Core/Src/main.c **** */
 727:Core/Src/main.c **** /* USER CODE END Header_ReadCellTemps */
 728:Core/Src/main.c **** void ReadCellTemps(void *argument)
 729:Core/Src/main.c **** {
 256              		.loc 1 729 1 is_stmt 1 view -0
 257              		.cfi_startproc
 258              		@ args = 0, pretend = 0, frame = 0
 259              		@ frame_needed = 0, uses_anonymous_args = 0
 260              		.loc 1 729 1 is_stmt 0 view .LVU57
 261 0000 08B5     		push	{r3, lr}
 262              		.cfi_def_cfa_offset 8
 263              		.cfi_offset 3, -8
 264              		.cfi_offset 14, -4
 730:Core/Src/main.c ****   /* USER CODE BEGIN ReadCellTemps */
 731:Core/Src/main.c ****   /* Call the cell temperature monitoring task */
 732:Core/Src/main.c ****   CellTemp_MonitorTask(argument);
 265              		.loc 1 732 3 is_stmt 1 view .LVU58
 266 0002 FFF7FEFF 		bl	CellTemp_MonitorTask
 267              	.LVL13:
 733:Core/Src/main.c ****   /* USER CODE END ReadCellTemps */
 734:Core/Src/main.c **** }
 268              		.loc 1 734 1 is_stmt 0 view .LVU59
 269 0006 08BD     		pop	{r3, pc}
 270              		.cfi_endproc
 271              	.LFE304:
 273              		.section	.text.BMSResetHandlerTask,"ax",%progbits
 274              		.align	1
 275              		.global	BMSResetHandlerTask
 276              		.syntax unified
 277              		.thumb
 278              		.thumb_func
 280              	BMSResetHandlerTask:
 281              	.LFB305:
 735:Core/Src/main.c **** 
 736:Core/Src/main.c **** /* USER CODE BEGIN Header_BMSResetHandlerTask */
 737:Core/Src/main.c **** /**
 738:Core/Src/main.c **** * @brief Function implementing the BMSResetHandler thread.
 739:Core/Src/main.c **** * @param argument: Not used
 740:Core/Src/main.c **** * @retval None
 741:Core/Src/main.c **** * @note  This task waits for a semaphore signal to perform BMS chip reset.
 742:Core/Src/main.c **** *        Using a dedicated task prevents blocking the CAN manager during
 743:Core/Src/main.c **** *        the 600ms reset sequence (500ms + 100ms delays).
 744:Core/Src/main.c **** */
 745:Core/Src/main.c **** /* USER CODE END Header_BMSResetHandlerTask */
 746:Core/Src/main.c **** void BMSResetHandlerTask(void *argument)
 747:Core/Src/main.c **** {
 282              		.loc 1 747 1 is_stmt 1 view -0
 283              		.cfi_startproc
 284              		@ Volatile: function does not return.
 285              		@ args = 0, pretend = 0, frame = 0
 286              		@ frame_needed = 0, uses_anonymous_args = 0
 287              	.LVL14:
 288              		.loc 1 747 1 is_stmt 0 view .LVU61
 289 0000 08B5     		push	{r3, lr}
ARM GAS  C:\Users\Ali\AppData\Local\Temp\cc8gb0JI.s 			page 19


 290              		.cfi_def_cfa_offset 8
 291              		.cfi_offset 3, -8
 292              		.cfi_offset 14, -4
 293              	.LVL15:
 294              	.L15:
 748:Core/Src/main.c ****   /* USER CODE BEGIN BMSResetHandlerTask */
 749:Core/Src/main.c ****   /* Infinite loop */
 750:Core/Src/main.c ****   for(;;)
 295              		.loc 1 750 3 is_stmt 1 view .LVU62
 751:Core/Src/main.c ****   {
 752:Core/Src/main.c ****     // Wait indefinitely for reset semaphore signal
 753:Core/Src/main.c ****     if (osSemaphoreAcquire(BMSResetSemHandle, osWaitForever) == osOK)
 296              		.loc 1 753 5 view .LVU63
 297              		.loc 1 753 9 is_stmt 0 view .LVU64
 298 0002 4FF0FF31 		mov	r1, #-1
 299 0006 044B     		ldr	r3, .L18
 300 0008 1868     		ldr	r0, [r3]
 301 000a FFF7FEFF 		bl	osSemaphoreAcquire
 302              	.LVL16:
 303              		.loc 1 753 8 discriminator 1 view .LVU65
 304 000e 0028     		cmp	r0, #0
 305 0010 F7D1     		bne	.L15
 754:Core/Src/main.c ****     {
 755:Core/Src/main.c ****       // Perform the chip reset (blocks for 600ms total)
 756:Core/Src/main.c ****       BQ_ResetChips();
 306              		.loc 1 756 7 is_stmt 1 view .LVU66
 307 0012 FFF7FEFF 		bl	BQ_ResetChips
 308              	.LVL17:
 309 0016 F4E7     		b	.L15
 310              	.L19:
 311              		.align	2
 312              	.L18:
 313 0018 00000000 		.word	BMSResetSemHandle
 314              		.cfi_endproc
 315              	.LFE305:
 317              		.section	.text.vApplicationMallocFailedHook,"ax",%progbits
 318              		.align	1
 319              		.global	vApplicationMallocFailedHook
 320              		.syntax unified
 321              		.thumb
 322              		.thumb_func
 324              	vApplicationMallocFailedHook:
 325              	.LFB300:
 654:Core/Src/main.c ****   /* Called if a call to pvPortMalloc() fails because there is insufficient
 326              		.loc 1 654 1 view -0
 327              		.cfi_startproc
 328              		@ Volatile: function does not return.
 329              		@ args = 0, pretend = 0, frame = 8
 330              		@ frame_needed = 0, uses_anonymous_args = 0
 331 0000 00B5     		push	{lr}
 332              		.cfi_def_cfa_offset 4
 333              		.cfi_offset 14, -4
 334 0002 83B0     		sub	sp, sp, #12
 335              		.cfi_def_cfa_offset 16
 658:Core/Src/main.c ****   for(;;) {
 336              		.loc 1 658 3 view .LVU68
 337              	.LBB11:
ARM GAS  C:\Users\Ali\AppData\Local\Temp\cc8gb0JI.s 			page 20


 338              	.LBI11:
 339              		.file 2 "Middlewares/Third_Party/FreeRTOS/Source/portable/GCC/ARM_CM4F/portmacro.h"
   1:Middlewares/Third_Party/FreeRTOS/Source/portable/GCC/ARM_CM4F/portmacro.h **** /*
   2:Middlewares/Third_Party/FreeRTOS/Source/portable/GCC/ARM_CM4F/portmacro.h ****  * FreeRTOS Kernel V10.3.1
   3:Middlewares/Third_Party/FreeRTOS/Source/portable/GCC/ARM_CM4F/portmacro.h ****  * Copyright (C) 2020 Amazon.com, Inc. or its affiliates.  All Rights Reserved.
   4:Middlewares/Third_Party/FreeRTOS/Source/portable/GCC/ARM_CM4F/portmacro.h ****  *
   5:Middlewares/Third_Party/FreeRTOS/Source/portable/GCC/ARM_CM4F/portmacro.h ****  * Permission is hereby granted, free of charge, to any person obtaining a copy of
   6:Middlewares/Third_Party/FreeRTOS/Source/portable/GCC/ARM_CM4F/portmacro.h ****  * this software and associated documentation files (the "Software"), to deal in
   7:Middlewares/Third_Party/FreeRTOS/Source/portable/GCC/ARM_CM4F/portmacro.h ****  * the Software without restriction, including without limitation the rights to
   8:Middlewares/Third_Party/FreeRTOS/Source/portable/GCC/ARM_CM4F/portmacro.h ****  * use, copy, modify, merge, publish, distribute, sublicense, and/or sell copies of
   9:Middlewares/Third_Party/FreeRTOS/Source/portable/GCC/ARM_CM4F/portmacro.h ****  * the Software, and to permit persons to whom the Software is furnished to do so,
  10:Middlewares/Third_Party/FreeRTOS/Source/portable/GCC/ARM_CM4F/portmacro.h ****  * subject to the following conditions:
  11:Middlewares/Third_Party/FreeRTOS/Source/portable/GCC/ARM_CM4F/portmacro.h ****  *
  12:Middlewares/Third_Party/FreeRTOS/Source/portable/GCC/ARM_CM4F/portmacro.h ****  * The above copyright notice and this permission notice shall be included in all
  13:Middlewares/Third_Party/FreeRTOS/Source/portable/GCC/ARM_CM4F/portmacro.h ****  * copies or substantial portions of the Software.
  14:Middlewares/Third_Party/FreeRTOS/Source/portable/GCC/ARM_CM4F/portmacro.h ****  *
  15:Middlewares/Third_Party/FreeRTOS/Source/portable/GCC/ARM_CM4F/portmacro.h ****  * THE SOFTWARE IS PROVIDED "AS IS", WITHOUT WARRANTY OF ANY KIND, EXPRESS OR
  16:Middlewares/Third_Party/FreeRTOS/Source/portable/GCC/ARM_CM4F/portmacro.h ****  * IMPLIED, INCLUDING BUT NOT LIMITED TO THE WARRANTIES OF MERCHANTABILITY, FITNESS
  17:Middlewares/Third_Party/FreeRTOS/Source/portable/GCC/ARM_CM4F/portmacro.h ****  * FOR A PARTICULAR PURPOSE AND NONINFRINGEMENT. IN NO EVENT SHALL THE AUTHORS OR
  18:Middlewares/Third_Party/FreeRTOS/Source/portable/GCC/ARM_CM4F/portmacro.h ****  * COPYRIGHT HOLDERS BE LIABLE FOR ANY CLAIM, DAMAGES OR OTHER LIABILITY, WHETHER
  19:Middlewares/Third_Party/FreeRTOS/Source/portable/GCC/ARM_CM4F/portmacro.h ****  * IN AN ACTION OF CONTRACT, TORT OR OTHERWISE, ARISING FROM, OUT OF OR IN
  20:Middlewares/Third_Party/FreeRTOS/Source/portable/GCC/ARM_CM4F/portmacro.h ****  * CONNECTION WITH THE SOFTWARE OR THE USE OR OTHER DEALINGS IN THE SOFTWARE.
  21:Middlewares/Third_Party/FreeRTOS/Source/portable/GCC/ARM_CM4F/portmacro.h ****  *
  22:Middlewares/Third_Party/FreeRTOS/Source/portable/GCC/ARM_CM4F/portmacro.h ****  * http://www.FreeRTOS.org
  23:Middlewares/Third_Party/FreeRTOS/Source/portable/GCC/ARM_CM4F/portmacro.h ****  * http://aws.amazon.com/freertos
  24:Middlewares/Third_Party/FreeRTOS/Source/portable/GCC/ARM_CM4F/portmacro.h ****  *
  25:Middlewares/Third_Party/FreeRTOS/Source/portable/GCC/ARM_CM4F/portmacro.h ****  * 1 tab == 4 spaces!
  26:Middlewares/Third_Party/FreeRTOS/Source/portable/GCC/ARM_CM4F/portmacro.h ****  */
  27:Middlewares/Third_Party/FreeRTOS/Source/portable/GCC/ARM_CM4F/portmacro.h **** 
  28:Middlewares/Third_Party/FreeRTOS/Source/portable/GCC/ARM_CM4F/portmacro.h **** 
  29:Middlewares/Third_Party/FreeRTOS/Source/portable/GCC/ARM_CM4F/portmacro.h **** #ifndef PORTMACRO_H
  30:Middlewares/Third_Party/FreeRTOS/Source/portable/GCC/ARM_CM4F/portmacro.h **** #define PORTMACRO_H
  31:Middlewares/Third_Party/FreeRTOS/Source/portable/GCC/ARM_CM4F/portmacro.h **** 
  32:Middlewares/Third_Party/FreeRTOS/Source/portable/GCC/ARM_CM4F/portmacro.h **** #ifdef __cplusplus
  33:Middlewares/Third_Party/FreeRTOS/Source/portable/GCC/ARM_CM4F/portmacro.h **** extern "C" {
  34:Middlewares/Third_Party/FreeRTOS/Source/portable/GCC/ARM_CM4F/portmacro.h **** #endif
  35:Middlewares/Third_Party/FreeRTOS/Source/portable/GCC/ARM_CM4F/portmacro.h **** 
  36:Middlewares/Third_Party/FreeRTOS/Source/portable/GCC/ARM_CM4F/portmacro.h **** /*-----------------------------------------------------------
  37:Middlewares/Third_Party/FreeRTOS/Source/portable/GCC/ARM_CM4F/portmacro.h ****  * Port specific definitions.
  38:Middlewares/Third_Party/FreeRTOS/Source/portable/GCC/ARM_CM4F/portmacro.h ****  *
  39:Middlewares/Third_Party/FreeRTOS/Source/portable/GCC/ARM_CM4F/portmacro.h ****  * The settings in this file configure FreeRTOS correctly for the
  40:Middlewares/Third_Party/FreeRTOS/Source/portable/GCC/ARM_CM4F/portmacro.h ****  * given hardware and compiler.
  41:Middlewares/Third_Party/FreeRTOS/Source/portable/GCC/ARM_CM4F/portmacro.h ****  *
  42:Middlewares/Third_Party/FreeRTOS/Source/portable/GCC/ARM_CM4F/portmacro.h ****  * These settings should not be altered.
  43:Middlewares/Third_Party/FreeRTOS/Source/portable/GCC/ARM_CM4F/portmacro.h ****  *-----------------------------------------------------------
  44:Middlewares/Third_Party/FreeRTOS/Source/portable/GCC/ARM_CM4F/portmacro.h ****  */
  45:Middlewares/Third_Party/FreeRTOS/Source/portable/GCC/ARM_CM4F/portmacro.h **** 
  46:Middlewares/Third_Party/FreeRTOS/Source/portable/GCC/ARM_CM4F/portmacro.h **** /* Type definitions. */
  47:Middlewares/Third_Party/FreeRTOS/Source/portable/GCC/ARM_CM4F/portmacro.h **** #define portCHAR		char
  48:Middlewares/Third_Party/FreeRTOS/Source/portable/GCC/ARM_CM4F/portmacro.h **** #define portFLOAT		float
  49:Middlewares/Third_Party/FreeRTOS/Source/portable/GCC/ARM_CM4F/portmacro.h **** #define portDOUBLE		double
  50:Middlewares/Third_Party/FreeRTOS/Source/portable/GCC/ARM_CM4F/portmacro.h **** #define portLONG		long
  51:Middlewares/Third_Party/FreeRTOS/Source/portable/GCC/ARM_CM4F/portmacro.h **** #define portSHORT		short
  52:Middlewares/Third_Party/FreeRTOS/Source/portable/GCC/ARM_CM4F/portmacro.h **** #define portSTACK_TYPE	uint32_t
  53:Middlewares/Third_Party/FreeRTOS/Source/portable/GCC/ARM_CM4F/portmacro.h **** #define portBASE_TYPE	long
  54:Middlewares/Third_Party/FreeRTOS/Source/portable/GCC/ARM_CM4F/portmacro.h **** 
  55:Middlewares/Third_Party/FreeRTOS/Source/portable/GCC/ARM_CM4F/portmacro.h **** typedef portSTACK_TYPE StackType_t;
ARM GAS  C:\Users\Ali\AppData\Local\Temp\cc8gb0JI.s 			page 21


  56:Middlewares/Third_Party/FreeRTOS/Source/portable/GCC/ARM_CM4F/portmacro.h **** typedef long BaseType_t;
  57:Middlewares/Third_Party/FreeRTOS/Source/portable/GCC/ARM_CM4F/portmacro.h **** typedef unsigned long UBaseType_t;
  58:Middlewares/Third_Party/FreeRTOS/Source/portable/GCC/ARM_CM4F/portmacro.h **** 
  59:Middlewares/Third_Party/FreeRTOS/Source/portable/GCC/ARM_CM4F/portmacro.h **** #if( configUSE_16_BIT_TICKS == 1 )
  60:Middlewares/Third_Party/FreeRTOS/Source/portable/GCC/ARM_CM4F/portmacro.h **** 	typedef uint16_t TickType_t;
  61:Middlewares/Third_Party/FreeRTOS/Source/portable/GCC/ARM_CM4F/portmacro.h **** 	#define portMAX_DELAY ( TickType_t ) 0xffff
  62:Middlewares/Third_Party/FreeRTOS/Source/portable/GCC/ARM_CM4F/portmacro.h **** #else
  63:Middlewares/Third_Party/FreeRTOS/Source/portable/GCC/ARM_CM4F/portmacro.h **** 	typedef uint32_t TickType_t;
  64:Middlewares/Third_Party/FreeRTOS/Source/portable/GCC/ARM_CM4F/portmacro.h **** 	#define portMAX_DELAY ( TickType_t ) 0xffffffffUL
  65:Middlewares/Third_Party/FreeRTOS/Source/portable/GCC/ARM_CM4F/portmacro.h **** 
  66:Middlewares/Third_Party/FreeRTOS/Source/portable/GCC/ARM_CM4F/portmacro.h **** 	/* 32-bit tick type on a 32-bit architecture, so reads of the tick count do
  67:Middlewares/Third_Party/FreeRTOS/Source/portable/GCC/ARM_CM4F/portmacro.h **** 	not need to be guarded with a critical section. */
  68:Middlewares/Third_Party/FreeRTOS/Source/portable/GCC/ARM_CM4F/portmacro.h **** 	#define portTICK_TYPE_IS_ATOMIC 1
  69:Middlewares/Third_Party/FreeRTOS/Source/portable/GCC/ARM_CM4F/portmacro.h **** #endif
  70:Middlewares/Third_Party/FreeRTOS/Source/portable/GCC/ARM_CM4F/portmacro.h **** /*-----------------------------------------------------------*/
  71:Middlewares/Third_Party/FreeRTOS/Source/portable/GCC/ARM_CM4F/portmacro.h **** 
  72:Middlewares/Third_Party/FreeRTOS/Source/portable/GCC/ARM_CM4F/portmacro.h **** /* Architecture specifics. */
  73:Middlewares/Third_Party/FreeRTOS/Source/portable/GCC/ARM_CM4F/portmacro.h **** #define portSTACK_GROWTH			( -1 )
  74:Middlewares/Third_Party/FreeRTOS/Source/portable/GCC/ARM_CM4F/portmacro.h **** #define portTICK_PERIOD_MS			( ( TickType_t ) 1000 / configTICK_RATE_HZ )
  75:Middlewares/Third_Party/FreeRTOS/Source/portable/GCC/ARM_CM4F/portmacro.h **** #define portBYTE_ALIGNMENT			8
  76:Middlewares/Third_Party/FreeRTOS/Source/portable/GCC/ARM_CM4F/portmacro.h **** /*-----------------------------------------------------------*/
  77:Middlewares/Third_Party/FreeRTOS/Source/portable/GCC/ARM_CM4F/portmacro.h **** 
  78:Middlewares/Third_Party/FreeRTOS/Source/portable/GCC/ARM_CM4F/portmacro.h **** /* Scheduler utilities. */
  79:Middlewares/Third_Party/FreeRTOS/Source/portable/GCC/ARM_CM4F/portmacro.h **** #define portYIELD() 															\
  80:Middlewares/Third_Party/FreeRTOS/Source/portable/GCC/ARM_CM4F/portmacro.h **** {																				\
  81:Middlewares/Third_Party/FreeRTOS/Source/portable/GCC/ARM_CM4F/portmacro.h **** 	/* Set a PendSV to request a context switch. */								\
  82:Middlewares/Third_Party/FreeRTOS/Source/portable/GCC/ARM_CM4F/portmacro.h **** 	portNVIC_INT_CTRL_REG = portNVIC_PENDSVSET_BIT;								\
  83:Middlewares/Third_Party/FreeRTOS/Source/portable/GCC/ARM_CM4F/portmacro.h **** 																				\
  84:Middlewares/Third_Party/FreeRTOS/Source/portable/GCC/ARM_CM4F/portmacro.h **** 	/* Barriers are normally not required but do ensure the code is completely	\
  85:Middlewares/Third_Party/FreeRTOS/Source/portable/GCC/ARM_CM4F/portmacro.h **** 	within the specified behaviour for the architecture. */						\
  86:Middlewares/Third_Party/FreeRTOS/Source/portable/GCC/ARM_CM4F/portmacro.h **** 	__asm volatile( "dsb" ::: "memory" );										\
  87:Middlewares/Third_Party/FreeRTOS/Source/portable/GCC/ARM_CM4F/portmacro.h **** 	__asm volatile( "isb" );													\
  88:Middlewares/Third_Party/FreeRTOS/Source/portable/GCC/ARM_CM4F/portmacro.h **** }
  89:Middlewares/Third_Party/FreeRTOS/Source/portable/GCC/ARM_CM4F/portmacro.h **** 
  90:Middlewares/Third_Party/FreeRTOS/Source/portable/GCC/ARM_CM4F/portmacro.h **** #define portNVIC_INT_CTRL_REG		( * ( ( volatile uint32_t * ) 0xe000ed04 ) )
  91:Middlewares/Third_Party/FreeRTOS/Source/portable/GCC/ARM_CM4F/portmacro.h **** #define portNVIC_PENDSVSET_BIT		( 1UL << 28UL )
  92:Middlewares/Third_Party/FreeRTOS/Source/portable/GCC/ARM_CM4F/portmacro.h **** #define portEND_SWITCHING_ISR( xSwitchRequired ) if( xSwitchRequired != pdFALSE ) portYIELD()
  93:Middlewares/Third_Party/FreeRTOS/Source/portable/GCC/ARM_CM4F/portmacro.h **** #define portYIELD_FROM_ISR( x ) portEND_SWITCHING_ISR( x )
  94:Middlewares/Third_Party/FreeRTOS/Source/portable/GCC/ARM_CM4F/portmacro.h **** /*-----------------------------------------------------------*/
  95:Middlewares/Third_Party/FreeRTOS/Source/portable/GCC/ARM_CM4F/portmacro.h **** 
  96:Middlewares/Third_Party/FreeRTOS/Source/portable/GCC/ARM_CM4F/portmacro.h **** /* Critical section management. */
  97:Middlewares/Third_Party/FreeRTOS/Source/portable/GCC/ARM_CM4F/portmacro.h **** extern void vPortEnterCritical( void );
  98:Middlewares/Third_Party/FreeRTOS/Source/portable/GCC/ARM_CM4F/portmacro.h **** extern void vPortExitCritical( void );
  99:Middlewares/Third_Party/FreeRTOS/Source/portable/GCC/ARM_CM4F/portmacro.h **** #define portSET_INTERRUPT_MASK_FROM_ISR()		ulPortRaiseBASEPRI()
 100:Middlewares/Third_Party/FreeRTOS/Source/portable/GCC/ARM_CM4F/portmacro.h **** #define portCLEAR_INTERRUPT_MASK_FROM_ISR(x)	vPortSetBASEPRI(x)
 101:Middlewares/Third_Party/FreeRTOS/Source/portable/GCC/ARM_CM4F/portmacro.h **** #define portDISABLE_INTERRUPTS()				vPortRaiseBASEPRI()
 102:Middlewares/Third_Party/FreeRTOS/Source/portable/GCC/ARM_CM4F/portmacro.h **** #define portENABLE_INTERRUPTS()					vPortSetBASEPRI(0)
 103:Middlewares/Third_Party/FreeRTOS/Source/portable/GCC/ARM_CM4F/portmacro.h **** #define portENTER_CRITICAL()					vPortEnterCritical()
 104:Middlewares/Third_Party/FreeRTOS/Source/portable/GCC/ARM_CM4F/portmacro.h **** #define portEXIT_CRITICAL()						vPortExitCritical()
 105:Middlewares/Third_Party/FreeRTOS/Source/portable/GCC/ARM_CM4F/portmacro.h **** 
 106:Middlewares/Third_Party/FreeRTOS/Source/portable/GCC/ARM_CM4F/portmacro.h **** /*-----------------------------------------------------------*/
 107:Middlewares/Third_Party/FreeRTOS/Source/portable/GCC/ARM_CM4F/portmacro.h **** 
 108:Middlewares/Third_Party/FreeRTOS/Source/portable/GCC/ARM_CM4F/portmacro.h **** /* Task function macros as described on the FreeRTOS.org WEB site.  These are
 109:Middlewares/Third_Party/FreeRTOS/Source/portable/GCC/ARM_CM4F/portmacro.h **** not necessary for to use this port.  They are defined so the common demo files
 110:Middlewares/Third_Party/FreeRTOS/Source/portable/GCC/ARM_CM4F/portmacro.h **** (which build with all the ports) will build. */
 111:Middlewares/Third_Party/FreeRTOS/Source/portable/GCC/ARM_CM4F/portmacro.h **** #define portTASK_FUNCTION_PROTO( vFunction, pvParameters ) void vFunction( void *pvParameters )
 112:Middlewares/Third_Party/FreeRTOS/Source/portable/GCC/ARM_CM4F/portmacro.h **** #define portTASK_FUNCTION( vFunction, pvParameters ) void vFunction( void *pvParameters )
ARM GAS  C:\Users\Ali\AppData\Local\Temp\cc8gb0JI.s 			page 22


 113:Middlewares/Third_Party/FreeRTOS/Source/portable/GCC/ARM_CM4F/portmacro.h **** /*-----------------------------------------------------------*/
 114:Middlewares/Third_Party/FreeRTOS/Source/portable/GCC/ARM_CM4F/portmacro.h **** 
 115:Middlewares/Third_Party/FreeRTOS/Source/portable/GCC/ARM_CM4F/portmacro.h **** /* Tickless idle/low power functionality. */
 116:Middlewares/Third_Party/FreeRTOS/Source/portable/GCC/ARM_CM4F/portmacro.h **** #ifndef portSUPPRESS_TICKS_AND_SLEEP
 117:Middlewares/Third_Party/FreeRTOS/Source/portable/GCC/ARM_CM4F/portmacro.h **** 	extern void vPortSuppressTicksAndSleep( TickType_t xExpectedIdleTime );
 118:Middlewares/Third_Party/FreeRTOS/Source/portable/GCC/ARM_CM4F/portmacro.h **** 	#define portSUPPRESS_TICKS_AND_SLEEP( xExpectedIdleTime ) vPortSuppressTicksAndSleep( xExpectedIdl
 119:Middlewares/Third_Party/FreeRTOS/Source/portable/GCC/ARM_CM4F/portmacro.h **** #endif
 120:Middlewares/Third_Party/FreeRTOS/Source/portable/GCC/ARM_CM4F/portmacro.h **** /*-----------------------------------------------------------*/
 121:Middlewares/Third_Party/FreeRTOS/Source/portable/GCC/ARM_CM4F/portmacro.h **** 
 122:Middlewares/Third_Party/FreeRTOS/Source/portable/GCC/ARM_CM4F/portmacro.h **** /* Architecture specific optimisations. */
 123:Middlewares/Third_Party/FreeRTOS/Source/portable/GCC/ARM_CM4F/portmacro.h **** #ifndef configUSE_PORT_OPTIMISED_TASK_SELECTION
 124:Middlewares/Third_Party/FreeRTOS/Source/portable/GCC/ARM_CM4F/portmacro.h **** 	#define configUSE_PORT_OPTIMISED_TASK_SELECTION 1
 125:Middlewares/Third_Party/FreeRTOS/Source/portable/GCC/ARM_CM4F/portmacro.h **** #endif
 126:Middlewares/Third_Party/FreeRTOS/Source/portable/GCC/ARM_CM4F/portmacro.h **** 
 127:Middlewares/Third_Party/FreeRTOS/Source/portable/GCC/ARM_CM4F/portmacro.h **** #if configUSE_PORT_OPTIMISED_TASK_SELECTION == 1
 128:Middlewares/Third_Party/FreeRTOS/Source/portable/GCC/ARM_CM4F/portmacro.h **** 
 129:Middlewares/Third_Party/FreeRTOS/Source/portable/GCC/ARM_CM4F/portmacro.h **** 	/* Generic helper function. */
 130:Middlewares/Third_Party/FreeRTOS/Source/portable/GCC/ARM_CM4F/portmacro.h **** 	__attribute__( ( always_inline ) ) static inline uint8_t ucPortCountLeadingZeros( uint32_t ulBitma
 131:Middlewares/Third_Party/FreeRTOS/Source/portable/GCC/ARM_CM4F/portmacro.h **** 	{
 132:Middlewares/Third_Party/FreeRTOS/Source/portable/GCC/ARM_CM4F/portmacro.h **** 	uint8_t ucReturn;
 133:Middlewares/Third_Party/FreeRTOS/Source/portable/GCC/ARM_CM4F/portmacro.h **** 
 134:Middlewares/Third_Party/FreeRTOS/Source/portable/GCC/ARM_CM4F/portmacro.h **** 		__asm volatile ( "clz %0, %1" : "=r" ( ucReturn ) : "r" ( ulBitmap ) : "memory" );
 135:Middlewares/Third_Party/FreeRTOS/Source/portable/GCC/ARM_CM4F/portmacro.h **** 		return ucReturn;
 136:Middlewares/Third_Party/FreeRTOS/Source/portable/GCC/ARM_CM4F/portmacro.h **** 	}
 137:Middlewares/Third_Party/FreeRTOS/Source/portable/GCC/ARM_CM4F/portmacro.h **** 
 138:Middlewares/Third_Party/FreeRTOS/Source/portable/GCC/ARM_CM4F/portmacro.h **** 	/* Check the configuration. */
 139:Middlewares/Third_Party/FreeRTOS/Source/portable/GCC/ARM_CM4F/portmacro.h **** 	#if( configMAX_PRIORITIES > 32 )
 140:Middlewares/Third_Party/FreeRTOS/Source/portable/GCC/ARM_CM4F/portmacro.h **** 		#error configUSE_PORT_OPTIMISED_TASK_SELECTION can only be set to 1 when configMAX_PRIORITIES is 
 141:Middlewares/Third_Party/FreeRTOS/Source/portable/GCC/ARM_CM4F/portmacro.h **** 	#endif
 142:Middlewares/Third_Party/FreeRTOS/Source/portable/GCC/ARM_CM4F/portmacro.h **** 
 143:Middlewares/Third_Party/FreeRTOS/Source/portable/GCC/ARM_CM4F/portmacro.h **** 	/* Store/clear the ready priorities in a bit map. */
 144:Middlewares/Third_Party/FreeRTOS/Source/portable/GCC/ARM_CM4F/portmacro.h **** 	#define portRECORD_READY_PRIORITY( uxPriority, uxReadyPriorities ) ( uxReadyPriorities ) |= ( 1UL 
 145:Middlewares/Third_Party/FreeRTOS/Source/portable/GCC/ARM_CM4F/portmacro.h **** 	#define portRESET_READY_PRIORITY( uxPriority, uxReadyPriorities ) ( uxReadyPriorities ) &= ~( 1UL 
 146:Middlewares/Third_Party/FreeRTOS/Source/portable/GCC/ARM_CM4F/portmacro.h **** 
 147:Middlewares/Third_Party/FreeRTOS/Source/portable/GCC/ARM_CM4F/portmacro.h **** 	/*-----------------------------------------------------------*/
 148:Middlewares/Third_Party/FreeRTOS/Source/portable/GCC/ARM_CM4F/portmacro.h **** 
 149:Middlewares/Third_Party/FreeRTOS/Source/portable/GCC/ARM_CM4F/portmacro.h **** 	#define portGET_HIGHEST_PRIORITY( uxTopPriority, uxReadyPriorities ) uxTopPriority = ( 31UL - ( ui
 150:Middlewares/Third_Party/FreeRTOS/Source/portable/GCC/ARM_CM4F/portmacro.h **** 
 151:Middlewares/Third_Party/FreeRTOS/Source/portable/GCC/ARM_CM4F/portmacro.h **** #endif /* configUSE_PORT_OPTIMISED_TASK_SELECTION */
 152:Middlewares/Third_Party/FreeRTOS/Source/portable/GCC/ARM_CM4F/portmacro.h **** 
 153:Middlewares/Third_Party/FreeRTOS/Source/portable/GCC/ARM_CM4F/portmacro.h **** /*-----------------------------------------------------------*/
 154:Middlewares/Third_Party/FreeRTOS/Source/portable/GCC/ARM_CM4F/portmacro.h **** 
 155:Middlewares/Third_Party/FreeRTOS/Source/portable/GCC/ARM_CM4F/portmacro.h **** #ifdef configASSERT
 156:Middlewares/Third_Party/FreeRTOS/Source/portable/GCC/ARM_CM4F/portmacro.h **** 	void vPortValidateInterruptPriority( void );
 157:Middlewares/Third_Party/FreeRTOS/Source/portable/GCC/ARM_CM4F/portmacro.h **** 	#define portASSERT_IF_INTERRUPT_PRIORITY_INVALID() 	vPortValidateInterruptPriority()
 158:Middlewares/Third_Party/FreeRTOS/Source/portable/GCC/ARM_CM4F/portmacro.h **** #endif
 159:Middlewares/Third_Party/FreeRTOS/Source/portable/GCC/ARM_CM4F/portmacro.h **** 
 160:Middlewares/Third_Party/FreeRTOS/Source/portable/GCC/ARM_CM4F/portmacro.h **** /* portNOP() is not required by this port. */
 161:Middlewares/Third_Party/FreeRTOS/Source/portable/GCC/ARM_CM4F/portmacro.h **** #define portNOP()
 162:Middlewares/Third_Party/FreeRTOS/Source/portable/GCC/ARM_CM4F/portmacro.h **** 
 163:Middlewares/Third_Party/FreeRTOS/Source/portable/GCC/ARM_CM4F/portmacro.h **** #define portINLINE	__inline
 164:Middlewares/Third_Party/FreeRTOS/Source/portable/GCC/ARM_CM4F/portmacro.h **** 
 165:Middlewares/Third_Party/FreeRTOS/Source/portable/GCC/ARM_CM4F/portmacro.h **** #ifndef portFORCE_INLINE
 166:Middlewares/Third_Party/FreeRTOS/Source/portable/GCC/ARM_CM4F/portmacro.h **** 	#define portFORCE_INLINE inline __attribute__(( always_inline))
 167:Middlewares/Third_Party/FreeRTOS/Source/portable/GCC/ARM_CM4F/portmacro.h **** #endif
 168:Middlewares/Third_Party/FreeRTOS/Source/portable/GCC/ARM_CM4F/portmacro.h **** 
 169:Middlewares/Third_Party/FreeRTOS/Source/portable/GCC/ARM_CM4F/portmacro.h **** portFORCE_INLINE static BaseType_t xPortIsInsideInterrupt( void )
ARM GAS  C:\Users\Ali\AppData\Local\Temp\cc8gb0JI.s 			page 23


 170:Middlewares/Third_Party/FreeRTOS/Source/portable/GCC/ARM_CM4F/portmacro.h **** {
 171:Middlewares/Third_Party/FreeRTOS/Source/portable/GCC/ARM_CM4F/portmacro.h **** uint32_t ulCurrentInterrupt;
 172:Middlewares/Third_Party/FreeRTOS/Source/portable/GCC/ARM_CM4F/portmacro.h **** BaseType_t xReturn;
 173:Middlewares/Third_Party/FreeRTOS/Source/portable/GCC/ARM_CM4F/portmacro.h **** 
 174:Middlewares/Third_Party/FreeRTOS/Source/portable/GCC/ARM_CM4F/portmacro.h **** 	/* Obtain the number of the currently executing interrupt. */
 175:Middlewares/Third_Party/FreeRTOS/Source/portable/GCC/ARM_CM4F/portmacro.h **** 	__asm volatile( "mrs %0, ipsr" : "=r"( ulCurrentInterrupt ) :: "memory" );
 176:Middlewares/Third_Party/FreeRTOS/Source/portable/GCC/ARM_CM4F/portmacro.h **** 
 177:Middlewares/Third_Party/FreeRTOS/Source/portable/GCC/ARM_CM4F/portmacro.h **** 	if( ulCurrentInterrupt == 0 )
 178:Middlewares/Third_Party/FreeRTOS/Source/portable/GCC/ARM_CM4F/portmacro.h **** 	{
 179:Middlewares/Third_Party/FreeRTOS/Source/portable/GCC/ARM_CM4F/portmacro.h **** 		xReturn = pdFALSE;
 180:Middlewares/Third_Party/FreeRTOS/Source/portable/GCC/ARM_CM4F/portmacro.h **** 	}
 181:Middlewares/Third_Party/FreeRTOS/Source/portable/GCC/ARM_CM4F/portmacro.h **** 	else
 182:Middlewares/Third_Party/FreeRTOS/Source/portable/GCC/ARM_CM4F/portmacro.h **** 	{
 183:Middlewares/Third_Party/FreeRTOS/Source/portable/GCC/ARM_CM4F/portmacro.h **** 		xReturn = pdTRUE;
 184:Middlewares/Third_Party/FreeRTOS/Source/portable/GCC/ARM_CM4F/portmacro.h **** 	}
 185:Middlewares/Third_Party/FreeRTOS/Source/portable/GCC/ARM_CM4F/portmacro.h **** 
 186:Middlewares/Third_Party/FreeRTOS/Source/portable/GCC/ARM_CM4F/portmacro.h **** 	return xReturn;
 187:Middlewares/Third_Party/FreeRTOS/Source/portable/GCC/ARM_CM4F/portmacro.h **** }
 188:Middlewares/Third_Party/FreeRTOS/Source/portable/GCC/ARM_CM4F/portmacro.h **** 
 189:Middlewares/Third_Party/FreeRTOS/Source/portable/GCC/ARM_CM4F/portmacro.h **** /*-----------------------------------------------------------*/
 190:Middlewares/Third_Party/FreeRTOS/Source/portable/GCC/ARM_CM4F/portmacro.h **** 
 191:Middlewares/Third_Party/FreeRTOS/Source/portable/GCC/ARM_CM4F/portmacro.h **** portFORCE_INLINE static void vPortRaiseBASEPRI( void )
 340              		.loc 2 191 30 view .LVU69
 341              	.LBB12:
 192:Middlewares/Third_Party/FreeRTOS/Source/portable/GCC/ARM_CM4F/portmacro.h **** {
 193:Middlewares/Third_Party/FreeRTOS/Source/portable/GCC/ARM_CM4F/portmacro.h **** uint32_t ulNewBASEPRI;
 342              		.loc 2 193 1 view .LVU70
 194:Middlewares/Third_Party/FreeRTOS/Source/portable/GCC/ARM_CM4F/portmacro.h **** 
 195:Middlewares/Third_Party/FreeRTOS/Source/portable/GCC/ARM_CM4F/portmacro.h **** 	__asm volatile
 343              		.loc 2 195 2 view .LVU71
 344              		.syntax unified
 345              	@ 195 "Middlewares/Third_Party/FreeRTOS/Source/portable/GCC/ARM_CM4F/portmacro.h" 1
 346 0004 4FF05003 			mov r3, #80												
 347 0008 83F31188 		msr basepri, r3											
 348 000c BFF36F8F 		isb														
 349 0010 BFF34F8F 		dsb														
 350              	
 351              	@ 0 "" 2
 352              		.thumb
 353              		.syntax unified
 354              	.L23:
 355              	.LBE12:
 356              	.LBE11:
 659:Core/Src/main.c ****     HAL_GPIO_TogglePin(GPIOB, MUX_SIG1_Pin);
 357              		.loc 1 659 3 view .LVU72
 660:Core/Src/main.c ****     for(volatile uint32_t i = 0; i < 100000; i++);  // Busy wait
 358              		.loc 1 660 5 view .LVU73
 359 0014 0221     		movs	r1, #2
 360 0016 0648     		ldr	r0, .L25
 361 0018 FFF7FEFF 		bl	HAL_GPIO_TogglePin
 362              	.LVL18:
 661:Core/Src/main.c ****   }
 363              		.loc 1 661 5 view .LVU74
 364              	.LBB13:
 661:Core/Src/main.c ****   }
 365              		.loc 1 661 9 view .LVU75
 661:Core/Src/main.c ****   }
ARM GAS  C:\Users\Ali\AppData\Local\Temp\cc8gb0JI.s 			page 24


 366              		.loc 1 661 27 is_stmt 0 view .LVU76
 367 001c 0023     		movs	r3, #0
 368 001e 0193     		str	r3, [sp, #4]
 369              	.L21:
 661:Core/Src/main.c ****   }
 370              		.loc 1 661 36 is_stmt 1 discriminator 1 view .LVU77
 371 0020 019A     		ldr	r2, [sp, #4]
 372 0022 044B     		ldr	r3, .L25+4
 373 0024 9A42     		cmp	r2, r3
 374 0026 F5D8     		bhi	.L23
 661:Core/Src/main.c ****   }
 375              		.loc 1 661 47 discriminator 3 view .LVU78
 376 0028 019B     		ldr	r3, [sp, #4]
 377 002a 0133     		adds	r3, r3, #1
 378 002c 0193     		str	r3, [sp, #4]
 379 002e F7E7     		b	.L21
 380              	.L26:
 381              		.align	2
 382              	.L25:
 383 0030 00040048 		.word	1207960576
 384 0034 9F860100 		.word	99999
 385              	.LBE13:
 386              		.cfi_endproc
 387              	.LFE300:
 389              		.section	.text.HAL_TIM_PeriodElapsedCallback,"ax",%progbits
 390              		.align	1
 391              		.global	HAL_TIM_PeriodElapsedCallback
 392              		.syntax unified
 393              		.thumb
 394              		.thumb_func
 396              	HAL_TIM_PeriodElapsedCallback:
 397              	.LVL19:
 398              	.LFB306:
 757:Core/Src/main.c ****     }
 758:Core/Src/main.c ****   }
 759:Core/Src/main.c ****   /* USER CODE END BMSResetHandlerTask */
 760:Core/Src/main.c **** }
 761:Core/Src/main.c **** 
 762:Core/Src/main.c **** /**
 763:Core/Src/main.c ****   * @brief  Period elapsed callback in non blocking mode
 764:Core/Src/main.c ****   * @note   This function is called  when TIM6 interrupt took place, inside
 765:Core/Src/main.c ****   * HAL_TIM_IRQHandler(). It makes a direct call to HAL_IncTick() to increment
 766:Core/Src/main.c ****   * a global variable "uwTick" used as application time base.
 767:Core/Src/main.c ****   * @param  htim : TIM handle
 768:Core/Src/main.c ****   * @retval None
 769:Core/Src/main.c ****   */
 770:Core/Src/main.c **** void HAL_TIM_PeriodElapsedCallback(TIM_HandleTypeDef *htim)
 771:Core/Src/main.c **** {
 399              		.loc 1 771 1 view -0
 400              		.cfi_startproc
 401              		@ args = 0, pretend = 0, frame = 0
 402              		@ frame_needed = 0, uses_anonymous_args = 0
 403              		.loc 1 771 1 is_stmt 0 view .LVU80
 404 0000 08B5     		push	{r3, lr}
 405              		.cfi_def_cfa_offset 8
 406              		.cfi_offset 3, -8
 407              		.cfi_offset 14, -4
ARM GAS  C:\Users\Ali\AppData\Local\Temp\cc8gb0JI.s 			page 25


 772:Core/Src/main.c ****   /* USER CODE BEGIN Callback 0 */
 773:Core/Src/main.c **** 
 774:Core/Src/main.c ****   /* USER CODE END Callback 0 */
 775:Core/Src/main.c ****   if (htim->Instance == TIM6)
 408              		.loc 1 775 3 is_stmt 1 view .LVU81
 409              		.loc 1 775 11 is_stmt 0 view .LVU82
 410 0002 0268     		ldr	r2, [r0]
 411              		.loc 1 775 6 view .LVU83
 412 0004 034B     		ldr	r3, .L31
 413 0006 9A42     		cmp	r2, r3
 414 0008 00D0     		beq	.L30
 415              	.LVL20:
 416              	.L27:
 776:Core/Src/main.c ****   {
 777:Core/Src/main.c ****     HAL_IncTick();
 778:Core/Src/main.c ****   }
 779:Core/Src/main.c ****   /* USER CODE BEGIN Callback 1 */
 780:Core/Src/main.c **** 
 781:Core/Src/main.c ****   /* USER CODE END Callback 1 */
 782:Core/Src/main.c **** }
 417              		.loc 1 782 1 view .LVU84
 418 000a 08BD     		pop	{r3, pc}
 419              	.LVL21:
 420              	.L30:
 777:Core/Src/main.c ****   }
 421              		.loc 1 777 5 is_stmt 1 view .LVU85
 422 000c FFF7FEFF 		bl	HAL_IncTick
 423              	.LVL22:
 424              		.loc 1 782 1 is_stmt 0 view .LVU86
 425 0010 FBE7     		b	.L27
 426              	.L32:
 427 0012 00BF     		.align	2
 428              	.L31:
 429 0014 00100040 		.word	1073745920
 430              		.cfi_endproc
 431              	.LFE306:
 433              		.section	.text.Error_Handler,"ax",%progbits
 434              		.align	1
 435              		.global	Error_Handler
 436              		.syntax unified
 437              		.thumb
 438              		.thumb_func
 440              	Error_Handler:
 441              	.LFB307:
 783:Core/Src/main.c **** 
 784:Core/Src/main.c **** /**
 785:Core/Src/main.c ****   * @brief  This function is executed in case of error occurrence.
 786:Core/Src/main.c ****   * @retval None
 787:Core/Src/main.c ****   */
 788:Core/Src/main.c **** void Error_Handler(void)
 789:Core/Src/main.c **** {
 442              		.loc 1 789 1 is_stmt 1 view -0
 443              		.cfi_startproc
 444              		@ Volatile: function does not return.
 445              		@ args = 0, pretend = 0, frame = 0
 446              		@ frame_needed = 0, uses_anonymous_args = 0
 447              		@ link register save eliminated.
ARM GAS  C:\Users\Ali\AppData\Local\Temp\cc8gb0JI.s 			page 26


 790:Core/Src/main.c ****   /* USER CODE BEGIN Error_Handler_Debug */
 791:Core/Src/main.c ****   /* User can add his own implementation to report the HAL error return state */
 792:Core/Src/main.c ****   __disable_irq();
 448              		.loc 1 792 3 view .LVU88
 449              	.LBB14:
 450              	.LBI14:
 451              		.file 3 "Drivers/CMSIS/Include/cmsis_gcc.h"
   1:Drivers/CMSIS/Include/cmsis_gcc.h **** /**************************************************************************//**
   2:Drivers/CMSIS/Include/cmsis_gcc.h ****  * @file     cmsis_gcc.h
   3:Drivers/CMSIS/Include/cmsis_gcc.h ****  * @brief    CMSIS compiler GCC header file
   4:Drivers/CMSIS/Include/cmsis_gcc.h ****  * @version  V5.2.0
   5:Drivers/CMSIS/Include/cmsis_gcc.h ****  * @date     08. May 2019
   6:Drivers/CMSIS/Include/cmsis_gcc.h ****  ******************************************************************************/
   7:Drivers/CMSIS/Include/cmsis_gcc.h **** /*
   8:Drivers/CMSIS/Include/cmsis_gcc.h ****  * Copyright (c) 2009-2019 Arm Limited. All rights reserved.
   9:Drivers/CMSIS/Include/cmsis_gcc.h ****  *
  10:Drivers/CMSIS/Include/cmsis_gcc.h ****  * SPDX-License-Identifier: Apache-2.0
  11:Drivers/CMSIS/Include/cmsis_gcc.h ****  *
  12:Drivers/CMSIS/Include/cmsis_gcc.h ****  * Licensed under the Apache License, Version 2.0 (the License); you may
  13:Drivers/CMSIS/Include/cmsis_gcc.h ****  * not use this file except in compliance with the License.
  14:Drivers/CMSIS/Include/cmsis_gcc.h ****  * You may obtain a copy of the License at
  15:Drivers/CMSIS/Include/cmsis_gcc.h ****  *
  16:Drivers/CMSIS/Include/cmsis_gcc.h ****  * www.apache.org/licenses/LICENSE-2.0
  17:Drivers/CMSIS/Include/cmsis_gcc.h ****  *
  18:Drivers/CMSIS/Include/cmsis_gcc.h ****  * Unless required by applicable law or agreed to in writing, software
  19:Drivers/CMSIS/Include/cmsis_gcc.h ****  * distributed under the License is distributed on an AS IS BASIS, WITHOUT
  20:Drivers/CMSIS/Include/cmsis_gcc.h ****  * WARRANTIES OR CONDITIONS OF ANY KIND, either express or implied.
  21:Drivers/CMSIS/Include/cmsis_gcc.h ****  * See the License for the specific language governing permissions and
  22:Drivers/CMSIS/Include/cmsis_gcc.h ****  * limitations under the License.
  23:Drivers/CMSIS/Include/cmsis_gcc.h ****  */
  24:Drivers/CMSIS/Include/cmsis_gcc.h **** 
  25:Drivers/CMSIS/Include/cmsis_gcc.h **** #ifndef __CMSIS_GCC_H
  26:Drivers/CMSIS/Include/cmsis_gcc.h **** #define __CMSIS_GCC_H
  27:Drivers/CMSIS/Include/cmsis_gcc.h **** 
  28:Drivers/CMSIS/Include/cmsis_gcc.h **** /* ignore some GCC warnings */
  29:Drivers/CMSIS/Include/cmsis_gcc.h **** #pragma GCC diagnostic push
  30:Drivers/CMSIS/Include/cmsis_gcc.h **** #pragma GCC diagnostic ignored "-Wsign-conversion"
  31:Drivers/CMSIS/Include/cmsis_gcc.h **** #pragma GCC diagnostic ignored "-Wconversion"
  32:Drivers/CMSIS/Include/cmsis_gcc.h **** #pragma GCC diagnostic ignored "-Wunused-parameter"
  33:Drivers/CMSIS/Include/cmsis_gcc.h **** 
  34:Drivers/CMSIS/Include/cmsis_gcc.h **** /* Fallback for __has_builtin */
  35:Drivers/CMSIS/Include/cmsis_gcc.h **** #ifndef __has_builtin
  36:Drivers/CMSIS/Include/cmsis_gcc.h ****   #define __has_builtin(x) (0)
  37:Drivers/CMSIS/Include/cmsis_gcc.h **** #endif
  38:Drivers/CMSIS/Include/cmsis_gcc.h **** 
  39:Drivers/CMSIS/Include/cmsis_gcc.h **** /* CMSIS compiler specific defines */
  40:Drivers/CMSIS/Include/cmsis_gcc.h **** #ifndef   __ASM
  41:Drivers/CMSIS/Include/cmsis_gcc.h ****   #define __ASM                                  __asm
  42:Drivers/CMSIS/Include/cmsis_gcc.h **** #endif
  43:Drivers/CMSIS/Include/cmsis_gcc.h **** #ifndef   __INLINE
  44:Drivers/CMSIS/Include/cmsis_gcc.h ****   #define __INLINE                               inline
  45:Drivers/CMSIS/Include/cmsis_gcc.h **** #endif
  46:Drivers/CMSIS/Include/cmsis_gcc.h **** #ifndef   __STATIC_INLINE
  47:Drivers/CMSIS/Include/cmsis_gcc.h ****   #define __STATIC_INLINE                        static inline
  48:Drivers/CMSIS/Include/cmsis_gcc.h **** #endif
  49:Drivers/CMSIS/Include/cmsis_gcc.h **** #ifndef   __STATIC_FORCEINLINE                 
  50:Drivers/CMSIS/Include/cmsis_gcc.h ****   #define __STATIC_FORCEINLINE                   __attribute__((always_inline)) static inline
ARM GAS  C:\Users\Ali\AppData\Local\Temp\cc8gb0JI.s 			page 27


  51:Drivers/CMSIS/Include/cmsis_gcc.h **** #endif                                           
  52:Drivers/CMSIS/Include/cmsis_gcc.h **** #ifndef   __NO_RETURN
  53:Drivers/CMSIS/Include/cmsis_gcc.h ****   #define __NO_RETURN                            __attribute__((__noreturn__))
  54:Drivers/CMSIS/Include/cmsis_gcc.h **** #endif
  55:Drivers/CMSIS/Include/cmsis_gcc.h **** #ifndef   __USED
  56:Drivers/CMSIS/Include/cmsis_gcc.h ****   #define __USED                                 __attribute__((used))
  57:Drivers/CMSIS/Include/cmsis_gcc.h **** #endif
  58:Drivers/CMSIS/Include/cmsis_gcc.h **** #ifndef   __WEAK
  59:Drivers/CMSIS/Include/cmsis_gcc.h ****   #define __WEAK                                 __attribute__((weak))
  60:Drivers/CMSIS/Include/cmsis_gcc.h **** #endif
  61:Drivers/CMSIS/Include/cmsis_gcc.h **** #ifndef   __PACKED
  62:Drivers/CMSIS/Include/cmsis_gcc.h ****   #define __PACKED                               __attribute__((packed, aligned(1)))
  63:Drivers/CMSIS/Include/cmsis_gcc.h **** #endif
  64:Drivers/CMSIS/Include/cmsis_gcc.h **** #ifndef   __PACKED_STRUCT
  65:Drivers/CMSIS/Include/cmsis_gcc.h ****   #define __PACKED_STRUCT                        struct __attribute__((packed, aligned(1)))
  66:Drivers/CMSIS/Include/cmsis_gcc.h **** #endif
  67:Drivers/CMSIS/Include/cmsis_gcc.h **** #ifndef   __PACKED_UNION
  68:Drivers/CMSIS/Include/cmsis_gcc.h ****   #define __PACKED_UNION                         union __attribute__((packed, aligned(1)))
  69:Drivers/CMSIS/Include/cmsis_gcc.h **** #endif
  70:Drivers/CMSIS/Include/cmsis_gcc.h **** #ifndef   __UNALIGNED_UINT32        /* deprecated */
  71:Drivers/CMSIS/Include/cmsis_gcc.h ****   #pragma GCC diagnostic push
  72:Drivers/CMSIS/Include/cmsis_gcc.h ****   #pragma GCC diagnostic ignored "-Wpacked"
  73:Drivers/CMSIS/Include/cmsis_gcc.h ****   #pragma GCC diagnostic ignored "-Wattributes"
  74:Drivers/CMSIS/Include/cmsis_gcc.h ****   struct __attribute__((packed)) T_UINT32 { uint32_t v; };
  75:Drivers/CMSIS/Include/cmsis_gcc.h ****   #pragma GCC diagnostic pop
  76:Drivers/CMSIS/Include/cmsis_gcc.h ****   #define __UNALIGNED_UINT32(x)                  (((struct T_UINT32 *)(x))->v)
  77:Drivers/CMSIS/Include/cmsis_gcc.h **** #endif
  78:Drivers/CMSIS/Include/cmsis_gcc.h **** #ifndef   __UNALIGNED_UINT16_WRITE
  79:Drivers/CMSIS/Include/cmsis_gcc.h ****   #pragma GCC diagnostic push
  80:Drivers/CMSIS/Include/cmsis_gcc.h ****   #pragma GCC diagnostic ignored "-Wpacked"
  81:Drivers/CMSIS/Include/cmsis_gcc.h ****   #pragma GCC diagnostic ignored "-Wattributes"
  82:Drivers/CMSIS/Include/cmsis_gcc.h ****   __PACKED_STRUCT T_UINT16_WRITE { uint16_t v; };
  83:Drivers/CMSIS/Include/cmsis_gcc.h ****   #pragma GCC diagnostic pop
  84:Drivers/CMSIS/Include/cmsis_gcc.h ****   #define __UNALIGNED_UINT16_WRITE(addr, val)    (void)((((struct T_UINT16_WRITE *)(void *)(addr))-
  85:Drivers/CMSIS/Include/cmsis_gcc.h **** #endif
  86:Drivers/CMSIS/Include/cmsis_gcc.h **** #ifndef   __UNALIGNED_UINT16_READ
  87:Drivers/CMSIS/Include/cmsis_gcc.h ****   #pragma GCC diagnostic push
  88:Drivers/CMSIS/Include/cmsis_gcc.h ****   #pragma GCC diagnostic ignored "-Wpacked"
  89:Drivers/CMSIS/Include/cmsis_gcc.h ****   #pragma GCC diagnostic ignored "-Wattributes"
  90:Drivers/CMSIS/Include/cmsis_gcc.h ****   __PACKED_STRUCT T_UINT16_READ { uint16_t v; };
  91:Drivers/CMSIS/Include/cmsis_gcc.h ****   #pragma GCC diagnostic pop
  92:Drivers/CMSIS/Include/cmsis_gcc.h ****   #define __UNALIGNED_UINT16_READ(addr)          (((const struct T_UINT16_READ *)(const void *)(add
  93:Drivers/CMSIS/Include/cmsis_gcc.h **** #endif
  94:Drivers/CMSIS/Include/cmsis_gcc.h **** #ifndef   __UNALIGNED_UINT32_WRITE
  95:Drivers/CMSIS/Include/cmsis_gcc.h ****   #pragma GCC diagnostic push
  96:Drivers/CMSIS/Include/cmsis_gcc.h ****   #pragma GCC diagnostic ignored "-Wpacked"
  97:Drivers/CMSIS/Include/cmsis_gcc.h ****   #pragma GCC diagnostic ignored "-Wattributes"
  98:Drivers/CMSIS/Include/cmsis_gcc.h ****   __PACKED_STRUCT T_UINT32_WRITE { uint32_t v; };
  99:Drivers/CMSIS/Include/cmsis_gcc.h ****   #pragma GCC diagnostic pop
 100:Drivers/CMSIS/Include/cmsis_gcc.h ****   #define __UNALIGNED_UINT32_WRITE(addr, val)    (void)((((struct T_UINT32_WRITE *)(void *)(addr))-
 101:Drivers/CMSIS/Include/cmsis_gcc.h **** #endif
 102:Drivers/CMSIS/Include/cmsis_gcc.h **** #ifndef   __UNALIGNED_UINT32_READ
 103:Drivers/CMSIS/Include/cmsis_gcc.h ****   #pragma GCC diagnostic push
 104:Drivers/CMSIS/Include/cmsis_gcc.h ****   #pragma GCC diagnostic ignored "-Wpacked"
 105:Drivers/CMSIS/Include/cmsis_gcc.h ****   #pragma GCC diagnostic ignored "-Wattributes"
 106:Drivers/CMSIS/Include/cmsis_gcc.h ****   __PACKED_STRUCT T_UINT32_READ { uint32_t v; };
 107:Drivers/CMSIS/Include/cmsis_gcc.h ****   #pragma GCC diagnostic pop
ARM GAS  C:\Users\Ali\AppData\Local\Temp\cc8gb0JI.s 			page 28


 108:Drivers/CMSIS/Include/cmsis_gcc.h ****   #define __UNALIGNED_UINT32_READ(addr)          (((const struct T_UINT32_READ *)(const void *)(add
 109:Drivers/CMSIS/Include/cmsis_gcc.h **** #endif
 110:Drivers/CMSIS/Include/cmsis_gcc.h **** #ifndef   __ALIGNED
 111:Drivers/CMSIS/Include/cmsis_gcc.h ****   #define __ALIGNED(x)                           __attribute__((aligned(x)))
 112:Drivers/CMSIS/Include/cmsis_gcc.h **** #endif
 113:Drivers/CMSIS/Include/cmsis_gcc.h **** #ifndef   __RESTRICT
 114:Drivers/CMSIS/Include/cmsis_gcc.h ****   #define __RESTRICT                             __restrict
 115:Drivers/CMSIS/Include/cmsis_gcc.h **** #endif
 116:Drivers/CMSIS/Include/cmsis_gcc.h **** #ifndef   __COMPILER_BARRIER
 117:Drivers/CMSIS/Include/cmsis_gcc.h ****   #define __COMPILER_BARRIER()                   __ASM volatile("":::"memory")
 118:Drivers/CMSIS/Include/cmsis_gcc.h **** #endif
 119:Drivers/CMSIS/Include/cmsis_gcc.h **** 
 120:Drivers/CMSIS/Include/cmsis_gcc.h **** /* #########################  Startup and Lowlevel Init  ######################## */
 121:Drivers/CMSIS/Include/cmsis_gcc.h **** 
 122:Drivers/CMSIS/Include/cmsis_gcc.h **** #ifndef __PROGRAM_START
 123:Drivers/CMSIS/Include/cmsis_gcc.h **** 
 124:Drivers/CMSIS/Include/cmsis_gcc.h **** /**
 125:Drivers/CMSIS/Include/cmsis_gcc.h ****   \brief   Initializes data and bss sections
 126:Drivers/CMSIS/Include/cmsis_gcc.h ****   \details This default implementations initialized all data and additional bss
 127:Drivers/CMSIS/Include/cmsis_gcc.h ****            sections relying on .copy.table and .zero.table specified properly
 128:Drivers/CMSIS/Include/cmsis_gcc.h ****            in the used linker script.
 129:Drivers/CMSIS/Include/cmsis_gcc.h ****   
 130:Drivers/CMSIS/Include/cmsis_gcc.h ****  */
 131:Drivers/CMSIS/Include/cmsis_gcc.h **** __STATIC_FORCEINLINE __NO_RETURN void __cmsis_start(void)
 132:Drivers/CMSIS/Include/cmsis_gcc.h **** {
 133:Drivers/CMSIS/Include/cmsis_gcc.h ****   extern void _start(void) __NO_RETURN;
 134:Drivers/CMSIS/Include/cmsis_gcc.h ****   
 135:Drivers/CMSIS/Include/cmsis_gcc.h ****   typedef struct {
 136:Drivers/CMSIS/Include/cmsis_gcc.h ****     uint32_t const* src;
 137:Drivers/CMSIS/Include/cmsis_gcc.h ****     uint32_t* dest;
 138:Drivers/CMSIS/Include/cmsis_gcc.h ****     uint32_t  wlen;
 139:Drivers/CMSIS/Include/cmsis_gcc.h ****   } __copy_table_t;
 140:Drivers/CMSIS/Include/cmsis_gcc.h ****   
 141:Drivers/CMSIS/Include/cmsis_gcc.h ****   typedef struct {
 142:Drivers/CMSIS/Include/cmsis_gcc.h ****     uint32_t* dest;
 143:Drivers/CMSIS/Include/cmsis_gcc.h ****     uint32_t  wlen;
 144:Drivers/CMSIS/Include/cmsis_gcc.h ****   } __zero_table_t;
 145:Drivers/CMSIS/Include/cmsis_gcc.h ****   
 146:Drivers/CMSIS/Include/cmsis_gcc.h ****   extern const __copy_table_t __copy_table_start__;
 147:Drivers/CMSIS/Include/cmsis_gcc.h ****   extern const __copy_table_t __copy_table_end__;
 148:Drivers/CMSIS/Include/cmsis_gcc.h ****   extern const __zero_table_t __zero_table_start__;
 149:Drivers/CMSIS/Include/cmsis_gcc.h ****   extern const __zero_table_t __zero_table_end__;
 150:Drivers/CMSIS/Include/cmsis_gcc.h **** 
 151:Drivers/CMSIS/Include/cmsis_gcc.h ****   for (__copy_table_t const* pTable = &__copy_table_start__; pTable < &__copy_table_end__; ++pTable
 152:Drivers/CMSIS/Include/cmsis_gcc.h ****     for(uint32_t i=0u; i<pTable->wlen; ++i) {
 153:Drivers/CMSIS/Include/cmsis_gcc.h ****       pTable->dest[i] = pTable->src[i];
 154:Drivers/CMSIS/Include/cmsis_gcc.h ****     }
 155:Drivers/CMSIS/Include/cmsis_gcc.h ****   }
 156:Drivers/CMSIS/Include/cmsis_gcc.h ****  
 157:Drivers/CMSIS/Include/cmsis_gcc.h ****   for (__zero_table_t const* pTable = &__zero_table_start__; pTable < &__zero_table_end__; ++pTable
 158:Drivers/CMSIS/Include/cmsis_gcc.h ****     for(uint32_t i=0u; i<pTable->wlen; ++i) {
 159:Drivers/CMSIS/Include/cmsis_gcc.h ****       pTable->dest[i] = 0u;
 160:Drivers/CMSIS/Include/cmsis_gcc.h ****     }
 161:Drivers/CMSIS/Include/cmsis_gcc.h ****   }
 162:Drivers/CMSIS/Include/cmsis_gcc.h ****  
 163:Drivers/CMSIS/Include/cmsis_gcc.h ****   _start();
 164:Drivers/CMSIS/Include/cmsis_gcc.h **** }
ARM GAS  C:\Users\Ali\AppData\Local\Temp\cc8gb0JI.s 			page 29


 165:Drivers/CMSIS/Include/cmsis_gcc.h ****   
 166:Drivers/CMSIS/Include/cmsis_gcc.h **** #define __PROGRAM_START           __cmsis_start
 167:Drivers/CMSIS/Include/cmsis_gcc.h **** #endif
 168:Drivers/CMSIS/Include/cmsis_gcc.h **** 
 169:Drivers/CMSIS/Include/cmsis_gcc.h **** #ifndef __INITIAL_SP
 170:Drivers/CMSIS/Include/cmsis_gcc.h **** #define __INITIAL_SP              __StackTop
 171:Drivers/CMSIS/Include/cmsis_gcc.h **** #endif
 172:Drivers/CMSIS/Include/cmsis_gcc.h **** 
 173:Drivers/CMSIS/Include/cmsis_gcc.h **** #ifndef __STACK_LIMIT
 174:Drivers/CMSIS/Include/cmsis_gcc.h **** #define __STACK_LIMIT             __StackLimit
 175:Drivers/CMSIS/Include/cmsis_gcc.h **** #endif
 176:Drivers/CMSIS/Include/cmsis_gcc.h **** 
 177:Drivers/CMSIS/Include/cmsis_gcc.h **** #ifndef __VECTOR_TABLE
 178:Drivers/CMSIS/Include/cmsis_gcc.h **** #define __VECTOR_TABLE            __Vectors
 179:Drivers/CMSIS/Include/cmsis_gcc.h **** #endif
 180:Drivers/CMSIS/Include/cmsis_gcc.h **** 
 181:Drivers/CMSIS/Include/cmsis_gcc.h **** #ifndef __VECTOR_TABLE_ATTRIBUTE
 182:Drivers/CMSIS/Include/cmsis_gcc.h **** #define __VECTOR_TABLE_ATTRIBUTE  __attribute((used, section(".vectors")))
 183:Drivers/CMSIS/Include/cmsis_gcc.h **** #endif
 184:Drivers/CMSIS/Include/cmsis_gcc.h **** 
 185:Drivers/CMSIS/Include/cmsis_gcc.h **** /* ###########################  Core Function Access  ########################### */
 186:Drivers/CMSIS/Include/cmsis_gcc.h **** /** \ingroup  CMSIS_Core_FunctionInterface
 187:Drivers/CMSIS/Include/cmsis_gcc.h ****     \defgroup CMSIS_Core_RegAccFunctions CMSIS Core Register Access Functions
 188:Drivers/CMSIS/Include/cmsis_gcc.h ****   @{
 189:Drivers/CMSIS/Include/cmsis_gcc.h ****  */
 190:Drivers/CMSIS/Include/cmsis_gcc.h **** 
 191:Drivers/CMSIS/Include/cmsis_gcc.h **** /**
 192:Drivers/CMSIS/Include/cmsis_gcc.h ****   \brief   Enable IRQ Interrupts
 193:Drivers/CMSIS/Include/cmsis_gcc.h ****   \details Enables IRQ interrupts by clearing the I-bit in the CPSR.
 194:Drivers/CMSIS/Include/cmsis_gcc.h ****            Can only be executed in Privileged modes.
 195:Drivers/CMSIS/Include/cmsis_gcc.h ****  */
 196:Drivers/CMSIS/Include/cmsis_gcc.h **** __STATIC_FORCEINLINE void __enable_irq(void)
 197:Drivers/CMSIS/Include/cmsis_gcc.h **** {
 198:Drivers/CMSIS/Include/cmsis_gcc.h ****   __ASM volatile ("cpsie i" : : : "memory");
 199:Drivers/CMSIS/Include/cmsis_gcc.h **** }
 200:Drivers/CMSIS/Include/cmsis_gcc.h **** 
 201:Drivers/CMSIS/Include/cmsis_gcc.h **** 
 202:Drivers/CMSIS/Include/cmsis_gcc.h **** /**
 203:Drivers/CMSIS/Include/cmsis_gcc.h ****   \brief   Disable IRQ Interrupts
 204:Drivers/CMSIS/Include/cmsis_gcc.h ****   \details Disables IRQ interrupts by setting the I-bit in the CPSR.
 205:Drivers/CMSIS/Include/cmsis_gcc.h ****            Can only be executed in Privileged modes.
 206:Drivers/CMSIS/Include/cmsis_gcc.h ****  */
 207:Drivers/CMSIS/Include/cmsis_gcc.h **** __STATIC_FORCEINLINE void __disable_irq(void)
 452              		.loc 3 207 27 view .LVU89
 453              	.LBB15:
 208:Drivers/CMSIS/Include/cmsis_gcc.h **** {
 209:Drivers/CMSIS/Include/cmsis_gcc.h ****   __ASM volatile ("cpsid i" : : : "memory");
 454              		.loc 3 209 3 view .LVU90
 455              		.syntax unified
 456              	@ 209 "Drivers/CMSIS/Include/cmsis_gcc.h" 1
 457 0000 72B6     		cpsid i
 458              	@ 0 "" 2
 459              		.thumb
 460              		.syntax unified
 461              	.L34:
 462              	.LBE15:
 463              	.LBE14:
ARM GAS  C:\Users\Ali\AppData\Local\Temp\cc8gb0JI.s 			page 30


 793:Core/Src/main.c ****   while (1)
 464              		.loc 1 793 3 view .LVU91
 794:Core/Src/main.c ****   {
 795:Core/Src/main.c ****   }
 465              		.loc 1 795 3 view .LVU92
 793:Core/Src/main.c ****   while (1)
 466              		.loc 1 793 9 view .LVU93
 467 0002 FEE7     		b	.L34
 468              		.cfi_endproc
 469              	.LFE307:
 471              		.section	.text.MX_ADC1_Init,"ax",%progbits
 472              		.align	1
 473              		.syntax unified
 474              		.thumb
 475              		.thumb_func
 477              	MX_ADC1_Init:
 478              	.LFB294:
 362:Core/Src/main.c **** 
 479              		.loc 1 362 1 view -0
 480              		.cfi_startproc
 481              		@ args = 0, pretend = 0, frame = 24
 482              		@ frame_needed = 0, uses_anonymous_args = 0
 483 0000 00B5     		push	{lr}
 484              		.cfi_def_cfa_offset 4
 485              		.cfi_offset 14, -4
 486 0002 87B0     		sub	sp, sp, #28
 487              		.cfi_def_cfa_offset 32
 368:Core/Src/main.c **** 
 488              		.loc 1 368 3 view .LVU95
 368:Core/Src/main.c **** 
 489              		.loc 1 368 26 is_stmt 0 view .LVU96
 490 0004 0023     		movs	r3, #0
 491 0006 0093     		str	r3, [sp]
 492 0008 0193     		str	r3, [sp, #4]
 493 000a 0293     		str	r3, [sp, #8]
 494 000c 0393     		str	r3, [sp, #12]
 495 000e 0493     		str	r3, [sp, #16]
 496 0010 0593     		str	r3, [sp, #20]
 376:Core/Src/main.c ****   hadc1.Init.ClockPrescaler = ADC_CLOCK_ASYNC_DIV1;
 497              		.loc 1 376 3 is_stmt 1 view .LVU97
 376:Core/Src/main.c ****   hadc1.Init.ClockPrescaler = ADC_CLOCK_ASYNC_DIV1;
 498              		.loc 1 376 18 is_stmt 0 view .LVU98
 499 0012 1848     		ldr	r0, .L41
 500 0014 184A     		ldr	r2, .L41+4
 501 0016 0260     		str	r2, [r0]
 377:Core/Src/main.c ****   hadc1.Init.Resolution = ADC_RESOLUTION_12B;
 502              		.loc 1 377 3 is_stmt 1 view .LVU99
 377:Core/Src/main.c ****   hadc1.Init.Resolution = ADC_RESOLUTION_12B;
 503              		.loc 1 377 29 is_stmt 0 view .LVU100
 504 0018 4360     		str	r3, [r0, #4]
 378:Core/Src/main.c ****   hadc1.Init.DataAlign = ADC_DATAALIGN_RIGHT;
 505              		.loc 1 378 3 is_stmt 1 view .LVU101
 378:Core/Src/main.c ****   hadc1.Init.DataAlign = ADC_DATAALIGN_RIGHT;
 506              		.loc 1 378 25 is_stmt 0 view .LVU102
 507 001a 8360     		str	r3, [r0, #8]
 379:Core/Src/main.c ****   hadc1.Init.ScanConvMode = ADC_SCAN_DISABLE;
 508              		.loc 1 379 3 is_stmt 1 view .LVU103
ARM GAS  C:\Users\Ali\AppData\Local\Temp\cc8gb0JI.s 			page 31


 379:Core/Src/main.c ****   hadc1.Init.ScanConvMode = ADC_SCAN_DISABLE;
 509              		.loc 1 379 24 is_stmt 0 view .LVU104
 510 001c C360     		str	r3, [r0, #12]
 380:Core/Src/main.c ****   hadc1.Init.EOCSelection = ADC_EOC_SINGLE_CONV;
 511              		.loc 1 380 3 is_stmt 1 view .LVU105
 380:Core/Src/main.c ****   hadc1.Init.EOCSelection = ADC_EOC_SINGLE_CONV;
 512              		.loc 1 380 27 is_stmt 0 view .LVU106
 513 001e 0361     		str	r3, [r0, #16]
 381:Core/Src/main.c ****   hadc1.Init.LowPowerAutoWait = DISABLE;
 514              		.loc 1 381 3 is_stmt 1 view .LVU107
 381:Core/Src/main.c ****   hadc1.Init.LowPowerAutoWait = DISABLE;
 515              		.loc 1 381 27 is_stmt 0 view .LVU108
 516 0020 0422     		movs	r2, #4
 517 0022 4261     		str	r2, [r0, #20]
 382:Core/Src/main.c ****   hadc1.Init.ContinuousConvMode = DISABLE;
 518              		.loc 1 382 3 is_stmt 1 view .LVU109
 382:Core/Src/main.c ****   hadc1.Init.ContinuousConvMode = DISABLE;
 519              		.loc 1 382 31 is_stmt 0 view .LVU110
 520 0024 0376     		strb	r3, [r0, #24]
 383:Core/Src/main.c ****   hadc1.Init.NbrOfConversion = 1;
 521              		.loc 1 383 3 is_stmt 1 view .LVU111
 383:Core/Src/main.c ****   hadc1.Init.NbrOfConversion = 1;
 522              		.loc 1 383 33 is_stmt 0 view .LVU112
 523 0026 4376     		strb	r3, [r0, #25]
 384:Core/Src/main.c ****   hadc1.Init.DiscontinuousConvMode = DISABLE;
 524              		.loc 1 384 3 is_stmt 1 view .LVU113
 384:Core/Src/main.c ****   hadc1.Init.DiscontinuousConvMode = DISABLE;
 525              		.loc 1 384 30 is_stmt 0 view .LVU114
 526 0028 0122     		movs	r2, #1
 527 002a C261     		str	r2, [r0, #28]
 385:Core/Src/main.c ****   hadc1.Init.ExternalTrigConv = ADC_SOFTWARE_START;
 528              		.loc 1 385 3 is_stmt 1 view .LVU115
 385:Core/Src/main.c ****   hadc1.Init.ExternalTrigConv = ADC_SOFTWARE_START;
 529              		.loc 1 385 36 is_stmt 0 view .LVU116
 530 002c 80F82030 		strb	r3, [r0, #32]
 386:Core/Src/main.c ****   hadc1.Init.ExternalTrigConvEdge = ADC_EXTERNALTRIGCONVEDGE_NONE;
 531              		.loc 1 386 3 is_stmt 1 view .LVU117
 386:Core/Src/main.c ****   hadc1.Init.ExternalTrigConvEdge = ADC_EXTERNALTRIGCONVEDGE_NONE;
 532              		.loc 1 386 31 is_stmt 0 view .LVU118
 533 0030 8362     		str	r3, [r0, #40]
 387:Core/Src/main.c ****   hadc1.Init.DMAContinuousRequests = DISABLE;
 534              		.loc 1 387 3 is_stmt 1 view .LVU119
 387:Core/Src/main.c ****   hadc1.Init.DMAContinuousRequests = DISABLE;
 535              		.loc 1 387 35 is_stmt 0 view .LVU120
 536 0032 C362     		str	r3, [r0, #44]
 388:Core/Src/main.c ****   hadc1.Init.Overrun = ADC_OVR_DATA_PRESERVED;
 537              		.loc 1 388 3 is_stmt 1 view .LVU121
 388:Core/Src/main.c ****   hadc1.Init.Overrun = ADC_OVR_DATA_PRESERVED;
 538              		.loc 1 388 36 is_stmt 0 view .LVU122
 539 0034 80F83030 		strb	r3, [r0, #48]
 389:Core/Src/main.c ****   hadc1.Init.OversamplingMode = DISABLE;
 540              		.loc 1 389 3 is_stmt 1 view .LVU123
 389:Core/Src/main.c ****   hadc1.Init.OversamplingMode = DISABLE;
 541              		.loc 1 389 22 is_stmt 0 view .LVU124
 542 0038 4363     		str	r3, [r0, #52]
 390:Core/Src/main.c ****   if (HAL_ADC_Init(&hadc1) != HAL_OK)
 543              		.loc 1 390 3 is_stmt 1 view .LVU125
ARM GAS  C:\Users\Ali\AppData\Local\Temp\cc8gb0JI.s 			page 32


 390:Core/Src/main.c ****   if (HAL_ADC_Init(&hadc1) != HAL_OK)
 544              		.loc 1 390 31 is_stmt 0 view .LVU126
 545 003a 80F83830 		strb	r3, [r0, #56]
 391:Core/Src/main.c ****   {
 546              		.loc 1 391 3 is_stmt 1 view .LVU127
 391:Core/Src/main.c ****   {
 547              		.loc 1 391 7 is_stmt 0 view .LVU128
 548 003e FFF7FEFF 		bl	HAL_ADC_Init
 549              	.LVL23:
 391:Core/Src/main.c ****   {
 550              		.loc 1 391 6 discriminator 1 view .LVU129
 551 0042 98B9     		cbnz	r0, .L39
 398:Core/Src/main.c ****   sConfig.Rank = ADC_REGULAR_RANK_1;
 552              		.loc 1 398 3 is_stmt 1 view .LVU130
 398:Core/Src/main.c ****   sConfig.Rank = ADC_REGULAR_RANK_1;
 553              		.loc 1 398 19 is_stmt 0 view .LVU131
 554 0044 0D4B     		ldr	r3, .L41+8
 555 0046 0093     		str	r3, [sp]
 399:Core/Src/main.c ****   sConfig.SamplingTime = ADC_SAMPLETIME_640CYCLES_5;  // Longer sampling for high impedance thermis
 556              		.loc 1 399 3 is_stmt 1 view .LVU132
 399:Core/Src/main.c ****   sConfig.SamplingTime = ADC_SAMPLETIME_640CYCLES_5;  // Longer sampling for high impedance thermis
 557              		.loc 1 399 16 is_stmt 0 view .LVU133
 558 0048 0623     		movs	r3, #6
 559 004a 0193     		str	r3, [sp, #4]
 400:Core/Src/main.c ****   sConfig.SingleDiff = ADC_SINGLE_ENDED;
 560              		.loc 1 400 3 is_stmt 1 view .LVU134
 400:Core/Src/main.c ****   sConfig.SingleDiff = ADC_SINGLE_ENDED;
 561              		.loc 1 400 24 is_stmt 0 view .LVU135
 562 004c 0723     		movs	r3, #7
 563 004e 0293     		str	r3, [sp, #8]
 401:Core/Src/main.c ****   sConfig.OffsetNumber = ADC_OFFSET_NONE;
 564              		.loc 1 401 3 is_stmt 1 view .LVU136
 401:Core/Src/main.c ****   sConfig.OffsetNumber = ADC_OFFSET_NONE;
 565              		.loc 1 401 22 is_stmt 0 view .LVU137
 566 0050 7F23     		movs	r3, #127
 567 0052 0393     		str	r3, [sp, #12]
 402:Core/Src/main.c ****   sConfig.Offset = 0;
 568              		.loc 1 402 3 is_stmt 1 view .LVU138
 402:Core/Src/main.c ****   sConfig.Offset = 0;
 569              		.loc 1 402 24 is_stmt 0 view .LVU139
 570 0054 0423     		movs	r3, #4
 571 0056 0493     		str	r3, [sp, #16]
 403:Core/Src/main.c ****   if (HAL_ADC_ConfigChannel(&hadc1, &sConfig) != HAL_OK)
 572              		.loc 1 403 3 is_stmt 1 view .LVU140
 403:Core/Src/main.c ****   if (HAL_ADC_ConfigChannel(&hadc1, &sConfig) != HAL_OK)
 573              		.loc 1 403 18 is_stmt 0 view .LVU141
 574 0058 0023     		movs	r3, #0
 575 005a 0593     		str	r3, [sp, #20]
 404:Core/Src/main.c ****   {
 576              		.loc 1 404 3 is_stmt 1 view .LVU142
 404:Core/Src/main.c ****   {
 577              		.loc 1 404 7 is_stmt 0 view .LVU143
 578 005c 6946     		mov	r1, sp
 579 005e 0548     		ldr	r0, .L41
 580 0060 FFF7FEFF 		bl	HAL_ADC_ConfigChannel
 581              	.LVL24:
 404:Core/Src/main.c ****   {
ARM GAS  C:\Users\Ali\AppData\Local\Temp\cc8gb0JI.s 			page 33


 582              		.loc 1 404 6 discriminator 1 view .LVU144
 583 0064 20B9     		cbnz	r0, .L40
 412:Core/Src/main.c **** 
 584              		.loc 1 412 1 view .LVU145
 585 0066 07B0     		add	sp, sp, #28
 586              		.cfi_remember_state
 587              		.cfi_def_cfa_offset 4
 588              		@ sp needed
 589 0068 5DF804FB 		ldr	pc, [sp], #4
 590              	.L39:
 591              		.cfi_restore_state
 393:Core/Src/main.c ****   }
 592              		.loc 1 393 5 is_stmt 1 view .LVU146
 593 006c FFF7FEFF 		bl	Error_Handler
 594              	.LVL25:
 595              	.L40:
 406:Core/Src/main.c ****   }
 596              		.loc 1 406 5 view .LVU147
 597 0070 FFF7FEFF 		bl	Error_Handler
 598              	.LVL26:
 599              	.L42:
 600              		.align	2
 601              	.L41:
 602 0074 00000000 		.word	hadc1
 603 0078 00000450 		.word	1342439424
 604 007c 2000F014 		.word	351272992
 605              		.cfi_endproc
 606              	.LFE294:
 608              		.section	.text.MX_CAN1_Init,"ax",%progbits
 609              		.align	1
 610              		.syntax unified
 611              		.thumb
 612              		.thumb_func
 614              	MX_CAN1_Init:
 615              	.LFB295:
 420:Core/Src/main.c **** 
 616              		.loc 1 420 1 view -0
 617              		.cfi_startproc
 618              		@ args = 0, pretend = 0, frame = 40
 619              		@ frame_needed = 0, uses_anonymous_args = 0
 620 0000 00B5     		push	{lr}
 621              		.cfi_def_cfa_offset 4
 622              		.cfi_offset 14, -4
 623 0002 8BB0     		sub	sp, sp, #44
 624              		.cfi_def_cfa_offset 48
 429:Core/Src/main.c ****   hcan1.Init.Prescaler = 10;
 625              		.loc 1 429 3 view .LVU149
 429:Core/Src/main.c ****   hcan1.Init.Prescaler = 10;
 626              		.loc 1 429 18 is_stmt 0 view .LVU150
 627 0004 1848     		ldr	r0, .L49
 628 0006 194B     		ldr	r3, .L49+4
 629 0008 0360     		str	r3, [r0]
 430:Core/Src/main.c ****   hcan1.Init.Mode = CAN_MODE_NORMAL;
 630              		.loc 1 430 3 is_stmt 1 view .LVU151
 430:Core/Src/main.c ****   hcan1.Init.Mode = CAN_MODE_NORMAL;
 631              		.loc 1 430 24 is_stmt 0 view .LVU152
 632 000a 0A23     		movs	r3, #10
ARM GAS  C:\Users\Ali\AppData\Local\Temp\cc8gb0JI.s 			page 34


 633 000c 4360     		str	r3, [r0, #4]
 431:Core/Src/main.c ****   hcan1.Init.SyncJumpWidth = CAN_SJW_1TQ;
 634              		.loc 1 431 3 is_stmt 1 view .LVU153
 431:Core/Src/main.c ****   hcan1.Init.SyncJumpWidth = CAN_SJW_1TQ;
 635              		.loc 1 431 19 is_stmt 0 view .LVU154
 636 000e 0023     		movs	r3, #0
 637 0010 8360     		str	r3, [r0, #8]
 432:Core/Src/main.c ****   hcan1.Init.TimeSeg1 = CAN_BS1_13TQ;
 638              		.loc 1 432 3 is_stmt 1 view .LVU155
 432:Core/Src/main.c ****   hcan1.Init.TimeSeg1 = CAN_BS1_13TQ;
 639              		.loc 1 432 28 is_stmt 0 view .LVU156
 640 0012 C360     		str	r3, [r0, #12]
 433:Core/Src/main.c ****   hcan1.Init.TimeSeg2 = CAN_BS2_2TQ;
 641              		.loc 1 433 3 is_stmt 1 view .LVU157
 433:Core/Src/main.c ****   hcan1.Init.TimeSeg2 = CAN_BS2_2TQ;
 642              		.loc 1 433 23 is_stmt 0 view .LVU158
 643 0014 4FF44022 		mov	r2, #786432
 644 0018 0261     		str	r2, [r0, #16]
 434:Core/Src/main.c ****   hcan1.Init.TimeTriggeredMode = DISABLE;
 645              		.loc 1 434 3 is_stmt 1 view .LVU159
 434:Core/Src/main.c ****   hcan1.Init.TimeTriggeredMode = DISABLE;
 646              		.loc 1 434 23 is_stmt 0 view .LVU160
 647 001a 4FF48012 		mov	r2, #1048576
 648 001e 4261     		str	r2, [r0, #20]
 435:Core/Src/main.c ****   hcan1.Init.AutoBusOff = DISABLE;
 649              		.loc 1 435 3 is_stmt 1 view .LVU161
 435:Core/Src/main.c ****   hcan1.Init.AutoBusOff = DISABLE;
 650              		.loc 1 435 32 is_stmt 0 view .LVU162
 651 0020 0376     		strb	r3, [r0, #24]
 436:Core/Src/main.c ****   hcan1.Init.AutoWakeUp = DISABLE;
 652              		.loc 1 436 3 is_stmt 1 view .LVU163
 436:Core/Src/main.c ****   hcan1.Init.AutoWakeUp = DISABLE;
 653              		.loc 1 436 25 is_stmt 0 view .LVU164
 654 0022 4376     		strb	r3, [r0, #25]
 437:Core/Src/main.c ****   hcan1.Init.AutoRetransmission = DISABLE;
 655              		.loc 1 437 3 is_stmt 1 view .LVU165
 437:Core/Src/main.c ****   hcan1.Init.AutoRetransmission = DISABLE;
 656              		.loc 1 437 25 is_stmt 0 view .LVU166
 657 0024 8376     		strb	r3, [r0, #26]
 438:Core/Src/main.c ****   hcan1.Init.ReceiveFifoLocked = DISABLE;
 658              		.loc 1 438 3 is_stmt 1 view .LVU167
 438:Core/Src/main.c ****   hcan1.Init.ReceiveFifoLocked = DISABLE;
 659              		.loc 1 438 33 is_stmt 0 view .LVU168
 660 0026 C376     		strb	r3, [r0, #27]
 439:Core/Src/main.c ****   hcan1.Init.TransmitFifoPriority = DISABLE;
 661              		.loc 1 439 3 is_stmt 1 view .LVU169
 439:Core/Src/main.c ****   hcan1.Init.TransmitFifoPriority = DISABLE;
 662              		.loc 1 439 32 is_stmt 0 view .LVU170
 663 0028 0377     		strb	r3, [r0, #28]
 440:Core/Src/main.c ****   if (HAL_CAN_Init(&hcan1) != HAL_OK)
 664              		.loc 1 440 3 is_stmt 1 view .LVU171
 440:Core/Src/main.c ****   if (HAL_CAN_Init(&hcan1) != HAL_OK)
 665              		.loc 1 440 35 is_stmt 0 view .LVU172
 666 002a 4377     		strb	r3, [r0, #29]
 441:Core/Src/main.c ****   {
 667              		.loc 1 441 3 is_stmt 1 view .LVU173
 441:Core/Src/main.c ****   {
ARM GAS  C:\Users\Ali\AppData\Local\Temp\cc8gb0JI.s 			page 35


 668              		.loc 1 441 7 is_stmt 0 view .LVU174
 669 002c FFF7FEFF 		bl	HAL_CAN_Init
 670              	.LVL27:
 441:Core/Src/main.c ****   {
 671              		.loc 1 441 6 discriminator 1 view .LVU175
 672 0030 A8B9     		cbnz	r0, .L47
 449:Core/Src/main.c ****   filterConfig.FilterBank = 0;
 673              		.loc 1 449 3 is_stmt 1 view .LVU176
 450:Core/Src/main.c ****   filterConfig.FilterMode = CAN_FILTERMODE_IDMASK;
 674              		.loc 1 450 3 view .LVU177
 450:Core/Src/main.c ****   filterConfig.FilterMode = CAN_FILTERMODE_IDMASK;
 675              		.loc 1 450 27 is_stmt 0 view .LVU178
 676 0032 0023     		movs	r3, #0
 677 0034 0593     		str	r3, [sp, #20]
 451:Core/Src/main.c ****   filterConfig.FilterScale = CAN_FILTERSCALE_32BIT;
 678              		.loc 1 451 3 is_stmt 1 view .LVU179
 451:Core/Src/main.c ****   filterConfig.FilterScale = CAN_FILTERSCALE_32BIT;
 679              		.loc 1 451 27 is_stmt 0 view .LVU180
 680 0036 0693     		str	r3, [sp, #24]
 452:Core/Src/main.c ****   
 681              		.loc 1 452 3 is_stmt 1 view .LVU181
 452:Core/Src/main.c ****   
 682              		.loc 1 452 28 is_stmt 0 view .LVU182
 683 0038 0122     		movs	r2, #1
 684 003a 0792     		str	r2, [sp, #28]
 455:Core/Src/main.c ****   filterConfig.FilterIdLow = 0x0004;   // Only IDE bit set (extended ID)
 685              		.loc 1 455 3 is_stmt 1 view .LVU183
 455:Core/Src/main.c ****   filterConfig.FilterIdLow = 0x0004;   // Only IDE bit set (extended ID)
 686              		.loc 1 455 29 is_stmt 0 view .LVU184
 687 003c 0093     		str	r3, [sp]
 456:Core/Src/main.c ****   filterConfig.FilterMaskIdHigh = 0x0000;  // Don't care about any ID bits
 688              		.loc 1 456 3 is_stmt 1 view .LVU185
 456:Core/Src/main.c ****   filterConfig.FilterMaskIdHigh = 0x0000;  // Don't care about any ID bits
 689              		.loc 1 456 28 is_stmt 0 view .LVU186
 690 003e 0421     		movs	r1, #4
 691 0040 0191     		str	r1, [sp, #4]
 457:Core/Src/main.c ****   filterConfig.FilterMaskIdLow = 0x0004;   // But we DO care about IDE bit (only extended)
 692              		.loc 1 457 3 is_stmt 1 view .LVU187
 457:Core/Src/main.c ****   filterConfig.FilterMaskIdLow = 0x0004;   // But we DO care about IDE bit (only extended)
 693              		.loc 1 457 33 is_stmt 0 view .LVU188
 694 0042 0293     		str	r3, [sp, #8]
 458:Core/Src/main.c ****   
 695              		.loc 1 458 3 is_stmt 1 view .LVU189
 458:Core/Src/main.c ****   
 696              		.loc 1 458 32 is_stmt 0 view .LVU190
 697 0044 0391     		str	r1, [sp, #12]
 460:Core/Src/main.c ****   filterConfig.FilterActivation = ENABLE;
 698              		.loc 1 460 3 is_stmt 1 view .LVU191
 460:Core/Src/main.c ****   filterConfig.FilterActivation = ENABLE;
 699              		.loc 1 460 37 is_stmt 0 view .LVU192
 700 0046 0493     		str	r3, [sp, #16]
 461:Core/Src/main.c ****   filterConfig.SlaveStartFilterBank = 14;
 701              		.loc 1 461 3 is_stmt 1 view .LVU193
 461:Core/Src/main.c ****   filterConfig.SlaveStartFilterBank = 14;
 702              		.loc 1 461 33 is_stmt 0 view .LVU194
 703 0048 0892     		str	r2, [sp, #32]
 462:Core/Src/main.c ****   
ARM GAS  C:\Users\Ali\AppData\Local\Temp\cc8gb0JI.s 			page 36


 704              		.loc 1 462 3 is_stmt 1 view .LVU195
 462:Core/Src/main.c ****   
 705              		.loc 1 462 37 is_stmt 0 view .LVU196
 706 004a 0E23     		movs	r3, #14
 707 004c 0993     		str	r3, [sp, #36]
 464:Core/Src/main.c ****   {
 708              		.loc 1 464 3 is_stmt 1 view .LVU197
 464:Core/Src/main.c ****   {
 709              		.loc 1 464 7 is_stmt 0 view .LVU198
 710 004e 6946     		mov	r1, sp
 711 0050 0548     		ldr	r0, .L49
 712 0052 FFF7FEFF 		bl	HAL_CAN_ConfigFilter
 713              	.LVL28:
 464:Core/Src/main.c ****   {
 714              		.loc 1 464 6 discriminator 1 view .LVU199
 715 0056 20B9     		cbnz	r0, .L48
 471:Core/Src/main.c **** 
 716              		.loc 1 471 1 view .LVU200
 717 0058 0BB0     		add	sp, sp, #44
 718              		.cfi_remember_state
 719              		.cfi_def_cfa_offset 4
 720              		@ sp needed
 721 005a 5DF804FB 		ldr	pc, [sp], #4
 722              	.L47:
 723              		.cfi_restore_state
 443:Core/Src/main.c ****   }
 724              		.loc 1 443 5 is_stmt 1 view .LVU201
 725 005e FFF7FEFF 		bl	Error_Handler
 726              	.LVL29:
 727              	.L48:
 466:Core/Src/main.c ****   }
 728              		.loc 1 466 5 view .LVU202
 729 0062 FFF7FEFF 		bl	Error_Handler
 730              	.LVL30:
 731              	.L50:
 732 0066 00BF     		.align	2
 733              	.L49:
 734 0068 00000000 		.word	hcan1
 735 006c 00640040 		.word	1073767424
 736              		.cfi_endproc
 737              	.LFE295:
 739              		.section	.text.MX_CRC_Init,"ax",%progbits
 740              		.align	1
 741              		.syntax unified
 742              		.thumb
 743              		.thumb_func
 745              	MX_CRC_Init:
 746              	.LFB296:
 479:Core/Src/main.c **** 
 747              		.loc 1 479 1 view -0
 748              		.cfi_startproc
 749              		@ args = 0, pretend = 0, frame = 0
 750              		@ frame_needed = 0, uses_anonymous_args = 0
 751 0000 08B5     		push	{r3, lr}
 752              		.cfi_def_cfa_offset 8
 753              		.cfi_offset 3, -8
 754              		.cfi_offset 14, -4
ARM GAS  C:\Users\Ali\AppData\Local\Temp\cc8gb0JI.s 			page 37


 488:Core/Src/main.c ****   hcrc.Init.DefaultPolynomialUse = DEFAULT_POLYNOMIAL_ENABLE;
 755              		.loc 1 488 3 view .LVU204
 488:Core/Src/main.c ****   hcrc.Init.DefaultPolynomialUse = DEFAULT_POLYNOMIAL_ENABLE;
 756              		.loc 1 488 17 is_stmt 0 view .LVU205
 757 0002 0848     		ldr	r0, .L55
 758 0004 084B     		ldr	r3, .L55+4
 759 0006 0360     		str	r3, [r0]
 489:Core/Src/main.c ****   hcrc.Init.DefaultInitValueUse = DEFAULT_INIT_VALUE_ENABLE;
 760              		.loc 1 489 3 is_stmt 1 view .LVU206
 489:Core/Src/main.c ****   hcrc.Init.DefaultInitValueUse = DEFAULT_INIT_VALUE_ENABLE;
 761              		.loc 1 489 34 is_stmt 0 view .LVU207
 762 0008 0023     		movs	r3, #0
 763 000a 0371     		strb	r3, [r0, #4]
 490:Core/Src/main.c ****   hcrc.Init.InputDataInversionMode = CRC_INPUTDATA_INVERSION_NONE;
 764              		.loc 1 490 3 is_stmt 1 view .LVU208
 490:Core/Src/main.c ****   hcrc.Init.InputDataInversionMode = CRC_INPUTDATA_INVERSION_NONE;
 765              		.loc 1 490 33 is_stmt 0 view .LVU209
 766 000c 4371     		strb	r3, [r0, #5]
 491:Core/Src/main.c ****   hcrc.Init.OutputDataInversionMode = CRC_OUTPUTDATA_INVERSION_DISABLE;
 767              		.loc 1 491 3 is_stmt 1 view .LVU210
 491:Core/Src/main.c ****   hcrc.Init.OutputDataInversionMode = CRC_OUTPUTDATA_INVERSION_DISABLE;
 768              		.loc 1 491 36 is_stmt 0 view .LVU211
 769 000e 4361     		str	r3, [r0, #20]
 492:Core/Src/main.c ****   hcrc.InputDataFormat = CRC_INPUTDATA_FORMAT_BYTES;
 770              		.loc 1 492 3 is_stmt 1 view .LVU212
 492:Core/Src/main.c ****   hcrc.InputDataFormat = CRC_INPUTDATA_FORMAT_BYTES;
 771              		.loc 1 492 37 is_stmt 0 view .LVU213
 772 0010 8361     		str	r3, [r0, #24]
 493:Core/Src/main.c ****   if (HAL_CRC_Init(&hcrc) != HAL_OK)
 773              		.loc 1 493 3 is_stmt 1 view .LVU214
 493:Core/Src/main.c ****   if (HAL_CRC_Init(&hcrc) != HAL_OK)
 774              		.loc 1 493 24 is_stmt 0 view .LVU215
 775 0012 0123     		movs	r3, #1
 776 0014 0362     		str	r3, [r0, #32]
 494:Core/Src/main.c ****   {
 777              		.loc 1 494 3 is_stmt 1 view .LVU216
 494:Core/Src/main.c ****   {
 778              		.loc 1 494 7 is_stmt 0 view .LVU217
 779 0016 FFF7FEFF 		bl	HAL_CRC_Init
 780              	.LVL31:
 494:Core/Src/main.c ****   {
 781              		.loc 1 494 6 discriminator 1 view .LVU218
 782 001a 00B9     		cbnz	r0, .L54
 502:Core/Src/main.c **** 
 783              		.loc 1 502 1 view .LVU219
 784 001c 08BD     		pop	{r3, pc}
 785              	.L54:
 496:Core/Src/main.c ****   }
 786              		.loc 1 496 5 is_stmt 1 view .LVU220
 787 001e FFF7FEFF 		bl	Error_Handler
 788              	.LVL32:
 789              	.L56:
 790 0022 00BF     		.align	2
 791              	.L55:
 792 0024 00000000 		.word	hcrc
 793 0028 00300240 		.word	1073885184
 794              		.cfi_endproc
ARM GAS  C:\Users\Ali\AppData\Local\Temp\cc8gb0JI.s 			page 38


 795              	.LFE296:
 797              		.section	.text.MX_I2C1_Init,"ax",%progbits
 798              		.align	1
 799              		.syntax unified
 800              		.thumb
 801              		.thumb_func
 803              	MX_I2C1_Init:
 804              	.LFB297:
 510:Core/Src/main.c **** 
 805              		.loc 1 510 1 view -0
 806              		.cfi_startproc
 807              		@ args = 0, pretend = 0, frame = 0
 808              		@ frame_needed = 0, uses_anonymous_args = 0
 809 0000 08B5     		push	{r3, lr}
 810              		.cfi_def_cfa_offset 8
 811              		.cfi_offset 3, -8
 812              		.cfi_offset 14, -4
 519:Core/Src/main.c ****   hi2c1.Init.Timing = 0x00503D58;
 813              		.loc 1 519 3 view .LVU222
 519:Core/Src/main.c ****   hi2c1.Init.Timing = 0x00503D58;
 814              		.loc 1 519 18 is_stmt 0 view .LVU223
 815 0002 1148     		ldr	r0, .L65
 816 0004 114B     		ldr	r3, .L65+4
 817 0006 0360     		str	r3, [r0]
 520:Core/Src/main.c ****   hi2c1.Init.OwnAddress1 = 0;
 818              		.loc 1 520 3 is_stmt 1 view .LVU224
 520:Core/Src/main.c ****   hi2c1.Init.OwnAddress1 = 0;
 819              		.loc 1 520 21 is_stmt 0 view .LVU225
 820 0008 114B     		ldr	r3, .L65+8
 821 000a 4360     		str	r3, [r0, #4]
 521:Core/Src/main.c ****   hi2c1.Init.AddressingMode = I2C_ADDRESSINGMODE_7BIT;
 822              		.loc 1 521 3 is_stmt 1 view .LVU226
 521:Core/Src/main.c ****   hi2c1.Init.AddressingMode = I2C_ADDRESSINGMODE_7BIT;
 823              		.loc 1 521 26 is_stmt 0 view .LVU227
 824 000c 0023     		movs	r3, #0
 825 000e 8360     		str	r3, [r0, #8]
 522:Core/Src/main.c ****   hi2c1.Init.DualAddressMode = I2C_DUALADDRESS_DISABLE;
 826              		.loc 1 522 3 is_stmt 1 view .LVU228
 522:Core/Src/main.c ****   hi2c1.Init.DualAddressMode = I2C_DUALADDRESS_DISABLE;
 827              		.loc 1 522 29 is_stmt 0 view .LVU229
 828 0010 0122     		movs	r2, #1
 829 0012 C260     		str	r2, [r0, #12]
 523:Core/Src/main.c ****   hi2c1.Init.OwnAddress2 = 0;
 830              		.loc 1 523 3 is_stmt 1 view .LVU230
 523:Core/Src/main.c ****   hi2c1.Init.OwnAddress2 = 0;
 831              		.loc 1 523 30 is_stmt 0 view .LVU231
 832 0014 0361     		str	r3, [r0, #16]
 524:Core/Src/main.c ****   hi2c1.Init.OwnAddress2Masks = I2C_OA2_NOMASK;
 833              		.loc 1 524 3 is_stmt 1 view .LVU232
 524:Core/Src/main.c ****   hi2c1.Init.OwnAddress2Masks = I2C_OA2_NOMASK;
 834              		.loc 1 524 26 is_stmt 0 view .LVU233
 835 0016 4361     		str	r3, [r0, #20]
 525:Core/Src/main.c ****   hi2c1.Init.GeneralCallMode = I2C_GENERALCALL_DISABLE;
 836              		.loc 1 525 3 is_stmt 1 view .LVU234
 525:Core/Src/main.c ****   hi2c1.Init.GeneralCallMode = I2C_GENERALCALL_DISABLE;
 837              		.loc 1 525 31 is_stmt 0 view .LVU235
 838 0018 8361     		str	r3, [r0, #24]
ARM GAS  C:\Users\Ali\AppData\Local\Temp\cc8gb0JI.s 			page 39


 526:Core/Src/main.c ****   hi2c1.Init.NoStretchMode = I2C_NOSTRETCH_DISABLE;
 839              		.loc 1 526 3 is_stmt 1 view .LVU236
 526:Core/Src/main.c ****   hi2c1.Init.NoStretchMode = I2C_NOSTRETCH_DISABLE;
 840              		.loc 1 526 30 is_stmt 0 view .LVU237
 841 001a C361     		str	r3, [r0, #28]
 527:Core/Src/main.c ****   if (HAL_I2C_Init(&hi2c1) != HAL_OK)
 842              		.loc 1 527 3 is_stmt 1 view .LVU238
 527:Core/Src/main.c ****   if (HAL_I2C_Init(&hi2c1) != HAL_OK)
 843              		.loc 1 527 28 is_stmt 0 view .LVU239
 844 001c 0362     		str	r3, [r0, #32]
 528:Core/Src/main.c ****   {
 845              		.loc 1 528 3 is_stmt 1 view .LVU240
 528:Core/Src/main.c ****   {
 846              		.loc 1 528 7 is_stmt 0 view .LVU241
 847 001e FFF7FEFF 		bl	HAL_I2C_Init
 848              	.LVL33:
 528:Core/Src/main.c ****   {
 849              		.loc 1 528 6 discriminator 1 view .LVU242
 850 0022 50B9     		cbnz	r0, .L62
 535:Core/Src/main.c ****   {
 851              		.loc 1 535 3 is_stmt 1 view .LVU243
 535:Core/Src/main.c ****   {
 852              		.loc 1 535 7 is_stmt 0 view .LVU244
 853 0024 0021     		movs	r1, #0
 854 0026 0848     		ldr	r0, .L65
 855 0028 FFF7FEFF 		bl	HAL_I2CEx_ConfigAnalogFilter
 856              	.LVL34:
 535:Core/Src/main.c ****   {
 857              		.loc 1 535 6 discriminator 1 view .LVU245
 858 002c 38B9     		cbnz	r0, .L63
 542:Core/Src/main.c ****   {
 859              		.loc 1 542 3 is_stmt 1 view .LVU246
 542:Core/Src/main.c ****   {
 860              		.loc 1 542 7 is_stmt 0 view .LVU247
 861 002e 0021     		movs	r1, #0
 862 0030 0548     		ldr	r0, .L65
 863 0032 FFF7FEFF 		bl	HAL_I2CEx_ConfigDigitalFilter
 864              	.LVL35:
 542:Core/Src/main.c ****   {
 865              		.loc 1 542 6 discriminator 1 view .LVU248
 866 0036 20B9     		cbnz	r0, .L64
 550:Core/Src/main.c **** 
 867              		.loc 1 550 1 view .LVU249
 868 0038 08BD     		pop	{r3, pc}
 869              	.L62:
 530:Core/Src/main.c ****   }
 870              		.loc 1 530 5 is_stmt 1 view .LVU250
 871 003a FFF7FEFF 		bl	Error_Handler
 872              	.LVL36:
 873              	.L63:
 537:Core/Src/main.c ****   }
 874              		.loc 1 537 5 view .LVU251
 875 003e FFF7FEFF 		bl	Error_Handler
 876              	.LVL37:
 877              	.L64:
 544:Core/Src/main.c ****   }
 878              		.loc 1 544 5 view .LVU252
ARM GAS  C:\Users\Ali\AppData\Local\Temp\cc8gb0JI.s 			page 40


 879 0042 FFF7FEFF 		bl	Error_Handler
 880              	.LVL38:
 881              	.L66:
 882 0046 00BF     		.align	2
 883              	.L65:
 884 0048 00000000 		.word	hi2c1
 885 004c 00540040 		.word	1073763328
 886 0050 583D5000 		.word	5258584
 887              		.cfi_endproc
 888              	.LFE297:
 890              		.section	.text.MX_I2C3_Init,"ax",%progbits
 891              		.align	1
 892              		.syntax unified
 893              		.thumb
 894              		.thumb_func
 896              	MX_I2C3_Init:
 897              	.LFB298:
 558:Core/Src/main.c **** 
 898              		.loc 1 558 1 view -0
 899              		.cfi_startproc
 900              		@ args = 0, pretend = 0, frame = 0
 901              		@ frame_needed = 0, uses_anonymous_args = 0
 902 0000 08B5     		push	{r3, lr}
 903              		.cfi_def_cfa_offset 8
 904              		.cfi_offset 3, -8
 905              		.cfi_offset 14, -4
 567:Core/Src/main.c ****   hi2c3.Init.Timing = 0x00503D58;
 906              		.loc 1 567 3 view .LVU254
 567:Core/Src/main.c ****   hi2c3.Init.Timing = 0x00503D58;
 907              		.loc 1 567 18 is_stmt 0 view .LVU255
 908 0002 1148     		ldr	r0, .L75
 909 0004 114B     		ldr	r3, .L75+4
 910 0006 0360     		str	r3, [r0]
 568:Core/Src/main.c ****   hi2c3.Init.OwnAddress1 = 0;
 911              		.loc 1 568 3 is_stmt 1 view .LVU256
 568:Core/Src/main.c ****   hi2c3.Init.OwnAddress1 = 0;
 912              		.loc 1 568 21 is_stmt 0 view .LVU257
 913 0008 114B     		ldr	r3, .L75+8
 914 000a 4360     		str	r3, [r0, #4]
 569:Core/Src/main.c ****   hi2c3.Init.AddressingMode = I2C_ADDRESSINGMODE_7BIT;
 915              		.loc 1 569 3 is_stmt 1 view .LVU258
 569:Core/Src/main.c ****   hi2c3.Init.AddressingMode = I2C_ADDRESSINGMODE_7BIT;
 916              		.loc 1 569 26 is_stmt 0 view .LVU259
 917 000c 0023     		movs	r3, #0
 918 000e 8360     		str	r3, [r0, #8]
 570:Core/Src/main.c ****   hi2c3.Init.DualAddressMode = I2C_DUALADDRESS_DISABLE;
 919              		.loc 1 570 3 is_stmt 1 view .LVU260
 570:Core/Src/main.c ****   hi2c3.Init.DualAddressMode = I2C_DUALADDRESS_DISABLE;
 920              		.loc 1 570 29 is_stmt 0 view .LVU261
 921 0010 0122     		movs	r2, #1
 922 0012 C260     		str	r2, [r0, #12]
 571:Core/Src/main.c ****   hi2c3.Init.OwnAddress2 = 0;
 923              		.loc 1 571 3 is_stmt 1 view .LVU262
 571:Core/Src/main.c ****   hi2c3.Init.OwnAddress2 = 0;
 924              		.loc 1 571 30 is_stmt 0 view .LVU263
 925 0014 0361     		str	r3, [r0, #16]
 572:Core/Src/main.c ****   hi2c3.Init.OwnAddress2Masks = I2C_OA2_NOMASK;
ARM GAS  C:\Users\Ali\AppData\Local\Temp\cc8gb0JI.s 			page 41


 926              		.loc 1 572 3 is_stmt 1 view .LVU264
 572:Core/Src/main.c ****   hi2c3.Init.OwnAddress2Masks = I2C_OA2_NOMASK;
 927              		.loc 1 572 26 is_stmt 0 view .LVU265
 928 0016 4361     		str	r3, [r0, #20]
 573:Core/Src/main.c ****   hi2c3.Init.GeneralCallMode = I2C_GENERALCALL_DISABLE;
 929              		.loc 1 573 3 is_stmt 1 view .LVU266
 573:Core/Src/main.c ****   hi2c3.Init.GeneralCallMode = I2C_GENERALCALL_DISABLE;
 930              		.loc 1 573 31 is_stmt 0 view .LVU267
 931 0018 8361     		str	r3, [r0, #24]
 574:Core/Src/main.c ****   hi2c3.Init.NoStretchMode = I2C_NOSTRETCH_DISABLE;
 932              		.loc 1 574 3 is_stmt 1 view .LVU268
 574:Core/Src/main.c ****   hi2c3.Init.NoStretchMode = I2C_NOSTRETCH_DISABLE;
 933              		.loc 1 574 30 is_stmt 0 view .LVU269
 934 001a C361     		str	r3, [r0, #28]
 575:Core/Src/main.c ****   if (HAL_I2C_Init(&hi2c3) != HAL_OK)
 935              		.loc 1 575 3 is_stmt 1 view .LVU270
 575:Core/Src/main.c ****   if (HAL_I2C_Init(&hi2c3) != HAL_OK)
 936              		.loc 1 575 28 is_stmt 0 view .LVU271
 937 001c 0362     		str	r3, [r0, #32]
 576:Core/Src/main.c ****   {
 938              		.loc 1 576 3 is_stmt 1 view .LVU272
 576:Core/Src/main.c ****   {
 939              		.loc 1 576 7 is_stmt 0 view .LVU273
 940 001e FFF7FEFF 		bl	HAL_I2C_Init
 941              	.LVL39:
 576:Core/Src/main.c ****   {
 942              		.loc 1 576 6 discriminator 1 view .LVU274
 943 0022 50B9     		cbnz	r0, .L72
 583:Core/Src/main.c ****   {
 944              		.loc 1 583 3 is_stmt 1 view .LVU275
 583:Core/Src/main.c ****   {
 945              		.loc 1 583 7 is_stmt 0 view .LVU276
 946 0024 0021     		movs	r1, #0
 947 0026 0848     		ldr	r0, .L75
 948 0028 FFF7FEFF 		bl	HAL_I2CEx_ConfigAnalogFilter
 949              	.LVL40:
 583:Core/Src/main.c ****   {
 950              		.loc 1 583 6 discriminator 1 view .LVU277
 951 002c 38B9     		cbnz	r0, .L73
 590:Core/Src/main.c ****   {
 952              		.loc 1 590 3 is_stmt 1 view .LVU278
 590:Core/Src/main.c ****   {
 953              		.loc 1 590 7 is_stmt 0 view .LVU279
 954 002e 0021     		movs	r1, #0
 955 0030 0548     		ldr	r0, .L75
 956 0032 FFF7FEFF 		bl	HAL_I2CEx_ConfigDigitalFilter
 957              	.LVL41:
 590:Core/Src/main.c ****   {
 958              		.loc 1 590 6 discriminator 1 view .LVU280
 959 0036 20B9     		cbnz	r0, .L74
 598:Core/Src/main.c **** 
 960              		.loc 1 598 1 view .LVU281
 961 0038 08BD     		pop	{r3, pc}
 962              	.L72:
 578:Core/Src/main.c ****   }
 963              		.loc 1 578 5 is_stmt 1 view .LVU282
 964 003a FFF7FEFF 		bl	Error_Handler
ARM GAS  C:\Users\Ali\AppData\Local\Temp\cc8gb0JI.s 			page 42


 965              	.LVL42:
 966              	.L73:
 585:Core/Src/main.c ****   }
 967              		.loc 1 585 5 view .LVU283
 968 003e FFF7FEFF 		bl	Error_Handler
 969              	.LVL43:
 970              	.L74:
 592:Core/Src/main.c ****   }
 971              		.loc 1 592 5 view .LVU284
 972 0042 FFF7FEFF 		bl	Error_Handler
 973              	.LVL44:
 974              	.L76:
 975 0046 00BF     		.align	2
 976              	.L75:
 977 0048 00000000 		.word	hi2c3
 978 004c 005C0040 		.word	1073765376
 979 0050 583D5000 		.word	5258584
 980              		.cfi_endproc
 981              	.LFE298:
 983              		.section	.text.SystemClock_Config,"ax",%progbits
 984              		.align	1
 985              		.global	SystemClock_Config
 986              		.syntax unified
 987              		.thumb
 988              		.thumb_func
 990              	SystemClock_Config:
 991              	.LFB293:
 312:Core/Src/main.c ****   RCC_OscInitTypeDef RCC_OscInitStruct = {0};
 992              		.loc 1 312 1 view -0
 993              		.cfi_startproc
 994              		@ args = 0, pretend = 0, frame = 88
 995              		@ frame_needed = 0, uses_anonymous_args = 0
 996 0000 00B5     		push	{lr}
 997              		.cfi_def_cfa_offset 4
 998              		.cfi_offset 14, -4
 999 0002 97B0     		sub	sp, sp, #92
 1000              		.cfi_def_cfa_offset 96
 313:Core/Src/main.c ****   RCC_ClkInitTypeDef RCC_ClkInitStruct = {0};
 1001              		.loc 1 313 3 view .LVU286
 313:Core/Src/main.c ****   RCC_ClkInitTypeDef RCC_ClkInitStruct = {0};
 1002              		.loc 1 313 22 is_stmt 0 view .LVU287
 1003 0004 4422     		movs	r2, #68
 1004 0006 0021     		movs	r1, #0
 1005 0008 05A8     		add	r0, sp, #20
 1006 000a FFF7FEFF 		bl	memset
 1007              	.LVL45:
 314:Core/Src/main.c **** 
 1008              		.loc 1 314 3 is_stmt 1 view .LVU288
 314:Core/Src/main.c **** 
 1009              		.loc 1 314 22 is_stmt 0 view .LVU289
 1010 000e 0023     		movs	r3, #0
 1011 0010 0093     		str	r3, [sp]
 1012 0012 0193     		str	r3, [sp, #4]
 1013 0014 0293     		str	r3, [sp, #8]
 1014 0016 0393     		str	r3, [sp, #12]
 1015 0018 0493     		str	r3, [sp, #16]
 318:Core/Src/main.c ****   {
ARM GAS  C:\Users\Ali\AppData\Local\Temp\cc8gb0JI.s 			page 43


 1016              		.loc 1 318 3 is_stmt 1 view .LVU290
 318:Core/Src/main.c ****   {
 1017              		.loc 1 318 7 is_stmt 0 view .LVU291
 1018 001a 4FF40070 		mov	r0, #512
 1019 001e FFF7FEFF 		bl	HAL_PWREx_ControlVoltageScaling
 1020              	.LVL46:
 318:Core/Src/main.c ****   {
 1021              		.loc 1 318 6 discriminator 1 view .LVU292
 1022 0022 18BB     		cbnz	r0, .L82
 326:Core/Src/main.c ****   RCC_OscInitStruct.HSIState = RCC_HSI_ON;
 1023              		.loc 1 326 3 is_stmt 1 view .LVU293
 326:Core/Src/main.c ****   RCC_OscInitStruct.HSIState = RCC_HSI_ON;
 1024              		.loc 1 326 36 is_stmt 0 view .LVU294
 1025 0024 0223     		movs	r3, #2
 1026 0026 0593     		str	r3, [sp, #20]
 327:Core/Src/main.c ****   RCC_OscInitStruct.HSICalibrationValue = RCC_HSICALIBRATION_DEFAULT;
 1027              		.loc 1 327 3 is_stmt 1 view .LVU295
 327:Core/Src/main.c ****   RCC_OscInitStruct.HSICalibrationValue = RCC_HSICALIBRATION_DEFAULT;
 1028              		.loc 1 327 30 is_stmt 0 view .LVU296
 1029 0028 4FF48072 		mov	r2, #256
 1030 002c 0892     		str	r2, [sp, #32]
 328:Core/Src/main.c ****   RCC_OscInitStruct.PLL.PLLState = RCC_PLL_ON;
 1031              		.loc 1 328 3 is_stmt 1 view .LVU297
 328:Core/Src/main.c ****   RCC_OscInitStruct.PLL.PLLState = RCC_PLL_ON;
 1032              		.loc 1 328 41 is_stmt 0 view .LVU298
 1033 002e 1022     		movs	r2, #16
 1034 0030 0992     		str	r2, [sp, #36]
 329:Core/Src/main.c ****   RCC_OscInitStruct.PLL.PLLSource = RCC_PLLSOURCE_HSI;
 1035              		.loc 1 329 3 is_stmt 1 view .LVU299
 329:Core/Src/main.c ****   RCC_OscInitStruct.PLL.PLLSource = RCC_PLLSOURCE_HSI;
 1036              		.loc 1 329 34 is_stmt 0 view .LVU300
 1037 0032 0F93     		str	r3, [sp, #60]
 330:Core/Src/main.c ****   RCC_OscInitStruct.PLL.PLLM = 2;
 1038              		.loc 1 330 3 is_stmt 1 view .LVU301
 330:Core/Src/main.c ****   RCC_OscInitStruct.PLL.PLLM = 2;
 1039              		.loc 1 330 35 is_stmt 0 view .LVU302
 1040 0034 1093     		str	r3, [sp, #64]
 331:Core/Src/main.c ****   RCC_OscInitStruct.PLL.PLLN = 20;
 1041              		.loc 1 331 3 is_stmt 1 view .LVU303
 331:Core/Src/main.c ****   RCC_OscInitStruct.PLL.PLLN = 20;
 1042              		.loc 1 331 30 is_stmt 0 view .LVU304
 1043 0036 1193     		str	r3, [sp, #68]
 332:Core/Src/main.c ****   RCC_OscInitStruct.PLL.PLLP = RCC_PLLP_DIV7;
 1044              		.loc 1 332 3 is_stmt 1 view .LVU305
 332:Core/Src/main.c ****   RCC_OscInitStruct.PLL.PLLP = RCC_PLLP_DIV7;
 1045              		.loc 1 332 30 is_stmt 0 view .LVU306
 1046 0038 1422     		movs	r2, #20
 1047 003a 1292     		str	r2, [sp, #72]
 333:Core/Src/main.c ****   RCC_OscInitStruct.PLL.PLLQ = RCC_PLLQ_DIV2;
 1048              		.loc 1 333 3 is_stmt 1 view .LVU307
 333:Core/Src/main.c ****   RCC_OscInitStruct.PLL.PLLQ = RCC_PLLQ_DIV2;
 1049              		.loc 1 333 30 is_stmt 0 view .LVU308
 1050 003c 0722     		movs	r2, #7
 1051 003e 1392     		str	r2, [sp, #76]
 334:Core/Src/main.c ****   RCC_OscInitStruct.PLL.PLLR = RCC_PLLR_DIV2;
 1052              		.loc 1 334 3 is_stmt 1 view .LVU309
 334:Core/Src/main.c ****   RCC_OscInitStruct.PLL.PLLR = RCC_PLLR_DIV2;
ARM GAS  C:\Users\Ali\AppData\Local\Temp\cc8gb0JI.s 			page 44


 1053              		.loc 1 334 30 is_stmt 0 view .LVU310
 1054 0040 1493     		str	r3, [sp, #80]
 335:Core/Src/main.c ****   if (HAL_RCC_OscConfig(&RCC_OscInitStruct) != HAL_OK)
 1055              		.loc 1 335 3 is_stmt 1 view .LVU311
 335:Core/Src/main.c ****   if (HAL_RCC_OscConfig(&RCC_OscInitStruct) != HAL_OK)
 1056              		.loc 1 335 30 is_stmt 0 view .LVU312
 1057 0042 1593     		str	r3, [sp, #84]
 336:Core/Src/main.c ****   {
 1058              		.loc 1 336 3 is_stmt 1 view .LVU313
 336:Core/Src/main.c ****   {
 1059              		.loc 1 336 7 is_stmt 0 view .LVU314
 1060 0044 05A8     		add	r0, sp, #20
 1061 0046 FFF7FEFF 		bl	HAL_RCC_OscConfig
 1062              	.LVL47:
 336:Core/Src/main.c ****   {
 1063              		.loc 1 336 6 discriminator 1 view .LVU315
 1064 004a 88B9     		cbnz	r0, .L83
 343:Core/Src/main.c ****                               |RCC_CLOCKTYPE_PCLK1|RCC_CLOCKTYPE_PCLK2;
 1065              		.loc 1 343 3 is_stmt 1 view .LVU316
 343:Core/Src/main.c ****                               |RCC_CLOCKTYPE_PCLK1|RCC_CLOCKTYPE_PCLK2;
 1066              		.loc 1 343 31 is_stmt 0 view .LVU317
 1067 004c 0F23     		movs	r3, #15
 1068 004e 0093     		str	r3, [sp]
 345:Core/Src/main.c ****   RCC_ClkInitStruct.AHBCLKDivider = RCC_SYSCLK_DIV1;
 1069              		.loc 1 345 3 is_stmt 1 view .LVU318
 345:Core/Src/main.c ****   RCC_ClkInitStruct.AHBCLKDivider = RCC_SYSCLK_DIV1;
 1070              		.loc 1 345 34 is_stmt 0 view .LVU319
 1071 0050 0323     		movs	r3, #3
 1072 0052 0193     		str	r3, [sp, #4]
 346:Core/Src/main.c ****   RCC_ClkInitStruct.APB1CLKDivider = RCC_HCLK_DIV1;
 1073              		.loc 1 346 3 is_stmt 1 view .LVU320
 346:Core/Src/main.c ****   RCC_ClkInitStruct.APB1CLKDivider = RCC_HCLK_DIV1;
 1074              		.loc 1 346 35 is_stmt 0 view .LVU321
 1075 0054 0023     		movs	r3, #0
 1076 0056 0293     		str	r3, [sp, #8]
 347:Core/Src/main.c ****   RCC_ClkInitStruct.APB2CLKDivider = RCC_HCLK_DIV1;
 1077              		.loc 1 347 3 is_stmt 1 view .LVU322
 347:Core/Src/main.c ****   RCC_ClkInitStruct.APB2CLKDivider = RCC_HCLK_DIV1;
 1078              		.loc 1 347 36 is_stmt 0 view .LVU323
 1079 0058 0393     		str	r3, [sp, #12]
 348:Core/Src/main.c **** 
 1080              		.loc 1 348 3 is_stmt 1 view .LVU324
 348:Core/Src/main.c **** 
 1081              		.loc 1 348 36 is_stmt 0 view .LVU325
 1082 005a 0493     		str	r3, [sp, #16]
 350:Core/Src/main.c ****   {
 1083              		.loc 1 350 3 is_stmt 1 view .LVU326
 350:Core/Src/main.c ****   {
 1084              		.loc 1 350 7 is_stmt 0 view .LVU327
 1085 005c 0421     		movs	r1, #4
 1086 005e 6846     		mov	r0, sp
 1087 0060 FFF7FEFF 		bl	HAL_RCC_ClockConfig
 1088              	.LVL48:
 350:Core/Src/main.c ****   {
 1089              		.loc 1 350 6 discriminator 1 view .LVU328
 1090 0064 30B9     		cbnz	r0, .L84
 354:Core/Src/main.c **** 
ARM GAS  C:\Users\Ali\AppData\Local\Temp\cc8gb0JI.s 			page 45


 1091              		.loc 1 354 1 view .LVU329
 1092 0066 17B0     		add	sp, sp, #92
 1093              		.cfi_remember_state
 1094              		.cfi_def_cfa_offset 4
 1095              		@ sp needed
 1096 0068 5DF804FB 		ldr	pc, [sp], #4
 1097              	.L82:
 1098              		.cfi_restore_state
 320:Core/Src/main.c ****   }
 1099              		.loc 1 320 5 is_stmt 1 view .LVU330
 1100 006c FFF7FEFF 		bl	Error_Handler
 1101              	.LVL49:
 1102              	.L83:
 338:Core/Src/main.c ****   }
 1103              		.loc 1 338 5 view .LVU331
 1104 0070 FFF7FEFF 		bl	Error_Handler
 1105              	.LVL50:
 1106              	.L84:
 352:Core/Src/main.c ****   }
 1107              		.loc 1 352 5 view .LVU332
 1108 0074 FFF7FEFF 		bl	Error_Handler
 1109              	.LVL51:
 1110              		.cfi_endproc
 1111              	.LFE293:
 1113              		.section	.text.main,"ax",%progbits
 1114              		.align	1
 1115              		.global	main
 1116              		.syntax unified
 1117              		.thumb
 1118              		.thumb_func
 1120              	main:
 1121              	.LFB292:
 162:Core/Src/main.c **** 
 1122              		.loc 1 162 1 view -0
 1123              		.cfi_startproc
 1124              		@ Volatile: function does not return.
 1125              		@ args = 0, pretend = 0, frame = 0
 1126              		@ frame_needed = 0, uses_anonymous_args = 0
 1127 0000 08B5     		push	{r3, lr}
 1128              		.cfi_def_cfa_offset 8
 1129              		.cfi_offset 3, -8
 1130              		.cfi_offset 14, -4
 166:Core/Src/main.c **** 
 1131              		.loc 1 166 3 view .LVU334
 1132              	.LBB16:
 1133              	.LBI16:
 207:Drivers/CMSIS/Include/cmsis_gcc.h **** {
 1134              		.loc 3 207 27 view .LVU335
 1135              	.LBB17:
 1136              		.loc 3 209 3 view .LVU336
 1137              		.syntax unified
 1138              	@ 209 "Drivers/CMSIS/Include/cmsis_gcc.h" 1
 1139 0002 72B6     		cpsid i
 1140              	@ 0 "" 2
 1141              		.thumb
 1142              		.syntax unified
 1143              	.LBE17:
ARM GAS  C:\Users\Ali\AppData\Local\Temp\cc8gb0JI.s 			page 46


 1144              	.LBE16:
 169:Core/Src/main.c ****   SysTick->LOAD = 0;
 1145              		.loc 1 169 3 view .LVU337
 169:Core/Src/main.c ****   SysTick->LOAD = 0;
 1146              		.loc 1 169 17 is_stmt 0 view .LVU338
 1147 0004 4FF0E023 		mov	r3, #-536813568
 1148 0008 0022     		movs	r2, #0
 1149 000a 1A61     		str	r2, [r3, #16]
 170:Core/Src/main.c ****   SysTick->VAL = 0;
 1150              		.loc 1 170 3 is_stmt 1 view .LVU339
 170:Core/Src/main.c ****   SysTick->VAL = 0;
 1151              		.loc 1 170 17 is_stmt 0 view .LVU340
 1152 000c 5A61     		str	r2, [r3, #20]
 171:Core/Src/main.c **** 
 1153              		.loc 1 171 3 is_stmt 1 view .LVU341
 171:Core/Src/main.c **** 
 1154              		.loc 1 171 16 is_stmt 0 view .LVU342
 1155 000e 9A61     		str	r2, [r3, #24]
 178:Core/Src/main.c **** 
 1156              		.loc 1 178 3 is_stmt 1 view .LVU343
 1157 0010 FFF7FEFF 		bl	HAL_Init
 1158              	.LVL52:
 185:Core/Src/main.c **** 
 1159              		.loc 1 185 3 view .LVU344
 1160 0014 FFF7FEFF 		bl	SystemClock_Config
 1161              	.LVL53:
 192:Core/Src/main.c ****   MX_ADC1_Init();
 1162              		.loc 1 192 3 view .LVU345
 1163 0018 FFF7FEFF 		bl	MX_GPIO_Init
 1164              	.LVL54:
 193:Core/Src/main.c ****   MX_CAN1_Init();
 1165              		.loc 1 193 3 view .LVU346
 1166 001c FFF7FEFF 		bl	MX_ADC1_Init
 1167              	.LVL55:
 194:Core/Src/main.c ****   MX_CRC_Init();
 1168              		.loc 1 194 3 view .LVU347
 1169 0020 FFF7FEFF 		bl	MX_CAN1_Init
 1170              	.LVL56:
 195:Core/Src/main.c ****   MX_I2C1_Init();
 1171              		.loc 1 195 3 view .LVU348
 1172 0024 FFF7FEFF 		bl	MX_CRC_Init
 1173              	.LVL57:
 196:Core/Src/main.c ****   MX_I2C3_Init();
 1174              		.loc 1 196 3 view .LVU349
 1175 0028 FFF7FEFF 		bl	MX_I2C1_Init
 1176              	.LVL58:
 197:Core/Src/main.c ****   /* USER CODE BEGIN 2 */
 1177              		.loc 1 197 3 view .LVU350
 1178 002c FFF7FEFF 		bl	MX_I2C3_Init
 1179              	.LVL59:
 201:Core/Src/main.c ****   {
 1180              		.loc 1 201 3 view .LVU351
 201:Core/Src/main.c ****   {
 1181              		.loc 1 201 7 is_stmt 0 view .LVU352
 1182 0030 7F21     		movs	r1, #127
 1183 0032 3548     		ldr	r0, .L94
 1184 0034 FFF7FEFF 		bl	HAL_ADCEx_Calibration_Start
ARM GAS  C:\Users\Ali\AppData\Local\Temp\cc8gb0JI.s 			page 47


 1185              	.LVL60:
 201:Core/Src/main.c ****   {
 1186              		.loc 1 201 6 discriminator 1 view .LVU353
 1187 0038 08B1     		cbz	r0, .L86
 203:Core/Src/main.c ****   }
 1188              		.loc 1 203 5 is_stmt 1 view .LVU354
 1189 003a FFF7FEFF 		bl	Error_Handler
 1190              	.LVL61:
 1191              	.L86:
 207:Core/Src/main.c ****   {
 1192              		.loc 1 207 3 view .LVU355
 207:Core/Src/main.c ****   {
 1193              		.loc 1 207 7 is_stmt 0 view .LVU356
 1194 003e 3348     		ldr	r0, .L94+4
 1195 0040 FFF7FEFF 		bl	HAL_CAN_Start
 1196              	.LVL62:
 207:Core/Src/main.c ****   {
 1197              		.loc 1 207 6 discriminator 1 view .LVU357
 1198 0044 08B1     		cbz	r0, .L87
 209:Core/Src/main.c ****   }
 1199              		.loc 1 209 5 is_stmt 1 view .LVU358
 1200 0046 FFF7FEFF 		bl	Error_Handler
 1201              	.LVL63:
 1202              	.L87:
 215:Core/Src/main.c ****   /* Create the mutex(es) */
 1203              		.loc 1 215 3 view .LVU359
 1204 004a FFF7FEFF 		bl	osKernelInitialize
 1205              	.LVL64:
 218:Core/Src/main.c **** 
 1206              		.loc 1 218 3 view .LVU360
 218:Core/Src/main.c **** 
 1207              		.loc 1 218 16 is_stmt 0 view .LVU361
 1208 004e 3048     		ldr	r0, .L94+8
 1209 0050 FFF7FEFF 		bl	osMutexNew
 1210              	.LVL65:
 218:Core/Src/main.c **** 
 1211              		.loc 1 218 14 discriminator 1 view .LVU362
 1212 0054 2F4B     		ldr	r3, .L94+12
 1213 0056 1860     		str	r0, [r3]
 221:Core/Src/main.c **** 
 1214              		.loc 1 221 3 is_stmt 1 view .LVU363
 221:Core/Src/main.c **** 
 1215              		.loc 1 221 16 is_stmt 0 view .LVU364
 1216 0058 2F48     		ldr	r0, .L94+16
 1217 005a FFF7FEFF 		bl	osMutexNew
 1218              	.LVL66:
 221:Core/Src/main.c **** 
 1219              		.loc 1 221 14 discriminator 1 view .LVU365
 1220 005e 2F4B     		ldr	r3, .L94+20
 1221 0060 1860     		str	r0, [r3]
 224:Core/Src/main.c **** 
 1222              		.loc 1 224 3 is_stmt 1 view .LVU366
 224:Core/Src/main.c **** 
 1223              		.loc 1 224 15 is_stmt 0 view .LVU367
 1224 0062 2F48     		ldr	r0, .L94+24
 1225 0064 FFF7FEFF 		bl	osMutexNew
 1226              	.LVL67:
ARM GAS  C:\Users\Ali\AppData\Local\Temp\cc8gb0JI.s 			page 48


 224:Core/Src/main.c **** 
 1227              		.loc 1 224 13 discriminator 1 view .LVU368
 1228 0068 2E4B     		ldr	r3, .L94+28
 1229 006a 1860     		str	r0, [r3]
 232:Core/Src/main.c ****   if (BMSResetSemHandle == NULL)
 1230              		.loc 1 232 3 is_stmt 1 view .LVU369
 232:Core/Src/main.c ****   if (BMSResetSemHandle == NULL)
 1231              		.loc 1 232 23 is_stmt 0 view .LVU370
 1232 006c 2E4A     		ldr	r2, .L94+32
 1233 006e 0021     		movs	r1, #0
 1234 0070 0120     		movs	r0, #1
 1235 0072 FFF7FEFF 		bl	osSemaphoreNew
 1236              	.LVL68:
 232:Core/Src/main.c ****   if (BMSResetSemHandle == NULL)
 1237              		.loc 1 232 21 discriminator 1 view .LVU371
 1238 0076 2D4B     		ldr	r3, .L94+36
 1239 0078 1860     		str	r0, [r3]
 233:Core/Src/main.c ****   {
 1240              		.loc 1 233 3 is_stmt 1 view .LVU372
 233:Core/Src/main.c ****   {
 1241              		.loc 1 233 6 is_stmt 0 view .LVU373
 1242 007a 30B1     		cbz	r0, .L93
 245:Core/Src/main.c ****   
 1243              		.loc 1 245 3 is_stmt 1 view .LVU374
 1244 007c FFF7FEFF 		bl	Config_Init
 1245              	.LVL69:
 248:Core/Src/main.c ****   {
 1246              		.loc 1 248 3 view .LVU375
 248:Core/Src/main.c ****   {
 1247              		.loc 1 248 7 is_stmt 0 view .LVU376
 1248 0080 FFF7FEFF 		bl	ErrorMgr_Init
 1249              	.LVL70:
 248:Core/Src/main.c ****   {
 1250              		.loc 1 248 6 discriminator 1 view .LVU377
 1251 0084 18B1     		cbz	r0, .L89
 250:Core/Src/main.c ****   }
 1252              		.loc 1 250 5 is_stmt 1 view .LVU378
 1253 0086 FFF7FEFF 		bl	Error_Handler
 1254              	.LVL71:
 1255              	.L93:
 235:Core/Src/main.c ****   }
 1256              		.loc 1 235 5 view .LVU379
 1257 008a FFF7FEFF 		bl	Error_Handler
 1258              	.LVL72:
 1259              	.L89:
 254:Core/Src/main.c ****   {
 1260              		.loc 1 254 3 view .LVU380
 254:Core/Src/main.c ****   {
 1261              		.loc 1 254 7 is_stmt 0 view .LVU381
 1262 008e FFF7FEFF 		bl	CAN_Manager_Init
 1263              	.LVL73:
 254:Core/Src/main.c ****   {
 1264              		.loc 1 254 6 discriminator 1 view .LVU382
 1265 0092 08B1     		cbz	r0, .L90
 256:Core/Src/main.c ****   }
 1266              		.loc 1 256 5 is_stmt 1 view .LVU383
 1267 0094 FFF7FEFF 		bl	Error_Handler
ARM GAS  C:\Users\Ali\AppData\Local\Temp\cc8gb0JI.s 			page 49


 1268              	.LVL74:
 1269              	.L90:
 260:Core/Src/main.c ****   /* USER CODE END RTOS_QUEUES */
 1270              		.loc 1 260 3 view .LVU384
 1271 0098 0120     		movs	r0, #1
 1272 009a FFF7FEFF 		bl	ErrorMgr_SetState
 1273              	.LVL75:
 265:Core/Src/main.c **** 
 1274              		.loc 1 265 3 view .LVU385
 265:Core/Src/main.c **** 
 1275              		.loc 1 265 23 is_stmt 0 view .LVU386
 1276 009e 244A     		ldr	r2, .L94+40
 1277 00a0 0021     		movs	r1, #0
 1278 00a2 2448     		ldr	r0, .L94+44
 1279 00a4 FFF7FEFF 		bl	osThreadNew
 1280              	.LVL76:
 265:Core/Src/main.c **** 
 1281              		.loc 1 265 21 discriminator 1 view .LVU387
 1282 00a8 234B     		ldr	r3, .L94+48
 1283 00aa 1860     		str	r0, [r3]
 269:Core/Src/main.c **** 
 1284              		.loc 1 269 3 is_stmt 1 view .LVU388
 269:Core/Src/main.c **** 
 1285              		.loc 1 269 27 is_stmt 0 view .LVU389
 1286 00ac 234A     		ldr	r2, .L94+52
 1287 00ae 0021     		movs	r1, #0
 1288 00b0 2348     		ldr	r0, .L94+56
 1289 00b2 FFF7FEFF 		bl	osThreadNew
 1290              	.LVL77:
 269:Core/Src/main.c **** 
 1291              		.loc 1 269 25 discriminator 1 view .LVU390
 1292 00b6 234B     		ldr	r3, .L94+60
 1293 00b8 1860     		str	r0, [r3]
 272:Core/Src/main.c **** 
 1294              		.loc 1 272 3 is_stmt 1 view .LVU391
 272:Core/Src/main.c **** 
 1295              		.loc 1 272 27 is_stmt 0 view .LVU392
 1296 00ba 234A     		ldr	r2, .L94+64
 1297 00bc 0021     		movs	r1, #0
 1298 00be 2348     		ldr	r0, .L94+68
 1299 00c0 FFF7FEFF 		bl	osThreadNew
 1300              	.LVL78:
 272:Core/Src/main.c **** 
 1301              		.loc 1 272 25 discriminator 1 view .LVU393
 1302 00c4 224B     		ldr	r3, .L94+72
 1303 00c6 1860     		str	r0, [r3]
 275:Core/Src/main.c **** 
 1304              		.loc 1 275 3 is_stmt 1 view .LVU394
 275:Core/Src/main.c **** 
 1305              		.loc 1 275 27 is_stmt 0 view .LVU395
 1306 00c8 224A     		ldr	r2, .L94+76
 1307 00ca 0021     		movs	r1, #0
 1308 00cc 2248     		ldr	r0, .L94+80
 1309 00ce FFF7FEFF 		bl	osThreadNew
 1310              	.LVL79:
 275:Core/Src/main.c **** 
 1311              		.loc 1 275 25 discriminator 1 view .LVU396
ARM GAS  C:\Users\Ali\AppData\Local\Temp\cc8gb0JI.s 			page 50


 1312 00d2 224B     		ldr	r3, .L94+84
 1313 00d4 1860     		str	r0, [r3]
 278:Core/Src/main.c **** 
 1314              		.loc 1 278 3 is_stmt 1 view .LVU397
 278:Core/Src/main.c **** 
 1315              		.loc 1 278 22 is_stmt 0 view .LVU398
 1316 00d6 224A     		ldr	r2, .L94+88
 1317 00d8 0021     		movs	r1, #0
 1318 00da 2248     		ldr	r0, .L94+92
 1319 00dc FFF7FEFF 		bl	osThreadNew
 1320              	.LVL80:
 278:Core/Src/main.c **** 
 1321              		.loc 1 278 20 discriminator 1 view .LVU399
 1322 00e0 214B     		ldr	r3, .L94+96
 1323 00e2 1860     		str	r0, [r3]
 281:Core/Src/main.c ****   
 1324              		.loc 1 281 3 is_stmt 1 view .LVU400
 281:Core/Src/main.c ****   
 1325              		.loc 1 281 27 is_stmt 0 view .LVU401
 1326 00e4 214A     		ldr	r2, .L94+100
 1327 00e6 0021     		movs	r1, #0
 1328 00e8 2148     		ldr	r0, .L94+104
 1329 00ea FFF7FEFF 		bl	osThreadNew
 1330              	.LVL81:
 281:Core/Src/main.c ****   
 1331              		.loc 1 281 25 discriminator 1 view .LVU402
 1332 00ee 214B     		ldr	r3, .L94+108
 1333 00f0 1860     		str	r0, [r3]
 284:Core/Src/main.c ****   /* USER CODE END RTOS_THREADS */
 1334              		.loc 1 284 3 is_stmt 1 view .LVU403
 284:Core/Src/main.c ****   /* USER CODE END RTOS_THREADS */
 1335              		.loc 1 284 30 is_stmt 0 view .LVU404
 1336 00f2 214A     		ldr	r2, .L94+112
 1337 00f4 0021     		movs	r1, #0
 1338 00f6 2148     		ldr	r0, .L94+116
 1339 00f8 FFF7FEFF 		bl	osThreadNew
 1340              	.LVL82:
 284:Core/Src/main.c ****   /* USER CODE END RTOS_THREADS */
 1341              		.loc 1 284 28 discriminator 1 view .LVU405
 1342 00fc 204B     		ldr	r3, .L94+120
 1343 00fe 1860     		str	r0, [r3]
 292:Core/Src/main.c **** 
 1344              		.loc 1 292 3 is_stmt 1 view .LVU406
 1345 0100 FFF7FEFF 		bl	osKernelStart
 1346              	.LVL83:
 1347              	.L91:
 298:Core/Src/main.c ****   {
 1348              		.loc 1 298 3 view .LVU407
 303:Core/Src/main.c ****   /* USER CODE END 3 */
 1349              		.loc 1 303 3 view .LVU408
 298:Core/Src/main.c ****   {
 1350              		.loc 1 298 9 view .LVU409
 1351 0104 FEE7     		b	.L91
 1352              	.L95:
 1353 0106 00BF     		.align	2
 1354              	.L94:
 1355 0108 00000000 		.word	hadc1
ARM GAS  C:\Users\Ali\AppData\Local\Temp\cc8gb0JI.s 			page 51


 1356 010c 00000000 		.word	hcan1
 1357 0110 00000000 		.word	I2C1_attributes
 1358 0114 00000000 		.word	I2C1Handle
 1359 0118 00000000 		.word	I2C3_attributes
 1360 011c 00000000 		.word	I2C3Handle
 1361 0120 00000000 		.word	CAN_attributes
 1362 0124 00000000 		.word	CANHandle
 1363 0128 00000000 		.word	BMSResetSem_attributes
 1364 012c 00000000 		.word	BMSResetSemHandle
 1365 0130 00000000 		.word	defaultTask_attributes
 1366 0134 00000000 		.word	StartDefaultTask
 1367 0138 00000000 		.word	defaultTaskHandle
 1368 013c 00000000 		.word	CellVoltageBMS1_attributes
 1369 0140 00000000 		.word	ReadBQBMS1
 1370 0144 00000000 		.word	CellVoltageBMS1Handle
 1371 0148 00000000 		.word	CellVoltageBMS2_attributes
 1372 014c 00000000 		.word	ReadBQBMS2
 1373 0150 00000000 		.word	CellVoltageBMS2Handle
 1374 0154 00000000 		.word	CellTemperature_attributes
 1375 0158 00000000 		.word	ReadCellTemps
 1376 015c 00000000 		.word	CellTemperatureHandle
 1377 0160 00000000 		.word	CANManager_attributes
 1378 0164 00000000 		.word	CAN_ManagerTask
 1379 0168 00000000 		.word	CANManagerHandle
 1380 016c 00000000 		.word	BMSResetHandler_attributes
 1381 0170 00000000 		.word	BMSResetHandlerTask
 1382 0174 00000000 		.word	BMSResetHandlerHandle
 1383 0178 00000000 		.word	MasterStateManager_attributes
 1384 017c 00000000 		.word	MasterStateManagerTask
 1385 0180 00000000 		.word	MasterStateManagerHandle
 1386              		.cfi_endproc
 1387              	.LFE292:
 1389              		.global	MasterStateManager_attributes
 1390              		.section	.rodata.str1.4,"aMS",%progbits,1
 1391              		.align	2
 1392              	.LC0:
 1393 0000 4D617374 		.ascii	"MasterStateManager\000"
 1393      65725374 
 1393      6174654D 
 1393      616E6167 
 1393      657200
 1394              		.section	.rodata.MasterStateManager_attributes,"a"
 1395              		.align	2
 1398              	MasterStateManager_attributes:
 1399 0000 00000000 		.word	.LC0
 1400 0004 00000000 		.space	16
 1400      00000000 
 1400      00000000 
 1400      00000000 
 1401 0014 00020000 		.word	512
 1402 0018 20000000 		.word	32
 1403 001c 00000000 		.space	8
 1403      00000000 
 1404              		.global	MasterStateManagerHandle
 1405              		.section	.bss.MasterStateManagerHandle,"aw",%nobits
 1406              		.align	2
 1409              	MasterStateManagerHandle:
ARM GAS  C:\Users\Ali\AppData\Local\Temp\cc8gb0JI.s 			page 52


 1410 0000 00000000 		.space	4
 1411              		.global	BMSResetHandler_attributes
 1412              		.section	.rodata.str1.4
 1413 0013 00       		.align	2
 1414              	.LC1:
 1415 0014 424D5352 		.ascii	"BMSResetHandler\000"
 1415      65736574 
 1415      48616E64 
 1415      6C657200 
 1416              		.section	.rodata.BMSResetHandler_attributes,"a"
 1417              		.align	2
 1420              	BMSResetHandler_attributes:
 1421 0000 14000000 		.word	.LC1
 1422 0004 00000000 		.space	16
 1422      00000000 
 1422      00000000 
 1422      00000000 
 1423 0014 00020000 		.word	512
 1424 0018 08000000 		.word	8
 1425 001c 00000000 		.space	8
 1425      00000000 
 1426              		.global	BMSResetHandlerHandle
 1427              		.section	.bss.BMSResetHandlerHandle,"aw",%nobits
 1428              		.align	2
 1431              	BMSResetHandlerHandle:
 1432 0000 00000000 		.space	4
 1433              		.global	BMSResetSem_attributes
 1434              		.section	.rodata.str1.4
 1435              		.align	2
 1436              	.LC2:
 1437 0024 424D5352 		.ascii	"BMSResetSem\000"
 1437      65736574 
 1437      53656D00 
 1438              		.section	.rodata.BMSResetSem_attributes,"a"
 1439              		.align	2
 1442              	BMSResetSem_attributes:
 1443 0000 24000000 		.word	.LC2
 1444 0004 00000000 		.space	12
 1444      00000000 
 1444      00000000 
 1445              		.global	BMSResetSemHandle
 1446              		.section	.bss.BMSResetSemHandle,"aw",%nobits
 1447              		.align	2
 1450              	BMSResetSemHandle:
 1451 0000 00000000 		.space	4
 1452              		.global	CAN_attributes
 1453              		.section	.rodata.str1.4
 1454              		.align	2
 1455              	.LC3:
 1456 0030 43414E00 		.ascii	"CAN\000"
 1457              		.section	.rodata.CAN_attributes,"a"
 1458              		.align	2
 1461              	CAN_attributes:
 1462 0000 30000000 		.word	.LC3
 1463 0004 00000000 		.space	12
 1463      00000000 
 1463      00000000 
ARM GAS  C:\Users\Ali\AppData\Local\Temp\cc8gb0JI.s 			page 53


 1464              		.global	CANHandle
 1465              		.section	.bss.CANHandle,"aw",%nobits
 1466              		.align	2
 1469              	CANHandle:
 1470 0000 00000000 		.space	4
 1471              		.global	I2C3_attributes
 1472              		.section	.rodata.str1.4
 1473              		.align	2
 1474              	.LC4:
 1475 0034 49324333 		.ascii	"I2C3\000"
 1475      00
 1476              		.section	.rodata.I2C3_attributes,"a"
 1477              		.align	2
 1480              	I2C3_attributes:
 1481 0000 34000000 		.word	.LC4
 1482 0004 00000000 		.space	12
 1482      00000000 
 1482      00000000 
 1483              		.global	I2C3Handle
 1484              		.section	.bss.I2C3Handle,"aw",%nobits
 1485              		.align	2
 1488              	I2C3Handle:
 1489 0000 00000000 		.space	4
 1490              		.global	I2C1_attributes
 1491              		.section	.rodata.str1.4
 1492 0039 000000   		.align	2
 1493              	.LC5:
 1494 003c 49324331 		.ascii	"I2C1\000"
 1494      00
 1495              		.section	.rodata.I2C1_attributes,"a"
 1496              		.align	2
 1499              	I2C1_attributes:
 1500 0000 3C000000 		.word	.LC5
 1501 0004 00000000 		.space	12
 1501      00000000 
 1501      00000000 
 1502              		.global	I2C1Handle
 1503              		.section	.bss.I2C1Handle,"aw",%nobits
 1504              		.align	2
 1507              	I2C1Handle:
 1508 0000 00000000 		.space	4
 1509              		.global	CANManager_attributes
 1510              		.section	.rodata.str1.4
 1511 0041 000000   		.align	2
 1512              	.LC6:
 1513 0044 43414E4D 		.ascii	"CANManager\000"
 1513      616E6167 
 1513      657200
 1514              		.section	.rodata.CANManager_attributes,"a"
 1515              		.align	2
 1518              	CANManager_attributes:
 1519 0000 44000000 		.word	.LC6
 1520 0004 00000000 		.space	16
 1520      00000000 
 1520      00000000 
 1520      00000000 
 1521 0014 00040000 		.word	1024
ARM GAS  C:\Users\Ali\AppData\Local\Temp\cc8gb0JI.s 			page 54


 1522 0018 30000000 		.word	48
 1523 001c 00000000 		.space	8
 1523      00000000 
 1524              		.global	CANManagerHandle
 1525              		.section	.bss.CANManagerHandle,"aw",%nobits
 1526              		.align	2
 1529              	CANManagerHandle:
 1530 0000 00000000 		.space	4
 1531              		.global	CellTemperature_attributes
 1532              		.section	.rodata.str1.4
 1533 004f 00       		.align	2
 1534              	.LC7:
 1535 0050 43656C6C 		.ascii	"CellTemperature\000"
 1535      54656D70 
 1535      65726174 
 1535      75726500 
 1536              		.section	.rodata.CellTemperature_attributes,"a"
 1537              		.align	2
 1540              	CellTemperature_attributes:
 1541 0000 50000000 		.word	.LC7
 1542 0004 00000000 		.space	16
 1542      00000000 
 1542      00000000 
 1542      00000000 
 1543 0014 00020000 		.word	512
 1544 0018 28000000 		.word	40
 1545 001c 00000000 		.space	8
 1545      00000000 
 1546              		.global	CellTemperatureHandle
 1547              		.section	.bss.CellTemperatureHandle,"aw",%nobits
 1548              		.align	2
 1551              	CellTemperatureHandle:
 1552 0000 00000000 		.space	4
 1553              		.global	CellVoltageBMS2_attributes
 1554              		.section	.rodata.str1.4
 1555              		.align	2
 1556              	.LC8:
 1557 0060 43656C6C 		.ascii	"CellVoltageBMS2\000"
 1557      566F6C74 
 1557      61676542 
 1557      4D533200 
 1558              		.section	.rodata.CellVoltageBMS2_attributes,"a"
 1559              		.align	2
 1562              	CellVoltageBMS2_attributes:
 1563 0000 60000000 		.word	.LC8
 1564 0004 00000000 		.space	16
 1564      00000000 
 1564      00000000 
 1564      00000000 
 1565 0014 00020000 		.word	512
 1566 0018 28000000 		.word	40
 1567 001c 00000000 		.space	8
 1567      00000000 
 1568              		.global	CellVoltageBMS2Handle
 1569              		.section	.bss.CellVoltageBMS2Handle,"aw",%nobits
 1570              		.align	2
 1573              	CellVoltageBMS2Handle:
ARM GAS  C:\Users\Ali\AppData\Local\Temp\cc8gb0JI.s 			page 55


 1574 0000 00000000 		.space	4
 1575              		.global	CellVoltageBMS1_attributes
 1576              		.section	.rodata.str1.4
 1577              		.align	2
 1578              	.LC9:
 1579 0070 43656C6C 		.ascii	"CellVoltageBMS1\000"
 1579      566F6C74 
 1579      61676542 
 1579      4D533100 
 1580              		.section	.rodata.CellVoltageBMS1_attributes,"a"
 1581              		.align	2
 1584              	CellVoltageBMS1_attributes:
 1585 0000 70000000 		.word	.LC9
 1586 0004 00000000 		.space	16
 1586      00000000 
 1586      00000000 
 1586      00000000 
 1587 0014 00020000 		.word	512
 1588 0018 28000000 		.word	40
 1589 001c 00000000 		.space	8
 1589      00000000 
 1590              		.global	CellVoltageBMS1Handle
 1591              		.section	.bss.CellVoltageBMS1Handle,"aw",%nobits
 1592              		.align	2
 1595              	CellVoltageBMS1Handle:
 1596 0000 00000000 		.space	4
 1597              		.global	defaultTask_attributes
 1598              		.section	.rodata.str1.4
 1599              		.align	2
 1600              	.LC10:
 1601 0080 64656661 		.ascii	"defaultTask\000"
 1601      756C7454 
 1601      61736B00 
 1602              		.section	.rodata.defaultTask_attributes,"a"
 1603              		.align	2
 1606              	defaultTask_attributes:
 1607 0000 80000000 		.word	.LC10
 1608 0004 00000000 		.space	16
 1608      00000000 
 1608      00000000 
 1608      00000000 
 1609 0014 00020000 		.word	512
 1610 0018 18000000 		.word	24
 1611 001c 00000000 		.space	8
 1611      00000000 
 1612              		.global	defaultTaskHandle
 1613              		.section	.bss.defaultTaskHandle,"aw",%nobits
 1614              		.align	2
 1617              	defaultTaskHandle:
 1618 0000 00000000 		.space	4
 1619              		.global	hi2c3
 1620              		.section	.bss.hi2c3,"aw",%nobits
 1621              		.align	2
 1624              	hi2c3:
 1625 0000 00000000 		.space	84
 1625      00000000 
 1625      00000000 
ARM GAS  C:\Users\Ali\AppData\Local\Temp\cc8gb0JI.s 			page 56


 1625      00000000 
 1625      00000000 
 1626              		.global	hi2c1
 1627              		.section	.bss.hi2c1,"aw",%nobits
 1628              		.align	2
 1631              	hi2c1:
 1632 0000 00000000 		.space	84
 1632      00000000 
 1632      00000000 
 1632      00000000 
 1632      00000000 
 1633              		.global	hcrc
 1634              		.section	.bss.hcrc,"aw",%nobits
 1635              		.align	2
 1638              	hcrc:
 1639 0000 00000000 		.space	36
 1639      00000000 
 1639      00000000 
 1639      00000000 
 1639      00000000 
 1640              		.global	hcan1
 1641              		.section	.bss.hcan1,"aw",%nobits
 1642              		.align	2
 1645              	hcan1:
 1646 0000 00000000 		.space	40
 1646      00000000 
 1646      00000000 
 1646      00000000 
 1646      00000000 
 1647              		.global	hadc1
 1648              		.section	.bss.hadc1,"aw",%nobits
 1649              		.align	2
 1652              	hadc1:
 1653 0000 00000000 		.space	100
 1653      00000000 
 1653      00000000 
 1653      00000000 
 1653      00000000 
 1654              		.text
 1655              	.Letext0:
 1656              		.file 4 "C:/Users/Ali/AppData/Roaming/Code/User/globalStorage/bmd.stm32-for-vscode/@xpack-dev-tool
 1657              		.file 5 "C:/Users/Ali/AppData/Roaming/Code/User/globalStorage/bmd.stm32-for-vscode/@xpack-dev-tool
 1658              		.file 6 "Drivers/CMSIS/Include/core_cm4.h"
 1659              		.file 7 "Drivers/CMSIS/Device/ST/STM32L4xx/Include/stm32l432xx.h"
 1660              		.file 8 "Drivers/CMSIS/Device/ST/STM32L4xx/Include/stm32l4xx.h"
 1661              		.file 9 "Drivers/STM32L4xx_HAL_Driver/Inc/stm32l4xx_hal_def.h"
 1662              		.file 10 "Drivers/STM32L4xx_HAL_Driver/Inc/stm32l4xx_hal_rcc.h"
 1663              		.file 11 "Drivers/STM32L4xx_HAL_Driver/Inc/stm32l4xx_hal_gpio.h"
 1664              		.file 12 "Drivers/STM32L4xx_HAL_Driver/Inc/stm32l4xx_hal_dma.h"
 1665              		.file 13 "Drivers/STM32L4xx_HAL_Driver/Inc/stm32l4xx_hal_adc.h"
 1666              		.file 14 "Drivers/STM32L4xx_HAL_Driver/Inc/stm32l4xx_hal_can.h"
 1667              		.file 15 "Drivers/STM32L4xx_HAL_Driver/Inc/stm32l4xx_hal_crc.h"
 1668              		.file 16 "Drivers/STM32L4xx_HAL_Driver/Inc/stm32l4xx_hal_i2c.h"
 1669              		.file 17 "Drivers/STM32L4xx_HAL_Driver/Inc/stm32l4xx_hal_tim.h"
 1670              		.file 18 "Middlewares/Third_Party/FreeRTOS/Source/CMSIS_RTOS_V2/cmsis_os2.h"
 1671              		.file 19 "Core/Inc/main.h"
 1672              		.file 20 "Core/Inc/cell_temp_handler.h"
ARM GAS  C:\Users\Ali\AppData\Local\Temp\cc8gb0JI.s 			page 57


 1673              		.file 21 "Core/Inc/bq_handler.h"
 1674              		.file 22 "Core/Inc/error_manager.h"
 1675              		.file 23 "Drivers/STM32L4xx_HAL_Driver/Inc/stm32l4xx_hal_pwr_ex.h"
 1676              		.file 24 "Drivers/STM32L4xx_HAL_Driver/Inc/stm32l4xx_hal_i2c_ex.h"
 1677              		.file 25 "Core/Inc/can_manager.h"
 1678              		.file 26 "Drivers/STM32L4xx_HAL_Driver/Inc/stm32l4xx_hal.h"
 1679              		.file 27 "Core/Inc/config_manager.h"
 1680              		.file 28 "Drivers/STM32L4xx_HAL_Driver/Inc/stm32l4xx_hal_adc_ex.h"
 1681              		.file 29 "<built-in>"
ARM GAS  C:\Users\Ali\AppData\Local\Temp\cc8gb0JI.s 			page 58

