ARM GAS  C:\Users\Ali\AppData\Local\Temp\ccZI0QsI.s 			page 1


   1              		.cpu cortex-m4
   2              		.arch armv7e-m
   3              		.fpu fpv4-sp-d16
   4              		.eabi_attribute 27, 1
   5              		.eabi_attribute 28, 1
   6              		.eabi_attribute 20, 1
   7              		.eabi_attribute 21, 1
   8              		.eabi_attribute 23, 3
   9              		.eabi_attribute 24, 1
  10              		.eabi_attribute 25, 1
  11              		.eabi_attribute 26, 1
  12              		.eabi_attribute 30, 1
  13              		.eabi_attribute 34, 1
  14              		.eabi_attribute 18, 4
  15              		.file	"stm32l4xx_hal_msp.c"
  16              		.text
  17              	.Ltext0:
  18              		.cfi_sections	.debug_frame
  19              		.file 1 "Core/Src/stm32l4xx_hal_msp.c"
  20              		.section	.text.HAL_MspInit,"ax",%progbits
  21              		.align	1
  22              		.global	HAL_MspInit
  23              		.syntax unified
  24              		.thumb
  25              		.thumb_func
  27              	HAL_MspInit:
  28              	.LFB292:
   1:Core/Src/stm32l4xx_hal_msp.c **** /* USER CODE BEGIN Header */
   2:Core/Src/stm32l4xx_hal_msp.c **** /**
   3:Core/Src/stm32l4xx_hal_msp.c ****   ******************************************************************************
   4:Core/Src/stm32l4xx_hal_msp.c ****   * @file         stm32l4xx_hal_msp.c
   5:Core/Src/stm32l4xx_hal_msp.c ****   * @brief        This file provides code for the MSP Initialization
   6:Core/Src/stm32l4xx_hal_msp.c ****   *               and de-Initialization codes.
   7:Core/Src/stm32l4xx_hal_msp.c ****   ******************************************************************************
   8:Core/Src/stm32l4xx_hal_msp.c ****   * @attention
   9:Core/Src/stm32l4xx_hal_msp.c ****   *
  10:Core/Src/stm32l4xx_hal_msp.c ****   * Copyright (c) 2025 STMicroelectronics.
  11:Core/Src/stm32l4xx_hal_msp.c ****   * All rights reserved.
  12:Core/Src/stm32l4xx_hal_msp.c ****   *
  13:Core/Src/stm32l4xx_hal_msp.c ****   * This software is licensed under terms that can be found in the LICENSE file
  14:Core/Src/stm32l4xx_hal_msp.c ****   * in the root directory of this software component.
  15:Core/Src/stm32l4xx_hal_msp.c ****   * If no LICENSE file comes with this software, it is provided AS-IS.
  16:Core/Src/stm32l4xx_hal_msp.c ****   *
  17:Core/Src/stm32l4xx_hal_msp.c ****   ******************************************************************************
  18:Core/Src/stm32l4xx_hal_msp.c ****   */
  19:Core/Src/stm32l4xx_hal_msp.c **** /* USER CODE END Header */
  20:Core/Src/stm32l4xx_hal_msp.c **** 
  21:Core/Src/stm32l4xx_hal_msp.c **** /* Includes ------------------------------------------------------------------*/
  22:Core/Src/stm32l4xx_hal_msp.c **** #include "main.h"
  23:Core/Src/stm32l4xx_hal_msp.c **** /* USER CODE BEGIN Includes */
  24:Core/Src/stm32l4xx_hal_msp.c **** 
  25:Core/Src/stm32l4xx_hal_msp.c **** /* USER CODE END Includes */
  26:Core/Src/stm32l4xx_hal_msp.c **** 
  27:Core/Src/stm32l4xx_hal_msp.c **** /* Private typedef -----------------------------------------------------------*/
  28:Core/Src/stm32l4xx_hal_msp.c **** /* USER CODE BEGIN TD */
  29:Core/Src/stm32l4xx_hal_msp.c **** 
  30:Core/Src/stm32l4xx_hal_msp.c **** /* USER CODE END TD */
ARM GAS  C:\Users\Ali\AppData\Local\Temp\ccZI0QsI.s 			page 2


  31:Core/Src/stm32l4xx_hal_msp.c **** 
  32:Core/Src/stm32l4xx_hal_msp.c **** /* Private define ------------------------------------------------------------*/
  33:Core/Src/stm32l4xx_hal_msp.c **** /* USER CODE BEGIN Define */
  34:Core/Src/stm32l4xx_hal_msp.c **** 
  35:Core/Src/stm32l4xx_hal_msp.c **** /* USER CODE END Define */
  36:Core/Src/stm32l4xx_hal_msp.c **** 
  37:Core/Src/stm32l4xx_hal_msp.c **** /* Private macro -------------------------------------------------------------*/
  38:Core/Src/stm32l4xx_hal_msp.c **** /* USER CODE BEGIN Macro */
  39:Core/Src/stm32l4xx_hal_msp.c **** 
  40:Core/Src/stm32l4xx_hal_msp.c **** /* USER CODE END Macro */
  41:Core/Src/stm32l4xx_hal_msp.c **** 
  42:Core/Src/stm32l4xx_hal_msp.c **** /* Private variables ---------------------------------------------------------*/
  43:Core/Src/stm32l4xx_hal_msp.c **** /* USER CODE BEGIN PV */
  44:Core/Src/stm32l4xx_hal_msp.c **** 
  45:Core/Src/stm32l4xx_hal_msp.c **** /* USER CODE END PV */
  46:Core/Src/stm32l4xx_hal_msp.c **** 
  47:Core/Src/stm32l4xx_hal_msp.c **** /* Private function prototypes -----------------------------------------------*/
  48:Core/Src/stm32l4xx_hal_msp.c **** /* USER CODE BEGIN PFP */
  49:Core/Src/stm32l4xx_hal_msp.c **** 
  50:Core/Src/stm32l4xx_hal_msp.c **** /* USER CODE END PFP */
  51:Core/Src/stm32l4xx_hal_msp.c **** 
  52:Core/Src/stm32l4xx_hal_msp.c **** /* External functions --------------------------------------------------------*/
  53:Core/Src/stm32l4xx_hal_msp.c **** /* USER CODE BEGIN ExternalFunctions */
  54:Core/Src/stm32l4xx_hal_msp.c **** 
  55:Core/Src/stm32l4xx_hal_msp.c **** /* USER CODE END ExternalFunctions */
  56:Core/Src/stm32l4xx_hal_msp.c **** 
  57:Core/Src/stm32l4xx_hal_msp.c **** /* USER CODE BEGIN 0 */
  58:Core/Src/stm32l4xx_hal_msp.c **** 
  59:Core/Src/stm32l4xx_hal_msp.c **** /* USER CODE END 0 */
  60:Core/Src/stm32l4xx_hal_msp.c **** /**
  61:Core/Src/stm32l4xx_hal_msp.c ****   * Initializes the Global MSP.
  62:Core/Src/stm32l4xx_hal_msp.c ****   */
  63:Core/Src/stm32l4xx_hal_msp.c **** void HAL_MspInit(void)
  64:Core/Src/stm32l4xx_hal_msp.c **** {
  29              		.loc 1 64 1 view -0
  30              		.cfi_startproc
  31              		@ args = 0, pretend = 0, frame = 8
  32              		@ frame_needed = 0, uses_anonymous_args = 0
  33 0000 00B5     		push	{lr}
  34              		.cfi_def_cfa_offset 4
  35              		.cfi_offset 14, -4
  36 0002 83B0     		sub	sp, sp, #12
  37              		.cfi_def_cfa_offset 16
  65:Core/Src/stm32l4xx_hal_msp.c **** 
  66:Core/Src/stm32l4xx_hal_msp.c ****   /* USER CODE BEGIN MspInit 0 */
  67:Core/Src/stm32l4xx_hal_msp.c **** 
  68:Core/Src/stm32l4xx_hal_msp.c ****   /* USER CODE END MspInit 0 */
  69:Core/Src/stm32l4xx_hal_msp.c **** 
  70:Core/Src/stm32l4xx_hal_msp.c ****   __HAL_RCC_SYSCFG_CLK_ENABLE();
  38              		.loc 1 70 3 view .LVU1
  39              	.LBB2:
  40              		.loc 1 70 3 view .LVU2
  41              		.loc 1 70 3 view .LVU3
  42 0004 0D4B     		ldr	r3, .L3
  43 0006 1A6E     		ldr	r2, [r3, #96]
  44 0008 42F00102 		orr	r2, r2, #1
  45 000c 1A66     		str	r2, [r3, #96]
ARM GAS  C:\Users\Ali\AppData\Local\Temp\ccZI0QsI.s 			page 3


  46              		.loc 1 70 3 view .LVU4
  47 000e 1A6E     		ldr	r2, [r3, #96]
  48 0010 02F00102 		and	r2, r2, #1
  49 0014 0092     		str	r2, [sp]
  50              		.loc 1 70 3 view .LVU5
  51 0016 009A     		ldr	r2, [sp]
  52              	.LBE2:
  53              		.loc 1 70 3 view .LVU6
  71:Core/Src/stm32l4xx_hal_msp.c ****   __HAL_RCC_PWR_CLK_ENABLE();
  54              		.loc 1 71 3 view .LVU7
  55              	.LBB3:
  56              		.loc 1 71 3 view .LVU8
  57              		.loc 1 71 3 view .LVU9
  58 0018 9A6D     		ldr	r2, [r3, #88]
  59 001a 42F08052 		orr	r2, r2, #268435456
  60 001e 9A65     		str	r2, [r3, #88]
  61              		.loc 1 71 3 view .LVU10
  62 0020 9B6D     		ldr	r3, [r3, #88]
  63 0022 03F08053 		and	r3, r3, #268435456
  64 0026 0193     		str	r3, [sp, #4]
  65              		.loc 1 71 3 view .LVU11
  66 0028 019B     		ldr	r3, [sp, #4]
  67              	.LBE3:
  68              		.loc 1 71 3 view .LVU12
  72:Core/Src/stm32l4xx_hal_msp.c **** 
  73:Core/Src/stm32l4xx_hal_msp.c ****   /* System interrupt init*/
  74:Core/Src/stm32l4xx_hal_msp.c ****   /* PendSV_IRQn interrupt configuration */
  75:Core/Src/stm32l4xx_hal_msp.c ****   HAL_NVIC_SetPriority(PendSV_IRQn, 15, 0);
  69              		.loc 1 75 3 view .LVU13
  70 002a 0022     		movs	r2, #0
  71 002c 0F21     		movs	r1, #15
  72 002e 6FF00100 		mvn	r0, #1
  73 0032 FFF7FEFF 		bl	HAL_NVIC_SetPriority
  74              	.LVL0:
  76:Core/Src/stm32l4xx_hal_msp.c **** 
  77:Core/Src/stm32l4xx_hal_msp.c ****   /* USER CODE BEGIN MspInit 1 */
  78:Core/Src/stm32l4xx_hal_msp.c **** 
  79:Core/Src/stm32l4xx_hal_msp.c ****   /* USER CODE END MspInit 1 */
  80:Core/Src/stm32l4xx_hal_msp.c **** }
  75              		.loc 1 80 1 is_stmt 0 view .LVU14
  76 0036 03B0     		add	sp, sp, #12
  77              		.cfi_def_cfa_offset 4
  78              		@ sp needed
  79 0038 5DF804FB 		ldr	pc, [sp], #4
  80              	.L4:
  81              		.align	2
  82              	.L3:
  83 003c 00100240 		.word	1073876992
  84              		.cfi_endproc
  85              	.LFE292:
  87              		.section	.text.HAL_ADC_MspInit,"ax",%progbits
  88              		.align	1
  89              		.global	HAL_ADC_MspInit
  90              		.syntax unified
  91              		.thumb
  92              		.thumb_func
  94              	HAL_ADC_MspInit:
ARM GAS  C:\Users\Ali\AppData\Local\Temp\ccZI0QsI.s 			page 4


  95              	.LVL1:
  96              	.LFB293:
  81:Core/Src/stm32l4xx_hal_msp.c **** 
  82:Core/Src/stm32l4xx_hal_msp.c **** /**
  83:Core/Src/stm32l4xx_hal_msp.c ****   * @brief ADC MSP Initialization
  84:Core/Src/stm32l4xx_hal_msp.c ****   * This function configures the hardware resources used in this example
  85:Core/Src/stm32l4xx_hal_msp.c ****   * @param hadc: ADC handle pointer
  86:Core/Src/stm32l4xx_hal_msp.c ****   * @retval None
  87:Core/Src/stm32l4xx_hal_msp.c ****   */
  88:Core/Src/stm32l4xx_hal_msp.c **** void HAL_ADC_MspInit(ADC_HandleTypeDef* hadc)
  89:Core/Src/stm32l4xx_hal_msp.c **** {
  97              		.loc 1 89 1 is_stmt 1 view -0
  98              		.cfi_startproc
  99              		@ args = 0, pretend = 0, frame = 120
 100              		@ frame_needed = 0, uses_anonymous_args = 0
 101              		.loc 1 89 1 is_stmt 0 view .LVU16
 102 0000 70B5     		push	{r4, r5, r6, lr}
 103              		.cfi_def_cfa_offset 16
 104              		.cfi_offset 4, -16
 105              		.cfi_offset 5, -12
 106              		.cfi_offset 6, -8
 107              		.cfi_offset 14, -4
 108 0002 9EB0     		sub	sp, sp, #120
 109              		.cfi_def_cfa_offset 136
 110 0004 0446     		mov	r4, r0
  90:Core/Src/stm32l4xx_hal_msp.c ****   GPIO_InitTypeDef GPIO_InitStruct = {0};
 111              		.loc 1 90 3 is_stmt 1 view .LVU17
 112              		.loc 1 90 20 is_stmt 0 view .LVU18
 113 0006 0021     		movs	r1, #0
 114 0008 1991     		str	r1, [sp, #100]
 115 000a 1A91     		str	r1, [sp, #104]
 116 000c 1B91     		str	r1, [sp, #108]
 117 000e 1C91     		str	r1, [sp, #112]
 118 0010 1D91     		str	r1, [sp, #116]
  91:Core/Src/stm32l4xx_hal_msp.c ****   RCC_PeriphCLKInitTypeDef PeriphClkInit = {0};
 119              		.loc 1 91 3 is_stmt 1 view .LVU19
 120              		.loc 1 91 28 is_stmt 0 view .LVU20
 121 0012 5422     		movs	r2, #84
 122 0014 04A8     		add	r0, sp, #16
 123              	.LVL2:
 124              		.loc 1 91 28 view .LVU21
 125 0016 FFF7FEFF 		bl	memset
 126              	.LVL3:
  92:Core/Src/stm32l4xx_hal_msp.c ****   if(hadc->Instance==ADC1)
 127              		.loc 1 92 3 is_stmt 1 view .LVU22
 128              		.loc 1 92 10 is_stmt 0 view .LVU23
 129 001a 2268     		ldr	r2, [r4]
 130              		.loc 1 92 5 view .LVU24
 131 001c 274B     		ldr	r3, .L11
 132 001e 9A42     		cmp	r2, r3
 133 0020 01D0     		beq	.L9
 134              	.LVL4:
 135              	.L5:
  93:Core/Src/stm32l4xx_hal_msp.c ****   {
  94:Core/Src/stm32l4xx_hal_msp.c ****     /* USER CODE BEGIN ADC1_MspInit 0 */
  95:Core/Src/stm32l4xx_hal_msp.c **** 
  96:Core/Src/stm32l4xx_hal_msp.c ****     /* USER CODE END ADC1_MspInit 0 */
ARM GAS  C:\Users\Ali\AppData\Local\Temp\ccZI0QsI.s 			page 5


  97:Core/Src/stm32l4xx_hal_msp.c **** 
  98:Core/Src/stm32l4xx_hal_msp.c ****   /** Initializes the peripherals clock
  99:Core/Src/stm32l4xx_hal_msp.c ****   */
 100:Core/Src/stm32l4xx_hal_msp.c ****     PeriphClkInit.PeriphClockSelection = RCC_PERIPHCLK_ADC;
 101:Core/Src/stm32l4xx_hal_msp.c ****     PeriphClkInit.AdcClockSelection = RCC_ADCCLKSOURCE_PLLSAI1;
 102:Core/Src/stm32l4xx_hal_msp.c ****     PeriphClkInit.PLLSAI1.PLLSAI1Source = RCC_PLLSOURCE_HSI;
 103:Core/Src/stm32l4xx_hal_msp.c ****     PeriphClkInit.PLLSAI1.PLLSAI1M = 2;
 104:Core/Src/stm32l4xx_hal_msp.c ****     PeriphClkInit.PLLSAI1.PLLSAI1N = 8;
 105:Core/Src/stm32l4xx_hal_msp.c ****     PeriphClkInit.PLLSAI1.PLLSAI1P = RCC_PLLP_DIV7;
 106:Core/Src/stm32l4xx_hal_msp.c ****     PeriphClkInit.PLLSAI1.PLLSAI1Q = RCC_PLLQ_DIV2;
 107:Core/Src/stm32l4xx_hal_msp.c ****     PeriphClkInit.PLLSAI1.PLLSAI1R = RCC_PLLR_DIV2;
 108:Core/Src/stm32l4xx_hal_msp.c ****     PeriphClkInit.PLLSAI1.PLLSAI1ClockOut = RCC_PLLSAI1_ADC1CLK;
 109:Core/Src/stm32l4xx_hal_msp.c ****     if (HAL_RCCEx_PeriphCLKConfig(&PeriphClkInit) != HAL_OK)
 110:Core/Src/stm32l4xx_hal_msp.c ****     {
 111:Core/Src/stm32l4xx_hal_msp.c ****       Error_Handler();
 112:Core/Src/stm32l4xx_hal_msp.c ****     }
 113:Core/Src/stm32l4xx_hal_msp.c **** 
 114:Core/Src/stm32l4xx_hal_msp.c ****     /* Peripheral clock enable */
 115:Core/Src/stm32l4xx_hal_msp.c ****     __HAL_RCC_ADC_CLK_ENABLE();
 116:Core/Src/stm32l4xx_hal_msp.c **** 
 117:Core/Src/stm32l4xx_hal_msp.c ****     __HAL_RCC_GPIOA_CLK_ENABLE();
 118:Core/Src/stm32l4xx_hal_msp.c ****     __HAL_RCC_GPIOB_CLK_ENABLE();
 119:Core/Src/stm32l4xx_hal_msp.c ****     /**ADC1 GPIO Configuration
 120:Core/Src/stm32l4xx_hal_msp.c ****     PA0     ------> ADC1_IN5
 121:Core/Src/stm32l4xx_hal_msp.c ****     PA1     ------> ADC1_IN6
 122:Core/Src/stm32l4xx_hal_msp.c ****     PA3     ------> ADC1_IN8
 123:Core/Src/stm32l4xx_hal_msp.c ****     PA4     ------> ADC1_IN9
 124:Core/Src/stm32l4xx_hal_msp.c ****     PA5     ------> ADC1_IN10
 125:Core/Src/stm32l4xx_hal_msp.c ****     PA6     ------> ADC1_IN11
 126:Core/Src/stm32l4xx_hal_msp.c ****     PB0     ------> ADC1_IN15
 127:Core/Src/stm32l4xx_hal_msp.c ****     */
 128:Core/Src/stm32l4xx_hal_msp.c ****     GPIO_InitStruct.Pin = ADC1_Pin|ADC2_Pin|ADC4_Pin|ADC5_Pin
 129:Core/Src/stm32l4xx_hal_msp.c ****                           |ADC6_Pin|ADC3_Pin;
 130:Core/Src/stm32l4xx_hal_msp.c ****     GPIO_InitStruct.Mode = GPIO_MODE_ANALOG_ADC_CONTROL;
 131:Core/Src/stm32l4xx_hal_msp.c ****     GPIO_InitStruct.Pull = GPIO_NOPULL;
 132:Core/Src/stm32l4xx_hal_msp.c ****     HAL_GPIO_Init(GPIOA, &GPIO_InitStruct);
 133:Core/Src/stm32l4xx_hal_msp.c **** 
 134:Core/Src/stm32l4xx_hal_msp.c ****     GPIO_InitStruct.Pin = ADC7_Pin;
 135:Core/Src/stm32l4xx_hal_msp.c ****     GPIO_InitStruct.Mode = GPIO_MODE_ANALOG_ADC_CONTROL;
 136:Core/Src/stm32l4xx_hal_msp.c ****     GPIO_InitStruct.Pull = GPIO_NOPULL;
 137:Core/Src/stm32l4xx_hal_msp.c ****     HAL_GPIO_Init(ADC7_GPIO_Port, &GPIO_InitStruct);
 138:Core/Src/stm32l4xx_hal_msp.c **** 
 139:Core/Src/stm32l4xx_hal_msp.c ****     /* USER CODE BEGIN ADC1_MspInit 1 */
 140:Core/Src/stm32l4xx_hal_msp.c **** 
 141:Core/Src/stm32l4xx_hal_msp.c ****     /* USER CODE END ADC1_MspInit 1 */
 142:Core/Src/stm32l4xx_hal_msp.c **** 
 143:Core/Src/stm32l4xx_hal_msp.c ****   }
 144:Core/Src/stm32l4xx_hal_msp.c **** 
 145:Core/Src/stm32l4xx_hal_msp.c **** }
 136              		.loc 1 145 1 view .LVU25
 137 0022 1EB0     		add	sp, sp, #120
 138              		.cfi_remember_state
 139              		.cfi_def_cfa_offset 16
 140              		@ sp needed
 141 0024 70BD     		pop	{r4, r5, r6, pc}
 142              	.LVL5:
 143              	.L9:
ARM GAS  C:\Users\Ali\AppData\Local\Temp\ccZI0QsI.s 			page 6


 144              		.cfi_restore_state
 100:Core/Src/stm32l4xx_hal_msp.c ****     PeriphClkInit.AdcClockSelection = RCC_ADCCLKSOURCE_PLLSAI1;
 145              		.loc 1 100 5 is_stmt 1 view .LVU26
 100:Core/Src/stm32l4xx_hal_msp.c ****     PeriphClkInit.AdcClockSelection = RCC_ADCCLKSOURCE_PLLSAI1;
 146              		.loc 1 100 40 is_stmt 0 view .LVU27
 147 0026 4FF48043 		mov	r3, #16384
 148 002a 0493     		str	r3, [sp, #16]
 101:Core/Src/stm32l4xx_hal_msp.c ****     PeriphClkInit.PLLSAI1.PLLSAI1Source = RCC_PLLSOURCE_HSI;
 149              		.loc 1 101 5 is_stmt 1 view .LVU28
 101:Core/Src/stm32l4xx_hal_msp.c ****     PeriphClkInit.PLLSAI1.PLLSAI1Source = RCC_PLLSOURCE_HSI;
 150              		.loc 1 101 37 is_stmt 0 view .LVU29
 151 002c 4FF08053 		mov	r3, #268435456
 152 0030 1693     		str	r3, [sp, #88]
 102:Core/Src/stm32l4xx_hal_msp.c ****     PeriphClkInit.PLLSAI1.PLLSAI1M = 2;
 153              		.loc 1 102 5 is_stmt 1 view .LVU30
 102:Core/Src/stm32l4xx_hal_msp.c ****     PeriphClkInit.PLLSAI1.PLLSAI1M = 2;
 154              		.loc 1 102 41 is_stmt 0 view .LVU31
 155 0032 0223     		movs	r3, #2
 156 0034 0593     		str	r3, [sp, #20]
 103:Core/Src/stm32l4xx_hal_msp.c ****     PeriphClkInit.PLLSAI1.PLLSAI1N = 8;
 157              		.loc 1 103 5 is_stmt 1 view .LVU32
 103:Core/Src/stm32l4xx_hal_msp.c ****     PeriphClkInit.PLLSAI1.PLLSAI1N = 8;
 158              		.loc 1 103 36 is_stmt 0 view .LVU33
 159 0036 0693     		str	r3, [sp, #24]
 104:Core/Src/stm32l4xx_hal_msp.c ****     PeriphClkInit.PLLSAI1.PLLSAI1P = RCC_PLLP_DIV7;
 160              		.loc 1 104 5 is_stmt 1 view .LVU34
 104:Core/Src/stm32l4xx_hal_msp.c ****     PeriphClkInit.PLLSAI1.PLLSAI1P = RCC_PLLP_DIV7;
 161              		.loc 1 104 36 is_stmt 0 view .LVU35
 162 0038 0822     		movs	r2, #8
 163 003a 0792     		str	r2, [sp, #28]
 105:Core/Src/stm32l4xx_hal_msp.c ****     PeriphClkInit.PLLSAI1.PLLSAI1Q = RCC_PLLQ_DIV2;
 164              		.loc 1 105 5 is_stmt 1 view .LVU36
 105:Core/Src/stm32l4xx_hal_msp.c ****     PeriphClkInit.PLLSAI1.PLLSAI1Q = RCC_PLLQ_DIV2;
 165              		.loc 1 105 36 is_stmt 0 view .LVU37
 166 003c 0722     		movs	r2, #7
 167 003e 0892     		str	r2, [sp, #32]
 106:Core/Src/stm32l4xx_hal_msp.c ****     PeriphClkInit.PLLSAI1.PLLSAI1R = RCC_PLLR_DIV2;
 168              		.loc 1 106 5 is_stmt 1 view .LVU38
 106:Core/Src/stm32l4xx_hal_msp.c ****     PeriphClkInit.PLLSAI1.PLLSAI1R = RCC_PLLR_DIV2;
 169              		.loc 1 106 36 is_stmt 0 view .LVU39
 170 0040 0993     		str	r3, [sp, #36]
 107:Core/Src/stm32l4xx_hal_msp.c ****     PeriphClkInit.PLLSAI1.PLLSAI1ClockOut = RCC_PLLSAI1_ADC1CLK;
 171              		.loc 1 107 5 is_stmt 1 view .LVU40
 107:Core/Src/stm32l4xx_hal_msp.c ****     PeriphClkInit.PLLSAI1.PLLSAI1ClockOut = RCC_PLLSAI1_ADC1CLK;
 172              		.loc 1 107 36 is_stmt 0 view .LVU41
 173 0042 0A93     		str	r3, [sp, #40]
 108:Core/Src/stm32l4xx_hal_msp.c ****     if (HAL_RCCEx_PeriphCLKConfig(&PeriphClkInit) != HAL_OK)
 174              		.loc 1 108 5 is_stmt 1 view .LVU42
 108:Core/Src/stm32l4xx_hal_msp.c ****     if (HAL_RCCEx_PeriphCLKConfig(&PeriphClkInit) != HAL_OK)
 175              		.loc 1 108 43 is_stmt 0 view .LVU43
 176 0044 4FF08073 		mov	r3, #16777216
 177 0048 0B93     		str	r3, [sp, #44]
 109:Core/Src/stm32l4xx_hal_msp.c ****     {
 178              		.loc 1 109 5 is_stmt 1 view .LVU44
 109:Core/Src/stm32l4xx_hal_msp.c ****     {
 179              		.loc 1 109 9 is_stmt 0 view .LVU45
 180 004a 04A8     		add	r0, sp, #16
ARM GAS  C:\Users\Ali\AppData\Local\Temp\ccZI0QsI.s 			page 7


 181 004c FFF7FEFF 		bl	HAL_RCCEx_PeriphCLKConfig
 182              	.LVL6:
 109:Core/Src/stm32l4xx_hal_msp.c ****     {
 183              		.loc 1 109 8 discriminator 1 view .LVU46
 184 0050 0028     		cmp	r0, #0
 185 0052 30D1     		bne	.L10
 186              	.L7:
 115:Core/Src/stm32l4xx_hal_msp.c **** 
 187              		.loc 1 115 5 is_stmt 1 view .LVU47
 188              	.LBB4:
 115:Core/Src/stm32l4xx_hal_msp.c **** 
 189              		.loc 1 115 5 view .LVU48
 115:Core/Src/stm32l4xx_hal_msp.c **** 
 190              		.loc 1 115 5 view .LVU49
 191 0054 1A4B     		ldr	r3, .L11+4
 192 0056 DA6C     		ldr	r2, [r3, #76]
 193 0058 42F40052 		orr	r2, r2, #8192
 194 005c DA64     		str	r2, [r3, #76]
 115:Core/Src/stm32l4xx_hal_msp.c **** 
 195              		.loc 1 115 5 view .LVU50
 196 005e DA6C     		ldr	r2, [r3, #76]
 197 0060 02F40052 		and	r2, r2, #8192
 198 0064 0192     		str	r2, [sp, #4]
 115:Core/Src/stm32l4xx_hal_msp.c **** 
 199              		.loc 1 115 5 view .LVU51
 200 0066 019A     		ldr	r2, [sp, #4]
 201              	.LBE4:
 115:Core/Src/stm32l4xx_hal_msp.c **** 
 202              		.loc 1 115 5 view .LVU52
 117:Core/Src/stm32l4xx_hal_msp.c ****     __HAL_RCC_GPIOB_CLK_ENABLE();
 203              		.loc 1 117 5 view .LVU53
 204              	.LBB5:
 117:Core/Src/stm32l4xx_hal_msp.c ****     __HAL_RCC_GPIOB_CLK_ENABLE();
 205              		.loc 1 117 5 view .LVU54
 117:Core/Src/stm32l4xx_hal_msp.c ****     __HAL_RCC_GPIOB_CLK_ENABLE();
 206              		.loc 1 117 5 view .LVU55
 207 0068 DA6C     		ldr	r2, [r3, #76]
 208 006a 42F00102 		orr	r2, r2, #1
 209 006e DA64     		str	r2, [r3, #76]
 117:Core/Src/stm32l4xx_hal_msp.c ****     __HAL_RCC_GPIOB_CLK_ENABLE();
 210              		.loc 1 117 5 view .LVU56
 211 0070 DA6C     		ldr	r2, [r3, #76]
 212 0072 02F00102 		and	r2, r2, #1
 213 0076 0292     		str	r2, [sp, #8]
 117:Core/Src/stm32l4xx_hal_msp.c ****     __HAL_RCC_GPIOB_CLK_ENABLE();
 214              		.loc 1 117 5 view .LVU57
 215 0078 029A     		ldr	r2, [sp, #8]
 216              	.LBE5:
 117:Core/Src/stm32l4xx_hal_msp.c ****     __HAL_RCC_GPIOB_CLK_ENABLE();
 217              		.loc 1 117 5 view .LVU58
 118:Core/Src/stm32l4xx_hal_msp.c ****     /**ADC1 GPIO Configuration
 218              		.loc 1 118 5 view .LVU59
 219              	.LBB6:
 118:Core/Src/stm32l4xx_hal_msp.c ****     /**ADC1 GPIO Configuration
 220              		.loc 1 118 5 view .LVU60
 118:Core/Src/stm32l4xx_hal_msp.c ****     /**ADC1 GPIO Configuration
 221              		.loc 1 118 5 view .LVU61
ARM GAS  C:\Users\Ali\AppData\Local\Temp\ccZI0QsI.s 			page 8


 222 007a DA6C     		ldr	r2, [r3, #76]
 223 007c 42F00202 		orr	r2, r2, #2
 224 0080 DA64     		str	r2, [r3, #76]
 118:Core/Src/stm32l4xx_hal_msp.c ****     /**ADC1 GPIO Configuration
 225              		.loc 1 118 5 view .LVU62
 226 0082 DB6C     		ldr	r3, [r3, #76]
 227 0084 03F00203 		and	r3, r3, #2
 228 0088 0393     		str	r3, [sp, #12]
 118:Core/Src/stm32l4xx_hal_msp.c ****     /**ADC1 GPIO Configuration
 229              		.loc 1 118 5 view .LVU63
 230 008a 039B     		ldr	r3, [sp, #12]
 231              	.LBE6:
 118:Core/Src/stm32l4xx_hal_msp.c ****     /**ADC1 GPIO Configuration
 232              		.loc 1 118 5 view .LVU64
 128:Core/Src/stm32l4xx_hal_msp.c ****                           |ADC6_Pin|ADC3_Pin;
 233              		.loc 1 128 5 view .LVU65
 128:Core/Src/stm32l4xx_hal_msp.c ****                           |ADC6_Pin|ADC3_Pin;
 234              		.loc 1 128 25 is_stmt 0 view .LVU66
 235 008c 7B23     		movs	r3, #123
 236 008e 1993     		str	r3, [sp, #100]
 130:Core/Src/stm32l4xx_hal_msp.c ****     GPIO_InitStruct.Pull = GPIO_NOPULL;
 237              		.loc 1 130 5 is_stmt 1 view .LVU67
 130:Core/Src/stm32l4xx_hal_msp.c ****     GPIO_InitStruct.Pull = GPIO_NOPULL;
 238              		.loc 1 130 26 is_stmt 0 view .LVU68
 239 0090 0B26     		movs	r6, #11
 240 0092 1A96     		str	r6, [sp, #104]
 131:Core/Src/stm32l4xx_hal_msp.c ****     HAL_GPIO_Init(GPIOA, &GPIO_InitStruct);
 241              		.loc 1 131 5 is_stmt 1 view .LVU69
 131:Core/Src/stm32l4xx_hal_msp.c ****     HAL_GPIO_Init(GPIOA, &GPIO_InitStruct);
 242              		.loc 1 131 26 is_stmt 0 view .LVU70
 243 0094 0025     		movs	r5, #0
 244 0096 1B95     		str	r5, [sp, #108]
 132:Core/Src/stm32l4xx_hal_msp.c **** 
 245              		.loc 1 132 5 is_stmt 1 view .LVU71
 246 0098 19AC     		add	r4, sp, #100
 247              	.LVL7:
 132:Core/Src/stm32l4xx_hal_msp.c **** 
 248              		.loc 1 132 5 is_stmt 0 view .LVU72
 249 009a 2146     		mov	r1, r4
 250 009c 4FF09040 		mov	r0, #1207959552
 251 00a0 FFF7FEFF 		bl	HAL_GPIO_Init
 252              	.LVL8:
 134:Core/Src/stm32l4xx_hal_msp.c ****     GPIO_InitStruct.Mode = GPIO_MODE_ANALOG_ADC_CONTROL;
 253              		.loc 1 134 5 is_stmt 1 view .LVU73
 134:Core/Src/stm32l4xx_hal_msp.c ****     GPIO_InitStruct.Mode = GPIO_MODE_ANALOG_ADC_CONTROL;
 254              		.loc 1 134 25 is_stmt 0 view .LVU74
 255 00a4 0123     		movs	r3, #1
 256 00a6 1993     		str	r3, [sp, #100]
 135:Core/Src/stm32l4xx_hal_msp.c ****     GPIO_InitStruct.Pull = GPIO_NOPULL;
 257              		.loc 1 135 5 is_stmt 1 view .LVU75
 135:Core/Src/stm32l4xx_hal_msp.c ****     GPIO_InitStruct.Pull = GPIO_NOPULL;
 258              		.loc 1 135 26 is_stmt 0 view .LVU76
 259 00a8 1A96     		str	r6, [sp, #104]
 136:Core/Src/stm32l4xx_hal_msp.c ****     HAL_GPIO_Init(ADC7_GPIO_Port, &GPIO_InitStruct);
 260              		.loc 1 136 5 is_stmt 1 view .LVU77
 136:Core/Src/stm32l4xx_hal_msp.c ****     HAL_GPIO_Init(ADC7_GPIO_Port, &GPIO_InitStruct);
 261              		.loc 1 136 26 is_stmt 0 view .LVU78
ARM GAS  C:\Users\Ali\AppData\Local\Temp\ccZI0QsI.s 			page 9


 262 00aa 1B95     		str	r5, [sp, #108]
 137:Core/Src/stm32l4xx_hal_msp.c **** 
 263              		.loc 1 137 5 is_stmt 1 view .LVU79
 264 00ac 2146     		mov	r1, r4
 265 00ae 0548     		ldr	r0, .L11+8
 266 00b0 FFF7FEFF 		bl	HAL_GPIO_Init
 267              	.LVL9:
 268              		.loc 1 145 1 is_stmt 0 view .LVU80
 269 00b4 B5E7     		b	.L5
 270              	.LVL10:
 271              	.L10:
 111:Core/Src/stm32l4xx_hal_msp.c ****     }
 272              		.loc 1 111 7 is_stmt 1 view .LVU81
 273 00b6 FFF7FEFF 		bl	Error_Handler
 274              	.LVL11:
 275 00ba CBE7     		b	.L7
 276              	.L12:
 277              		.align	2
 278              	.L11:
 279 00bc 00000450 		.word	1342439424
 280 00c0 00100240 		.word	1073876992
 281 00c4 00040048 		.word	1207960576
 282              		.cfi_endproc
 283              	.LFE293:
 285              		.section	.text.HAL_ADC_MspDeInit,"ax",%progbits
 286              		.align	1
 287              		.global	HAL_ADC_MspDeInit
 288              		.syntax unified
 289              		.thumb
 290              		.thumb_func
 292              	HAL_ADC_MspDeInit:
 293              	.LVL12:
 294              	.LFB294:
 146:Core/Src/stm32l4xx_hal_msp.c **** 
 147:Core/Src/stm32l4xx_hal_msp.c **** /**
 148:Core/Src/stm32l4xx_hal_msp.c ****   * @brief ADC MSP De-Initialization
 149:Core/Src/stm32l4xx_hal_msp.c ****   * This function freeze the hardware resources used in this example
 150:Core/Src/stm32l4xx_hal_msp.c ****   * @param hadc: ADC handle pointer
 151:Core/Src/stm32l4xx_hal_msp.c ****   * @retval None
 152:Core/Src/stm32l4xx_hal_msp.c ****   */
 153:Core/Src/stm32l4xx_hal_msp.c **** void HAL_ADC_MspDeInit(ADC_HandleTypeDef* hadc)
 154:Core/Src/stm32l4xx_hal_msp.c **** {
 295              		.loc 1 154 1 view -0
 296              		.cfi_startproc
 297              		@ args = 0, pretend = 0, frame = 0
 298              		@ frame_needed = 0, uses_anonymous_args = 0
 299              		.loc 1 154 1 is_stmt 0 view .LVU83
 300 0000 08B5     		push	{r3, lr}
 301              		.cfi_def_cfa_offset 8
 302              		.cfi_offset 3, -8
 303              		.cfi_offset 14, -4
 155:Core/Src/stm32l4xx_hal_msp.c ****   if(hadc->Instance==ADC1)
 304              		.loc 1 155 3 is_stmt 1 view .LVU84
 305              		.loc 1 155 10 is_stmt 0 view .LVU85
 306 0002 0268     		ldr	r2, [r0]
 307              		.loc 1 155 5 view .LVU86
 308 0004 094B     		ldr	r3, .L17
ARM GAS  C:\Users\Ali\AppData\Local\Temp\ccZI0QsI.s 			page 10


 309 0006 9A42     		cmp	r2, r3
 310 0008 00D0     		beq	.L16
 311              	.LVL13:
 312              	.L13:
 156:Core/Src/stm32l4xx_hal_msp.c ****   {
 157:Core/Src/stm32l4xx_hal_msp.c ****     /* USER CODE BEGIN ADC1_MspDeInit 0 */
 158:Core/Src/stm32l4xx_hal_msp.c **** 
 159:Core/Src/stm32l4xx_hal_msp.c ****     /* USER CODE END ADC1_MspDeInit 0 */
 160:Core/Src/stm32l4xx_hal_msp.c ****     /* Peripheral clock disable */
 161:Core/Src/stm32l4xx_hal_msp.c ****     __HAL_RCC_ADC_CLK_DISABLE();
 162:Core/Src/stm32l4xx_hal_msp.c **** 
 163:Core/Src/stm32l4xx_hal_msp.c ****     /**ADC1 GPIO Configuration
 164:Core/Src/stm32l4xx_hal_msp.c ****     PA0     ------> ADC1_IN5
 165:Core/Src/stm32l4xx_hal_msp.c ****     PA1     ------> ADC1_IN6
 166:Core/Src/stm32l4xx_hal_msp.c ****     PA3     ------> ADC1_IN8
 167:Core/Src/stm32l4xx_hal_msp.c ****     PA4     ------> ADC1_IN9
 168:Core/Src/stm32l4xx_hal_msp.c ****     PA5     ------> ADC1_IN10
 169:Core/Src/stm32l4xx_hal_msp.c ****     PA6     ------> ADC1_IN11
 170:Core/Src/stm32l4xx_hal_msp.c ****     PB0     ------> ADC1_IN15
 171:Core/Src/stm32l4xx_hal_msp.c ****     */
 172:Core/Src/stm32l4xx_hal_msp.c ****     HAL_GPIO_DeInit(GPIOA, ADC1_Pin|ADC2_Pin|ADC4_Pin|ADC5_Pin
 173:Core/Src/stm32l4xx_hal_msp.c ****                           |ADC6_Pin|ADC3_Pin);
 174:Core/Src/stm32l4xx_hal_msp.c **** 
 175:Core/Src/stm32l4xx_hal_msp.c ****     HAL_GPIO_DeInit(ADC7_GPIO_Port, ADC7_Pin);
 176:Core/Src/stm32l4xx_hal_msp.c **** 
 177:Core/Src/stm32l4xx_hal_msp.c ****     /* USER CODE BEGIN ADC1_MspDeInit 1 */
 178:Core/Src/stm32l4xx_hal_msp.c **** 
 179:Core/Src/stm32l4xx_hal_msp.c ****     /* USER CODE END ADC1_MspDeInit 1 */
 180:Core/Src/stm32l4xx_hal_msp.c ****   }
 181:Core/Src/stm32l4xx_hal_msp.c **** 
 182:Core/Src/stm32l4xx_hal_msp.c **** }
 313              		.loc 1 182 1 view .LVU87
 314 000a 08BD     		pop	{r3, pc}
 315              	.LVL14:
 316              	.L16:
 161:Core/Src/stm32l4xx_hal_msp.c **** 
 317              		.loc 1 161 5 is_stmt 1 view .LVU88
 318 000c 084A     		ldr	r2, .L17+4
 319 000e D36C     		ldr	r3, [r2, #76]
 320 0010 23F40053 		bic	r3, r3, #8192
 321 0014 D364     		str	r3, [r2, #76]
 172:Core/Src/stm32l4xx_hal_msp.c ****                           |ADC6_Pin|ADC3_Pin);
 322              		.loc 1 172 5 view .LVU89
 323 0016 7B21     		movs	r1, #123
 324 0018 4FF09040 		mov	r0, #1207959552
 325              	.LVL15:
 172:Core/Src/stm32l4xx_hal_msp.c ****                           |ADC6_Pin|ADC3_Pin);
 326              		.loc 1 172 5 is_stmt 0 view .LVU90
 327 001c FFF7FEFF 		bl	HAL_GPIO_DeInit
 328              	.LVL16:
 175:Core/Src/stm32l4xx_hal_msp.c **** 
 329              		.loc 1 175 5 is_stmt 1 view .LVU91
 330 0020 0121     		movs	r1, #1
 331 0022 0448     		ldr	r0, .L17+8
 332 0024 FFF7FEFF 		bl	HAL_GPIO_DeInit
 333              	.LVL17:
 334              		.loc 1 182 1 is_stmt 0 view .LVU92
ARM GAS  C:\Users\Ali\AppData\Local\Temp\ccZI0QsI.s 			page 11


 335 0028 EFE7     		b	.L13
 336              	.L18:
 337 002a 00BF     		.align	2
 338              	.L17:
 339 002c 00000450 		.word	1342439424
 340 0030 00100240 		.word	1073876992
 341 0034 00040048 		.word	1207960576
 342              		.cfi_endproc
 343              	.LFE294:
 345              		.section	.text.HAL_CAN_MspInit,"ax",%progbits
 346              		.align	1
 347              		.global	HAL_CAN_MspInit
 348              		.syntax unified
 349              		.thumb
 350              		.thumb_func
 352              	HAL_CAN_MspInit:
 353              	.LVL18:
 354              	.LFB295:
 183:Core/Src/stm32l4xx_hal_msp.c **** 
 184:Core/Src/stm32l4xx_hal_msp.c **** /**
 185:Core/Src/stm32l4xx_hal_msp.c ****   * @brief CAN MSP Initialization
 186:Core/Src/stm32l4xx_hal_msp.c ****   * This function configures the hardware resources used in this example
 187:Core/Src/stm32l4xx_hal_msp.c ****   * @param hcan: CAN handle pointer
 188:Core/Src/stm32l4xx_hal_msp.c ****   * @retval None
 189:Core/Src/stm32l4xx_hal_msp.c ****   */
 190:Core/Src/stm32l4xx_hal_msp.c **** void HAL_CAN_MspInit(CAN_HandleTypeDef* hcan)
 191:Core/Src/stm32l4xx_hal_msp.c **** {
 355              		.loc 1 191 1 is_stmt 1 view -0
 356              		.cfi_startproc
 357              		@ args = 0, pretend = 0, frame = 32
 358              		@ frame_needed = 0, uses_anonymous_args = 0
 359              		.loc 1 191 1 is_stmt 0 view .LVU94
 360 0000 00B5     		push	{lr}
 361              		.cfi_def_cfa_offset 4
 362              		.cfi_offset 14, -4
 363 0002 89B0     		sub	sp, sp, #36
 364              		.cfi_def_cfa_offset 40
 192:Core/Src/stm32l4xx_hal_msp.c ****   GPIO_InitTypeDef GPIO_InitStruct = {0};
 365              		.loc 1 192 3 is_stmt 1 view .LVU95
 366              		.loc 1 192 20 is_stmt 0 view .LVU96
 367 0004 0023     		movs	r3, #0
 368 0006 0393     		str	r3, [sp, #12]
 369 0008 0493     		str	r3, [sp, #16]
 370 000a 0593     		str	r3, [sp, #20]
 371 000c 0693     		str	r3, [sp, #24]
 372 000e 0793     		str	r3, [sp, #28]
 193:Core/Src/stm32l4xx_hal_msp.c ****   if(hcan->Instance==CAN1)
 373              		.loc 1 193 3 is_stmt 1 view .LVU97
 374              		.loc 1 193 10 is_stmt 0 view .LVU98
 375 0010 0268     		ldr	r2, [r0]
 376              		.loc 1 193 5 view .LVU99
 377 0012 244B     		ldr	r3, .L23
 378 0014 9A42     		cmp	r2, r3
 379 0016 02D0     		beq	.L22
 380              	.LVL19:
 381              	.L19:
 194:Core/Src/stm32l4xx_hal_msp.c ****   {
ARM GAS  C:\Users\Ali\AppData\Local\Temp\ccZI0QsI.s 			page 12


 195:Core/Src/stm32l4xx_hal_msp.c ****     /* USER CODE BEGIN CAN1_MspInit 0 */
 196:Core/Src/stm32l4xx_hal_msp.c **** 
 197:Core/Src/stm32l4xx_hal_msp.c ****     /* USER CODE END CAN1_MspInit 0 */
 198:Core/Src/stm32l4xx_hal_msp.c ****     /* Peripheral clock enable */
 199:Core/Src/stm32l4xx_hal_msp.c ****     __HAL_RCC_CAN1_CLK_ENABLE();
 200:Core/Src/stm32l4xx_hal_msp.c **** 
 201:Core/Src/stm32l4xx_hal_msp.c ****     __HAL_RCC_GPIOA_CLK_ENABLE();
 202:Core/Src/stm32l4xx_hal_msp.c ****     /**CAN1 GPIO Configuration
 203:Core/Src/stm32l4xx_hal_msp.c ****     PA11     ------> CAN1_RX
 204:Core/Src/stm32l4xx_hal_msp.c ****     PA12     ------> CAN1_TX
 205:Core/Src/stm32l4xx_hal_msp.c ****     */
 206:Core/Src/stm32l4xx_hal_msp.c ****     GPIO_InitStruct.Pin = GPIO_PIN_11|GPIO_PIN_12;
 207:Core/Src/stm32l4xx_hal_msp.c ****     GPIO_InitStruct.Mode = GPIO_MODE_AF_PP;
 208:Core/Src/stm32l4xx_hal_msp.c ****     GPIO_InitStruct.Pull = GPIO_NOPULL;
 209:Core/Src/stm32l4xx_hal_msp.c ****     GPIO_InitStruct.Speed = GPIO_SPEED_FREQ_VERY_HIGH;
 210:Core/Src/stm32l4xx_hal_msp.c ****     GPIO_InitStruct.Alternate = GPIO_AF9_CAN1;
 211:Core/Src/stm32l4xx_hal_msp.c ****     HAL_GPIO_Init(GPIOA, &GPIO_InitStruct);
 212:Core/Src/stm32l4xx_hal_msp.c **** 
 213:Core/Src/stm32l4xx_hal_msp.c ****     /* USER CODE BEGIN CAN1_MspInit 1 */
 214:Core/Src/stm32l4xx_hal_msp.c ****     
 215:Core/Src/stm32l4xx_hal_msp.c ****     /* CAN1 interrupt Init */
 216:Core/Src/stm32l4xx_hal_msp.c ****     HAL_NVIC_SetPriority(CAN1_RX0_IRQn, 5, 0);
 217:Core/Src/stm32l4xx_hal_msp.c ****     HAL_NVIC_EnableIRQ(CAN1_RX0_IRQn);
 218:Core/Src/stm32l4xx_hal_msp.c ****     HAL_NVIC_SetPriority(CAN1_RX1_IRQn, 5, 0);
 219:Core/Src/stm32l4xx_hal_msp.c ****     HAL_NVIC_EnableIRQ(CAN1_RX1_IRQn);
 220:Core/Src/stm32l4xx_hal_msp.c ****     HAL_NVIC_SetPriority(CAN1_TX_IRQn, 6, 0);
 221:Core/Src/stm32l4xx_hal_msp.c ****     HAL_NVIC_EnableIRQ(CAN1_TX_IRQn);
 222:Core/Src/stm32l4xx_hal_msp.c ****     HAL_NVIC_SetPriority(CAN1_SCE_IRQn, 6, 0);
 223:Core/Src/stm32l4xx_hal_msp.c ****     HAL_NVIC_EnableIRQ(CAN1_SCE_IRQn);
 224:Core/Src/stm32l4xx_hal_msp.c **** 
 225:Core/Src/stm32l4xx_hal_msp.c ****     /* USER CODE END CAN1_MspInit 1 */
 226:Core/Src/stm32l4xx_hal_msp.c **** 
 227:Core/Src/stm32l4xx_hal_msp.c ****   }
 228:Core/Src/stm32l4xx_hal_msp.c **** 
 229:Core/Src/stm32l4xx_hal_msp.c **** }
 382              		.loc 1 229 1 view .LVU100
 383 0018 09B0     		add	sp, sp, #36
 384              		.cfi_remember_state
 385              		.cfi_def_cfa_offset 4
 386              		@ sp needed
 387 001a 5DF804FB 		ldr	pc, [sp], #4
 388              	.LVL20:
 389              	.L22:
 390              		.cfi_restore_state
 199:Core/Src/stm32l4xx_hal_msp.c **** 
 391              		.loc 1 199 5 is_stmt 1 view .LVU101
 392              	.LBB7:
 199:Core/Src/stm32l4xx_hal_msp.c **** 
 393              		.loc 1 199 5 view .LVU102
 199:Core/Src/stm32l4xx_hal_msp.c **** 
 394              		.loc 1 199 5 view .LVU103
 395 001e 03F5D633 		add	r3, r3, #109568
 396 0022 9A6D     		ldr	r2, [r3, #88]
 397 0024 42F00072 		orr	r2, r2, #33554432
 398 0028 9A65     		str	r2, [r3, #88]
 199:Core/Src/stm32l4xx_hal_msp.c **** 
 399              		.loc 1 199 5 view .LVU104
ARM GAS  C:\Users\Ali\AppData\Local\Temp\ccZI0QsI.s 			page 13


 400 002a 9A6D     		ldr	r2, [r3, #88]
 401 002c 02F00072 		and	r2, r2, #33554432
 402 0030 0192     		str	r2, [sp, #4]
 199:Core/Src/stm32l4xx_hal_msp.c **** 
 403              		.loc 1 199 5 view .LVU105
 404 0032 019A     		ldr	r2, [sp, #4]
 405              	.LBE7:
 199:Core/Src/stm32l4xx_hal_msp.c **** 
 406              		.loc 1 199 5 view .LVU106
 201:Core/Src/stm32l4xx_hal_msp.c ****     /**CAN1 GPIO Configuration
 407              		.loc 1 201 5 view .LVU107
 408              	.LBB8:
 201:Core/Src/stm32l4xx_hal_msp.c ****     /**CAN1 GPIO Configuration
 409              		.loc 1 201 5 view .LVU108
 201:Core/Src/stm32l4xx_hal_msp.c ****     /**CAN1 GPIO Configuration
 410              		.loc 1 201 5 view .LVU109
 411 0034 DA6C     		ldr	r2, [r3, #76]
 412 0036 42F00102 		orr	r2, r2, #1
 413 003a DA64     		str	r2, [r3, #76]
 201:Core/Src/stm32l4xx_hal_msp.c ****     /**CAN1 GPIO Configuration
 414              		.loc 1 201 5 view .LVU110
 415 003c DB6C     		ldr	r3, [r3, #76]
 416 003e 03F00103 		and	r3, r3, #1
 417 0042 0293     		str	r3, [sp, #8]
 201:Core/Src/stm32l4xx_hal_msp.c ****     /**CAN1 GPIO Configuration
 418              		.loc 1 201 5 view .LVU111
 419 0044 029B     		ldr	r3, [sp, #8]
 420              	.LBE8:
 201:Core/Src/stm32l4xx_hal_msp.c ****     /**CAN1 GPIO Configuration
 421              		.loc 1 201 5 view .LVU112
 206:Core/Src/stm32l4xx_hal_msp.c ****     GPIO_InitStruct.Mode = GPIO_MODE_AF_PP;
 422              		.loc 1 206 5 view .LVU113
 206:Core/Src/stm32l4xx_hal_msp.c ****     GPIO_InitStruct.Mode = GPIO_MODE_AF_PP;
 423              		.loc 1 206 25 is_stmt 0 view .LVU114
 424 0046 4FF4C053 		mov	r3, #6144
 425 004a 0393     		str	r3, [sp, #12]
 207:Core/Src/stm32l4xx_hal_msp.c ****     GPIO_InitStruct.Pull = GPIO_NOPULL;
 426              		.loc 1 207 5 is_stmt 1 view .LVU115
 207:Core/Src/stm32l4xx_hal_msp.c ****     GPIO_InitStruct.Pull = GPIO_NOPULL;
 427              		.loc 1 207 26 is_stmt 0 view .LVU116
 428 004c 0223     		movs	r3, #2
 429 004e 0493     		str	r3, [sp, #16]
 208:Core/Src/stm32l4xx_hal_msp.c ****     GPIO_InitStruct.Speed = GPIO_SPEED_FREQ_VERY_HIGH;
 430              		.loc 1 208 5 is_stmt 1 view .LVU117
 209:Core/Src/stm32l4xx_hal_msp.c ****     GPIO_InitStruct.Alternate = GPIO_AF9_CAN1;
 431              		.loc 1 209 5 view .LVU118
 209:Core/Src/stm32l4xx_hal_msp.c ****     GPIO_InitStruct.Alternate = GPIO_AF9_CAN1;
 432              		.loc 1 209 27 is_stmt 0 view .LVU119
 433 0050 0323     		movs	r3, #3
 434 0052 0693     		str	r3, [sp, #24]
 210:Core/Src/stm32l4xx_hal_msp.c ****     HAL_GPIO_Init(GPIOA, &GPIO_InitStruct);
 435              		.loc 1 210 5 is_stmt 1 view .LVU120
 210:Core/Src/stm32l4xx_hal_msp.c ****     HAL_GPIO_Init(GPIOA, &GPIO_InitStruct);
 436              		.loc 1 210 31 is_stmt 0 view .LVU121
 437 0054 0923     		movs	r3, #9
 438 0056 0793     		str	r3, [sp, #28]
 211:Core/Src/stm32l4xx_hal_msp.c **** 
ARM GAS  C:\Users\Ali\AppData\Local\Temp\ccZI0QsI.s 			page 14


 439              		.loc 1 211 5 is_stmt 1 view .LVU122
 440 0058 03A9     		add	r1, sp, #12
 441 005a 4FF09040 		mov	r0, #1207959552
 442              	.LVL21:
 211:Core/Src/stm32l4xx_hal_msp.c **** 
 443              		.loc 1 211 5 is_stmt 0 view .LVU123
 444 005e FFF7FEFF 		bl	HAL_GPIO_Init
 445              	.LVL22:
 216:Core/Src/stm32l4xx_hal_msp.c ****     HAL_NVIC_EnableIRQ(CAN1_RX0_IRQn);
 446              		.loc 1 216 5 is_stmt 1 view .LVU124
 447 0062 0022     		movs	r2, #0
 448 0064 0521     		movs	r1, #5
 449 0066 1420     		movs	r0, #20
 450 0068 FFF7FEFF 		bl	HAL_NVIC_SetPriority
 451              	.LVL23:
 217:Core/Src/stm32l4xx_hal_msp.c ****     HAL_NVIC_SetPriority(CAN1_RX1_IRQn, 5, 0);
 452              		.loc 1 217 5 view .LVU125
 453 006c 1420     		movs	r0, #20
 454 006e FFF7FEFF 		bl	HAL_NVIC_EnableIRQ
 455              	.LVL24:
 218:Core/Src/stm32l4xx_hal_msp.c ****     HAL_NVIC_EnableIRQ(CAN1_RX1_IRQn);
 456              		.loc 1 218 5 view .LVU126
 457 0072 0022     		movs	r2, #0
 458 0074 0521     		movs	r1, #5
 459 0076 1520     		movs	r0, #21
 460 0078 FFF7FEFF 		bl	HAL_NVIC_SetPriority
 461              	.LVL25:
 219:Core/Src/stm32l4xx_hal_msp.c ****     HAL_NVIC_SetPriority(CAN1_TX_IRQn, 6, 0);
 462              		.loc 1 219 5 view .LVU127
 463 007c 1520     		movs	r0, #21
 464 007e FFF7FEFF 		bl	HAL_NVIC_EnableIRQ
 465              	.LVL26:
 220:Core/Src/stm32l4xx_hal_msp.c ****     HAL_NVIC_EnableIRQ(CAN1_TX_IRQn);
 466              		.loc 1 220 5 view .LVU128
 467 0082 0022     		movs	r2, #0
 468 0084 0621     		movs	r1, #6
 469 0086 1320     		movs	r0, #19
 470 0088 FFF7FEFF 		bl	HAL_NVIC_SetPriority
 471              	.LVL27:
 221:Core/Src/stm32l4xx_hal_msp.c ****     HAL_NVIC_SetPriority(CAN1_SCE_IRQn, 6, 0);
 472              		.loc 1 221 5 view .LVU129
 473 008c 1320     		movs	r0, #19
 474 008e FFF7FEFF 		bl	HAL_NVIC_EnableIRQ
 475              	.LVL28:
 222:Core/Src/stm32l4xx_hal_msp.c ****     HAL_NVIC_EnableIRQ(CAN1_SCE_IRQn);
 476              		.loc 1 222 5 view .LVU130
 477 0092 0022     		movs	r2, #0
 478 0094 0621     		movs	r1, #6
 479 0096 1620     		movs	r0, #22
 480 0098 FFF7FEFF 		bl	HAL_NVIC_SetPriority
 481              	.LVL29:
 223:Core/Src/stm32l4xx_hal_msp.c **** 
 482              		.loc 1 223 5 view .LVU131
 483 009c 1620     		movs	r0, #22
 484 009e FFF7FEFF 		bl	HAL_NVIC_EnableIRQ
 485              	.LVL30:
 486              		.loc 1 229 1 is_stmt 0 view .LVU132
ARM GAS  C:\Users\Ali\AppData\Local\Temp\ccZI0QsI.s 			page 15


 487 00a2 B9E7     		b	.L19
 488              	.L24:
 489              		.align	2
 490              	.L23:
 491 00a4 00640040 		.word	1073767424
 492              		.cfi_endproc
 493              	.LFE295:
 495              		.section	.text.HAL_CAN_MspDeInit,"ax",%progbits
 496              		.align	1
 497              		.global	HAL_CAN_MspDeInit
 498              		.syntax unified
 499              		.thumb
 500              		.thumb_func
 502              	HAL_CAN_MspDeInit:
 503              	.LVL31:
 504              	.LFB296:
 230:Core/Src/stm32l4xx_hal_msp.c **** 
 231:Core/Src/stm32l4xx_hal_msp.c **** /**
 232:Core/Src/stm32l4xx_hal_msp.c ****   * @brief CAN MSP De-Initialization
 233:Core/Src/stm32l4xx_hal_msp.c ****   * This function freeze the hardware resources used in this example
 234:Core/Src/stm32l4xx_hal_msp.c ****   * @param hcan: CAN handle pointer
 235:Core/Src/stm32l4xx_hal_msp.c ****   * @retval None
 236:Core/Src/stm32l4xx_hal_msp.c ****   */
 237:Core/Src/stm32l4xx_hal_msp.c **** void HAL_CAN_MspDeInit(CAN_HandleTypeDef* hcan)
 238:Core/Src/stm32l4xx_hal_msp.c **** {
 505              		.loc 1 238 1 is_stmt 1 view -0
 506              		.cfi_startproc
 507              		@ args = 0, pretend = 0, frame = 0
 508              		@ frame_needed = 0, uses_anonymous_args = 0
 509              		.loc 1 238 1 is_stmt 0 view .LVU134
 510 0000 08B5     		push	{r3, lr}
 511              		.cfi_def_cfa_offset 8
 512              		.cfi_offset 3, -8
 513              		.cfi_offset 14, -4
 239:Core/Src/stm32l4xx_hal_msp.c ****   if(hcan->Instance==CAN1)
 514              		.loc 1 239 3 is_stmt 1 view .LVU135
 515              		.loc 1 239 10 is_stmt 0 view .LVU136
 516 0002 0268     		ldr	r2, [r0]
 517              		.loc 1 239 5 view .LVU137
 518 0004 074B     		ldr	r3, .L29
 519 0006 9A42     		cmp	r2, r3
 520 0008 00D0     		beq	.L28
 521              	.LVL32:
 522              	.L25:
 240:Core/Src/stm32l4xx_hal_msp.c ****   {
 241:Core/Src/stm32l4xx_hal_msp.c ****     /* USER CODE BEGIN CAN1_MspDeInit 0 */
 242:Core/Src/stm32l4xx_hal_msp.c **** 
 243:Core/Src/stm32l4xx_hal_msp.c ****     /* USER CODE END CAN1_MspDeInit 0 */
 244:Core/Src/stm32l4xx_hal_msp.c ****     /* Peripheral clock disable */
 245:Core/Src/stm32l4xx_hal_msp.c ****     __HAL_RCC_CAN1_CLK_DISABLE();
 246:Core/Src/stm32l4xx_hal_msp.c **** 
 247:Core/Src/stm32l4xx_hal_msp.c ****     /**CAN1 GPIO Configuration
 248:Core/Src/stm32l4xx_hal_msp.c ****     PA11     ------> CAN1_RX
 249:Core/Src/stm32l4xx_hal_msp.c ****     PA12     ------> CAN1_TX
 250:Core/Src/stm32l4xx_hal_msp.c ****     */
 251:Core/Src/stm32l4xx_hal_msp.c ****     HAL_GPIO_DeInit(GPIOA, GPIO_PIN_11|GPIO_PIN_12);
 252:Core/Src/stm32l4xx_hal_msp.c **** 
ARM GAS  C:\Users\Ali\AppData\Local\Temp\ccZI0QsI.s 			page 16


 253:Core/Src/stm32l4xx_hal_msp.c ****     /* USER CODE BEGIN CAN1_MspDeInit 1 */
 254:Core/Src/stm32l4xx_hal_msp.c **** 
 255:Core/Src/stm32l4xx_hal_msp.c ****     /* USER CODE END CAN1_MspDeInit 1 */
 256:Core/Src/stm32l4xx_hal_msp.c ****   }
 257:Core/Src/stm32l4xx_hal_msp.c **** 
 258:Core/Src/stm32l4xx_hal_msp.c **** }
 523              		.loc 1 258 1 view .LVU138
 524 000a 08BD     		pop	{r3, pc}
 525              	.LVL33:
 526              	.L28:
 245:Core/Src/stm32l4xx_hal_msp.c **** 
 527              		.loc 1 245 5 is_stmt 1 view .LVU139
 528 000c 064A     		ldr	r2, .L29+4
 529 000e 936D     		ldr	r3, [r2, #88]
 530 0010 23F00073 		bic	r3, r3, #33554432
 531 0014 9365     		str	r3, [r2, #88]
 251:Core/Src/stm32l4xx_hal_msp.c **** 
 532              		.loc 1 251 5 view .LVU140
 533 0016 4FF4C051 		mov	r1, #6144
 534 001a 4FF09040 		mov	r0, #1207959552
 535              	.LVL34:
 251:Core/Src/stm32l4xx_hal_msp.c **** 
 536              		.loc 1 251 5 is_stmt 0 view .LVU141
 537 001e FFF7FEFF 		bl	HAL_GPIO_DeInit
 538              	.LVL35:
 539              		.loc 1 258 1 view .LVU142
 540 0022 F2E7     		b	.L25
 541              	.L30:
 542              		.align	2
 543              	.L29:
 544 0024 00640040 		.word	1073767424
 545 0028 00100240 		.word	1073876992
 546              		.cfi_endproc
 547              	.LFE296:
 549              		.section	.text.HAL_CRC_MspInit,"ax",%progbits
 550              		.align	1
 551              		.global	HAL_CRC_MspInit
 552              		.syntax unified
 553              		.thumb
 554              		.thumb_func
 556              	HAL_CRC_MspInit:
 557              	.LVL36:
 558              	.LFB297:
 259:Core/Src/stm32l4xx_hal_msp.c **** 
 260:Core/Src/stm32l4xx_hal_msp.c **** /**
 261:Core/Src/stm32l4xx_hal_msp.c ****   * @brief CRC MSP Initialization
 262:Core/Src/stm32l4xx_hal_msp.c ****   * This function configures the hardware resources used in this example
 263:Core/Src/stm32l4xx_hal_msp.c ****   * @param hcrc: CRC handle pointer
 264:Core/Src/stm32l4xx_hal_msp.c ****   * @retval None
 265:Core/Src/stm32l4xx_hal_msp.c ****   */
 266:Core/Src/stm32l4xx_hal_msp.c **** void HAL_CRC_MspInit(CRC_HandleTypeDef* hcrc)
 267:Core/Src/stm32l4xx_hal_msp.c **** {
 559              		.loc 1 267 1 is_stmt 1 view -0
 560              		.cfi_startproc
 561              		@ args = 0, pretend = 0, frame = 8
 562              		@ frame_needed = 0, uses_anonymous_args = 0
 563              		@ link register save eliminated.
ARM GAS  C:\Users\Ali\AppData\Local\Temp\ccZI0QsI.s 			page 17


 268:Core/Src/stm32l4xx_hal_msp.c ****   if(hcrc->Instance==CRC)
 564              		.loc 1 268 3 view .LVU144
 565              		.loc 1 268 10 is_stmt 0 view .LVU145
 566 0000 0268     		ldr	r2, [r0]
 567              		.loc 1 268 5 view .LVU146
 568 0002 094B     		ldr	r3, .L38
 569 0004 9A42     		cmp	r2, r3
 570 0006 00D0     		beq	.L37
 571 0008 7047     		bx	lr
 572              	.L37:
 267:Core/Src/stm32l4xx_hal_msp.c ****   if(hcrc->Instance==CRC)
 573              		.loc 1 267 1 view .LVU147
 574 000a 82B0     		sub	sp, sp, #8
 575              		.cfi_def_cfa_offset 8
 269:Core/Src/stm32l4xx_hal_msp.c ****   {
 270:Core/Src/stm32l4xx_hal_msp.c ****     /* USER CODE BEGIN CRC_MspInit 0 */
 271:Core/Src/stm32l4xx_hal_msp.c **** 
 272:Core/Src/stm32l4xx_hal_msp.c ****     /* USER CODE END CRC_MspInit 0 */
 273:Core/Src/stm32l4xx_hal_msp.c ****     /* Peripheral clock enable */
 274:Core/Src/stm32l4xx_hal_msp.c ****     __HAL_RCC_CRC_CLK_ENABLE();
 576              		.loc 1 274 5 is_stmt 1 view .LVU148
 577              	.LBB9:
 578              		.loc 1 274 5 view .LVU149
 579              		.loc 1 274 5 view .LVU150
 580 000c A3F50053 		sub	r3, r3, #8192
 581 0010 9A6C     		ldr	r2, [r3, #72]
 582 0012 42F48052 		orr	r2, r2, #4096
 583 0016 9A64     		str	r2, [r3, #72]
 584              		.loc 1 274 5 view .LVU151
 585 0018 9B6C     		ldr	r3, [r3, #72]
 586 001a 03F48053 		and	r3, r3, #4096
 587 001e 0193     		str	r3, [sp, #4]
 588              		.loc 1 274 5 view .LVU152
 589 0020 019B     		ldr	r3, [sp, #4]
 590              	.LBE9:
 591              		.loc 1 274 5 discriminator 1 view .LVU153
 275:Core/Src/stm32l4xx_hal_msp.c ****     /* USER CODE BEGIN CRC_MspInit 1 */
 276:Core/Src/stm32l4xx_hal_msp.c **** 
 277:Core/Src/stm32l4xx_hal_msp.c ****     /* USER CODE END CRC_MspInit 1 */
 278:Core/Src/stm32l4xx_hal_msp.c **** 
 279:Core/Src/stm32l4xx_hal_msp.c ****   }
 280:Core/Src/stm32l4xx_hal_msp.c **** 
 281:Core/Src/stm32l4xx_hal_msp.c **** }
 592              		.loc 1 281 1 is_stmt 0 view .LVU154
 593 0022 02B0     		add	sp, sp, #8
 594              		.cfi_def_cfa_offset 0
 595              		@ sp needed
 596 0024 7047     		bx	lr
 597              	.L39:
 598 0026 00BF     		.align	2
 599              	.L38:
 600 0028 00300240 		.word	1073885184
 601              		.cfi_endproc
 602              	.LFE297:
 604              		.section	.text.HAL_CRC_MspDeInit,"ax",%progbits
 605              		.align	1
 606              		.global	HAL_CRC_MspDeInit
ARM GAS  C:\Users\Ali\AppData\Local\Temp\ccZI0QsI.s 			page 18


 607              		.syntax unified
 608              		.thumb
 609              		.thumb_func
 611              	HAL_CRC_MspDeInit:
 612              	.LVL37:
 613              	.LFB298:
 282:Core/Src/stm32l4xx_hal_msp.c **** 
 283:Core/Src/stm32l4xx_hal_msp.c **** /**
 284:Core/Src/stm32l4xx_hal_msp.c ****   * @brief CRC MSP De-Initialization
 285:Core/Src/stm32l4xx_hal_msp.c ****   * This function freeze the hardware resources used in this example
 286:Core/Src/stm32l4xx_hal_msp.c ****   * @param hcrc: CRC handle pointer
 287:Core/Src/stm32l4xx_hal_msp.c ****   * @retval None
 288:Core/Src/stm32l4xx_hal_msp.c ****   */
 289:Core/Src/stm32l4xx_hal_msp.c **** void HAL_CRC_MspDeInit(CRC_HandleTypeDef* hcrc)
 290:Core/Src/stm32l4xx_hal_msp.c **** {
 614              		.loc 1 290 1 is_stmt 1 view -0
 615              		.cfi_startproc
 616              		@ args = 0, pretend = 0, frame = 0
 617              		@ frame_needed = 0, uses_anonymous_args = 0
 618              		@ link register save eliminated.
 291:Core/Src/stm32l4xx_hal_msp.c ****   if(hcrc->Instance==CRC)
 619              		.loc 1 291 3 view .LVU156
 620              		.loc 1 291 10 is_stmt 0 view .LVU157
 621 0000 0268     		ldr	r2, [r0]
 622              		.loc 1 291 5 view .LVU158
 623 0002 054B     		ldr	r3, .L43
 624 0004 9A42     		cmp	r2, r3
 625 0006 00D0     		beq	.L42
 626              	.L40:
 292:Core/Src/stm32l4xx_hal_msp.c ****   {
 293:Core/Src/stm32l4xx_hal_msp.c ****     /* USER CODE BEGIN CRC_MspDeInit 0 */
 294:Core/Src/stm32l4xx_hal_msp.c **** 
 295:Core/Src/stm32l4xx_hal_msp.c ****     /* USER CODE END CRC_MspDeInit 0 */
 296:Core/Src/stm32l4xx_hal_msp.c ****     /* Peripheral clock disable */
 297:Core/Src/stm32l4xx_hal_msp.c ****     __HAL_RCC_CRC_CLK_DISABLE();
 298:Core/Src/stm32l4xx_hal_msp.c ****     /* USER CODE BEGIN CRC_MspDeInit 1 */
 299:Core/Src/stm32l4xx_hal_msp.c **** 
 300:Core/Src/stm32l4xx_hal_msp.c ****     /* USER CODE END CRC_MspDeInit 1 */
 301:Core/Src/stm32l4xx_hal_msp.c ****   }
 302:Core/Src/stm32l4xx_hal_msp.c **** 
 303:Core/Src/stm32l4xx_hal_msp.c **** }
 627              		.loc 1 303 1 view .LVU159
 628 0008 7047     		bx	lr
 629              	.L42:
 297:Core/Src/stm32l4xx_hal_msp.c ****     /* USER CODE BEGIN CRC_MspDeInit 1 */
 630              		.loc 1 297 5 is_stmt 1 view .LVU160
 631 000a 044A     		ldr	r2, .L43+4
 632 000c 936C     		ldr	r3, [r2, #72]
 633 000e 23F48053 		bic	r3, r3, #4096
 634 0012 9364     		str	r3, [r2, #72]
 635              		.loc 1 303 1 is_stmt 0 view .LVU161
 636 0014 F8E7     		b	.L40
 637              	.L44:
 638 0016 00BF     		.align	2
 639              	.L43:
 640 0018 00300240 		.word	1073885184
 641 001c 00100240 		.word	1073876992
ARM GAS  C:\Users\Ali\AppData\Local\Temp\ccZI0QsI.s 			page 19


 642              		.cfi_endproc
 643              	.LFE298:
 645              		.section	.text.HAL_I2C_MspInit,"ax",%progbits
 646              		.align	1
 647              		.global	HAL_I2C_MspInit
 648              		.syntax unified
 649              		.thumb
 650              		.thumb_func
 652              	HAL_I2C_MspInit:
 653              	.LVL38:
 654              	.LFB299:
 304:Core/Src/stm32l4xx_hal_msp.c **** 
 305:Core/Src/stm32l4xx_hal_msp.c **** /**
 306:Core/Src/stm32l4xx_hal_msp.c ****   * @brief I2C MSP Initialization
 307:Core/Src/stm32l4xx_hal_msp.c ****   * This function configures the hardware resources used in this example
 308:Core/Src/stm32l4xx_hal_msp.c ****   * @param hi2c: I2C handle pointer
 309:Core/Src/stm32l4xx_hal_msp.c ****   * @retval None
 310:Core/Src/stm32l4xx_hal_msp.c ****   */
 311:Core/Src/stm32l4xx_hal_msp.c **** void HAL_I2C_MspInit(I2C_HandleTypeDef* hi2c)
 312:Core/Src/stm32l4xx_hal_msp.c **** {
 655              		.loc 1 312 1 is_stmt 1 view -0
 656              		.cfi_startproc
 657              		@ args = 0, pretend = 0, frame = 128
 658              		@ frame_needed = 0, uses_anonymous_args = 0
 659              		.loc 1 312 1 is_stmt 0 view .LVU163
 660 0000 2DE9F041 		push	{r4, r5, r6, r7, r8, lr}
 661              		.cfi_def_cfa_offset 24
 662              		.cfi_offset 4, -24
 663              		.cfi_offset 5, -20
 664              		.cfi_offset 6, -16
 665              		.cfi_offset 7, -12
 666              		.cfi_offset 8, -8
 667              		.cfi_offset 14, -4
 668 0004 A0B0     		sub	sp, sp, #128
 669              		.cfi_def_cfa_offset 152
 670 0006 0446     		mov	r4, r0
 313:Core/Src/stm32l4xx_hal_msp.c ****   GPIO_InitTypeDef GPIO_InitStruct = {0};
 671              		.loc 1 313 3 is_stmt 1 view .LVU164
 672              		.loc 1 313 20 is_stmt 0 view .LVU165
 673 0008 0021     		movs	r1, #0
 674 000a 1B91     		str	r1, [sp, #108]
 675 000c 1C91     		str	r1, [sp, #112]
 676 000e 1D91     		str	r1, [sp, #116]
 677 0010 1E91     		str	r1, [sp, #120]
 678 0012 1F91     		str	r1, [sp, #124]
 314:Core/Src/stm32l4xx_hal_msp.c ****   RCC_PeriphCLKInitTypeDef PeriphClkInit = {0};
 679              		.loc 1 314 3 is_stmt 1 view .LVU166
 680              		.loc 1 314 28 is_stmt 0 view .LVU167
 681 0014 5422     		movs	r2, #84
 682 0016 06A8     		add	r0, sp, #24
 683              	.LVL39:
 684              		.loc 1 314 28 view .LVU168
 685 0018 FFF7FEFF 		bl	memset
 686              	.LVL40:
 315:Core/Src/stm32l4xx_hal_msp.c ****   if(hi2c->Instance==I2C1)
 687              		.loc 1 315 3 is_stmt 1 view .LVU169
 688              		.loc 1 315 10 is_stmt 0 view .LVU170
ARM GAS  C:\Users\Ali\AppData\Local\Temp\ccZI0QsI.s 			page 20


 689 001c 2368     		ldr	r3, [r4]
 690              		.loc 1 315 5 view .LVU171
 691 001e 404A     		ldr	r2, .L55
 692 0020 9342     		cmp	r3, r2
 693 0022 05D0     		beq	.L51
 316:Core/Src/stm32l4xx_hal_msp.c ****   {
 317:Core/Src/stm32l4xx_hal_msp.c ****     /* USER CODE BEGIN I2C1_MspInit 0 */
 318:Core/Src/stm32l4xx_hal_msp.c **** 
 319:Core/Src/stm32l4xx_hal_msp.c ****     /* USER CODE END I2C1_MspInit 0 */
 320:Core/Src/stm32l4xx_hal_msp.c **** 
 321:Core/Src/stm32l4xx_hal_msp.c ****   /** Initializes the peripherals clock
 322:Core/Src/stm32l4xx_hal_msp.c ****   */
 323:Core/Src/stm32l4xx_hal_msp.c ****     PeriphClkInit.PeriphClockSelection = RCC_PERIPHCLK_I2C1;
 324:Core/Src/stm32l4xx_hal_msp.c ****     PeriphClkInit.I2c1ClockSelection = RCC_I2C1CLKSOURCE_HSI;
 325:Core/Src/stm32l4xx_hal_msp.c ****     if (HAL_RCCEx_PeriphCLKConfig(&PeriphClkInit) != HAL_OK)
 326:Core/Src/stm32l4xx_hal_msp.c ****     {
 327:Core/Src/stm32l4xx_hal_msp.c ****       Error_Handler();
 328:Core/Src/stm32l4xx_hal_msp.c ****     }
 329:Core/Src/stm32l4xx_hal_msp.c **** 
 330:Core/Src/stm32l4xx_hal_msp.c ****     __HAL_RCC_GPIOA_CLK_ENABLE();
 331:Core/Src/stm32l4xx_hal_msp.c ****     /**I2C1 GPIO Configuration
 332:Core/Src/stm32l4xx_hal_msp.c ****     PA9     ------> I2C1_SCL
 333:Core/Src/stm32l4xx_hal_msp.c ****     PA10     ------> I2C1_SDA
 334:Core/Src/stm32l4xx_hal_msp.c ****     */
 335:Core/Src/stm32l4xx_hal_msp.c ****     GPIO_InitStruct.Pin = GPIO_PIN_9|GPIO_PIN_10;
 336:Core/Src/stm32l4xx_hal_msp.c ****     GPIO_InitStruct.Mode = GPIO_MODE_AF_OD;
 337:Core/Src/stm32l4xx_hal_msp.c ****     GPIO_InitStruct.Pull = GPIO_PULLUP;
 338:Core/Src/stm32l4xx_hal_msp.c ****     GPIO_InitStruct.Speed = GPIO_SPEED_FREQ_VERY_HIGH;
 339:Core/Src/stm32l4xx_hal_msp.c ****     GPIO_InitStruct.Alternate = GPIO_AF4_I2C1;
 340:Core/Src/stm32l4xx_hal_msp.c ****     HAL_GPIO_Init(GPIOA, &GPIO_InitStruct);
 341:Core/Src/stm32l4xx_hal_msp.c **** 
 342:Core/Src/stm32l4xx_hal_msp.c ****     /* Peripheral clock enable */
 343:Core/Src/stm32l4xx_hal_msp.c ****     __HAL_RCC_I2C1_CLK_ENABLE();
 344:Core/Src/stm32l4xx_hal_msp.c ****     /* USER CODE BEGIN I2C1_MspInit 1 */
 345:Core/Src/stm32l4xx_hal_msp.c **** 
 346:Core/Src/stm32l4xx_hal_msp.c ****     /* USER CODE END I2C1_MspInit 1 */
 347:Core/Src/stm32l4xx_hal_msp.c ****   }
 348:Core/Src/stm32l4xx_hal_msp.c ****   else if(hi2c->Instance==I2C3)
 694              		.loc 1 348 8 is_stmt 1 view .LVU172
 695              		.loc 1 348 10 is_stmt 0 view .LVU173
 696 0024 3F4A     		ldr	r2, .L55+4
 697 0026 9342     		cmp	r3, r2
 698 0028 32D0     		beq	.L52
 699              	.LVL41:
 700              	.L45:
 349:Core/Src/stm32l4xx_hal_msp.c ****   {
 350:Core/Src/stm32l4xx_hal_msp.c ****     /* USER CODE BEGIN I2C3_MspInit 0 */
 351:Core/Src/stm32l4xx_hal_msp.c **** 
 352:Core/Src/stm32l4xx_hal_msp.c ****     /* USER CODE END I2C3_MspInit 0 */
 353:Core/Src/stm32l4xx_hal_msp.c **** 
 354:Core/Src/stm32l4xx_hal_msp.c ****   /** Initializes the peripherals clock
 355:Core/Src/stm32l4xx_hal_msp.c ****   */
 356:Core/Src/stm32l4xx_hal_msp.c ****     PeriphClkInit.PeriphClockSelection = RCC_PERIPHCLK_I2C3;
 357:Core/Src/stm32l4xx_hal_msp.c ****     PeriphClkInit.I2c3ClockSelection = RCC_I2C3CLKSOURCE_HSI;
 358:Core/Src/stm32l4xx_hal_msp.c ****     if (HAL_RCCEx_PeriphCLKConfig(&PeriphClkInit) != HAL_OK)
 359:Core/Src/stm32l4xx_hal_msp.c ****     {
 360:Core/Src/stm32l4xx_hal_msp.c ****       Error_Handler();
ARM GAS  C:\Users\Ali\AppData\Local\Temp\ccZI0QsI.s 			page 21


 361:Core/Src/stm32l4xx_hal_msp.c ****     }
 362:Core/Src/stm32l4xx_hal_msp.c **** 
 363:Core/Src/stm32l4xx_hal_msp.c ****     /* Peripheral clock enable - MUST be before GPIO init */
 364:Core/Src/stm32l4xx_hal_msp.c ****     __HAL_RCC_I2C3_CLK_ENABLE();
 365:Core/Src/stm32l4xx_hal_msp.c ****     
 366:Core/Src/stm32l4xx_hal_msp.c ****     __HAL_RCC_GPIOA_CLK_ENABLE();
 367:Core/Src/stm32l4xx_hal_msp.c ****     __HAL_RCC_GPIOB_CLK_ENABLE();
 368:Core/Src/stm32l4xx_hal_msp.c ****     /**I2C3 GPIO Configuration
 369:Core/Src/stm32l4xx_hal_msp.c ****     PA7     ------> I2C3_SCL
 370:Core/Src/stm32l4xx_hal_msp.c ****     PB4 (NJTRST)     ------> I2C3_SDA
 371:Core/Src/stm32l4xx_hal_msp.c ****     */
 372:Core/Src/stm32l4xx_hal_msp.c ****     GPIO_InitStruct.Pin = GPIO_PIN_7;
 373:Core/Src/stm32l4xx_hal_msp.c ****     GPIO_InitStruct.Mode = GPIO_MODE_AF_OD;
 374:Core/Src/stm32l4xx_hal_msp.c ****     GPIO_InitStruct.Pull = GPIO_PULLUP;
 375:Core/Src/stm32l4xx_hal_msp.c ****     GPIO_InitStruct.Speed = GPIO_SPEED_FREQ_VERY_HIGH;
 376:Core/Src/stm32l4xx_hal_msp.c ****     GPIO_InitStruct.Alternate = GPIO_AF4_I2C3;
 377:Core/Src/stm32l4xx_hal_msp.c ****     HAL_GPIO_Init(GPIOA, &GPIO_InitStruct);
 378:Core/Src/stm32l4xx_hal_msp.c **** 
 379:Core/Src/stm32l4xx_hal_msp.c ****     GPIO_InitStruct.Pin = GPIO_PIN_4;
 380:Core/Src/stm32l4xx_hal_msp.c ****     GPIO_InitStruct.Mode = GPIO_MODE_AF_OD;
 381:Core/Src/stm32l4xx_hal_msp.c ****     GPIO_InitStruct.Pull = GPIO_PULLUP;
 382:Core/Src/stm32l4xx_hal_msp.c ****     GPIO_InitStruct.Speed = GPIO_SPEED_FREQ_VERY_HIGH;
 383:Core/Src/stm32l4xx_hal_msp.c ****     GPIO_InitStruct.Alternate = GPIO_AF4_I2C3;
 384:Core/Src/stm32l4xx_hal_msp.c ****     HAL_GPIO_Init(GPIOB, &GPIO_InitStruct);
 385:Core/Src/stm32l4xx_hal_msp.c **** 
 386:Core/Src/stm32l4xx_hal_msp.c ****     /* USER CODE BEGIN I2C3_MspInit 1 */
 387:Core/Src/stm32l4xx_hal_msp.c **** 
 388:Core/Src/stm32l4xx_hal_msp.c ****     /* USER CODE END I2C3_MspInit 1 */
 389:Core/Src/stm32l4xx_hal_msp.c ****   }
 390:Core/Src/stm32l4xx_hal_msp.c **** 
 391:Core/Src/stm32l4xx_hal_msp.c **** }
 701              		.loc 1 391 1 view .LVU174
 702 002a 20B0     		add	sp, sp, #128
 703              		.cfi_remember_state
 704              		.cfi_def_cfa_offset 24
 705              		@ sp needed
 706 002c BDE8F081 		pop	{r4, r5, r6, r7, r8, pc}
 707              	.LVL42:
 708              	.L51:
 709              		.cfi_restore_state
 323:Core/Src/stm32l4xx_hal_msp.c ****     PeriphClkInit.I2c1ClockSelection = RCC_I2C1CLKSOURCE_HSI;
 710              		.loc 1 323 5 is_stmt 1 view .LVU175
 323:Core/Src/stm32l4xx_hal_msp.c ****     PeriphClkInit.I2c1ClockSelection = RCC_I2C1CLKSOURCE_HSI;
 711              		.loc 1 323 40 is_stmt 0 view .LVU176
 712 0030 4023     		movs	r3, #64
 713 0032 0693     		str	r3, [sp, #24]
 324:Core/Src/stm32l4xx_hal_msp.c ****     if (HAL_RCCEx_PeriphCLKConfig(&PeriphClkInit) != HAL_OK)
 714              		.loc 1 324 5 is_stmt 1 view .LVU177
 324:Core/Src/stm32l4xx_hal_msp.c ****     if (HAL_RCCEx_PeriphCLKConfig(&PeriphClkInit) != HAL_OK)
 715              		.loc 1 324 38 is_stmt 0 view .LVU178
 716 0034 4FF40053 		mov	r3, #8192
 717 0038 1193     		str	r3, [sp, #68]
 325:Core/Src/stm32l4xx_hal_msp.c ****     {
 718              		.loc 1 325 5 is_stmt 1 view .LVU179
 325:Core/Src/stm32l4xx_hal_msp.c ****     {
 719              		.loc 1 325 9 is_stmt 0 view .LVU180
 720 003a 06A8     		add	r0, sp, #24
ARM GAS  C:\Users\Ali\AppData\Local\Temp\ccZI0QsI.s 			page 22


 721 003c FFF7FEFF 		bl	HAL_RCCEx_PeriphCLKConfig
 722              	.LVL43:
 325:Core/Src/stm32l4xx_hal_msp.c ****     {
 723              		.loc 1 325 8 discriminator 1 view .LVU181
 724 0040 18BB     		cbnz	r0, .L53
 725              	.L47:
 330:Core/Src/stm32l4xx_hal_msp.c ****     /**I2C1 GPIO Configuration
 726              		.loc 1 330 5 is_stmt 1 view .LVU182
 727              	.LBB10:
 330:Core/Src/stm32l4xx_hal_msp.c ****     /**I2C1 GPIO Configuration
 728              		.loc 1 330 5 view .LVU183
 330:Core/Src/stm32l4xx_hal_msp.c ****     /**I2C1 GPIO Configuration
 729              		.loc 1 330 5 view .LVU184
 730 0042 394C     		ldr	r4, .L55+8
 731              	.LVL44:
 330:Core/Src/stm32l4xx_hal_msp.c ****     /**I2C1 GPIO Configuration
 732              		.loc 1 330 5 is_stmt 0 view .LVU185
 733 0044 E36C     		ldr	r3, [r4, #76]
 734 0046 43F00103 		orr	r3, r3, #1
 735 004a E364     		str	r3, [r4, #76]
 330:Core/Src/stm32l4xx_hal_msp.c ****     /**I2C1 GPIO Configuration
 736              		.loc 1 330 5 is_stmt 1 view .LVU186
 737 004c E36C     		ldr	r3, [r4, #76]
 738 004e 03F00103 		and	r3, r3, #1
 739 0052 0193     		str	r3, [sp, #4]
 330:Core/Src/stm32l4xx_hal_msp.c ****     /**I2C1 GPIO Configuration
 740              		.loc 1 330 5 view .LVU187
 741 0054 019B     		ldr	r3, [sp, #4]
 742              	.LBE10:
 330:Core/Src/stm32l4xx_hal_msp.c ****     /**I2C1 GPIO Configuration
 743              		.loc 1 330 5 view .LVU188
 335:Core/Src/stm32l4xx_hal_msp.c ****     GPIO_InitStruct.Mode = GPIO_MODE_AF_OD;
 744              		.loc 1 335 5 view .LVU189
 335:Core/Src/stm32l4xx_hal_msp.c ****     GPIO_InitStruct.Mode = GPIO_MODE_AF_OD;
 745              		.loc 1 335 25 is_stmt 0 view .LVU190
 746 0056 4FF4C063 		mov	r3, #1536
 747 005a 1B93     		str	r3, [sp, #108]
 336:Core/Src/stm32l4xx_hal_msp.c ****     GPIO_InitStruct.Pull = GPIO_PULLUP;
 748              		.loc 1 336 5 is_stmt 1 view .LVU191
 336:Core/Src/stm32l4xx_hal_msp.c ****     GPIO_InitStruct.Pull = GPIO_PULLUP;
 749              		.loc 1 336 26 is_stmt 0 view .LVU192
 750 005c 1223     		movs	r3, #18
 751 005e 1C93     		str	r3, [sp, #112]
 337:Core/Src/stm32l4xx_hal_msp.c ****     GPIO_InitStruct.Speed = GPIO_SPEED_FREQ_VERY_HIGH;
 752              		.loc 1 337 5 is_stmt 1 view .LVU193
 337:Core/Src/stm32l4xx_hal_msp.c ****     GPIO_InitStruct.Speed = GPIO_SPEED_FREQ_VERY_HIGH;
 753              		.loc 1 337 26 is_stmt 0 view .LVU194
 754 0060 0123     		movs	r3, #1
 755 0062 1D93     		str	r3, [sp, #116]
 338:Core/Src/stm32l4xx_hal_msp.c ****     GPIO_InitStruct.Alternate = GPIO_AF4_I2C1;
 756              		.loc 1 338 5 is_stmt 1 view .LVU195
 338:Core/Src/stm32l4xx_hal_msp.c ****     GPIO_InitStruct.Alternate = GPIO_AF4_I2C1;
 757              		.loc 1 338 27 is_stmt 0 view .LVU196
 758 0064 0323     		movs	r3, #3
 759 0066 1E93     		str	r3, [sp, #120]
 339:Core/Src/stm32l4xx_hal_msp.c ****     HAL_GPIO_Init(GPIOA, &GPIO_InitStruct);
 760              		.loc 1 339 5 is_stmt 1 view .LVU197
ARM GAS  C:\Users\Ali\AppData\Local\Temp\ccZI0QsI.s 			page 23


 339:Core/Src/stm32l4xx_hal_msp.c ****     HAL_GPIO_Init(GPIOA, &GPIO_InitStruct);
 761              		.loc 1 339 31 is_stmt 0 view .LVU198
 762 0068 0423     		movs	r3, #4
 763 006a 1F93     		str	r3, [sp, #124]
 340:Core/Src/stm32l4xx_hal_msp.c **** 
 764              		.loc 1 340 5 is_stmt 1 view .LVU199
 765 006c 1BA9     		add	r1, sp, #108
 766 006e 4FF09040 		mov	r0, #1207959552
 767 0072 FFF7FEFF 		bl	HAL_GPIO_Init
 768              	.LVL45:
 343:Core/Src/stm32l4xx_hal_msp.c ****     /* USER CODE BEGIN I2C1_MspInit 1 */
 769              		.loc 1 343 5 view .LVU200
 770              	.LBB11:
 343:Core/Src/stm32l4xx_hal_msp.c ****     /* USER CODE BEGIN I2C1_MspInit 1 */
 771              		.loc 1 343 5 view .LVU201
 343:Core/Src/stm32l4xx_hal_msp.c ****     /* USER CODE BEGIN I2C1_MspInit 1 */
 772              		.loc 1 343 5 view .LVU202
 773 0076 A36D     		ldr	r3, [r4, #88]
 774 0078 43F40013 		orr	r3, r3, #2097152
 775 007c A365     		str	r3, [r4, #88]
 343:Core/Src/stm32l4xx_hal_msp.c ****     /* USER CODE BEGIN I2C1_MspInit 1 */
 776              		.loc 1 343 5 view .LVU203
 777 007e A36D     		ldr	r3, [r4, #88]
 778 0080 03F40013 		and	r3, r3, #2097152
 779 0084 0293     		str	r3, [sp, #8]
 343:Core/Src/stm32l4xx_hal_msp.c ****     /* USER CODE BEGIN I2C1_MspInit 1 */
 780              		.loc 1 343 5 view .LVU204
 781 0086 029B     		ldr	r3, [sp, #8]
 782              	.LBE11:
 343:Core/Src/stm32l4xx_hal_msp.c ****     /* USER CODE BEGIN I2C1_MspInit 1 */
 783              		.loc 1 343 5 view .LVU205
 784 0088 CFE7     		b	.L45
 785              	.LVL46:
 786              	.L53:
 327:Core/Src/stm32l4xx_hal_msp.c ****     }
 787              		.loc 1 327 7 view .LVU206
 788 008a FFF7FEFF 		bl	Error_Handler
 789              	.LVL47:
 790 008e D8E7     		b	.L47
 791              	.L52:
 356:Core/Src/stm32l4xx_hal_msp.c ****     PeriphClkInit.I2c3ClockSelection = RCC_I2C3CLKSOURCE_HSI;
 792              		.loc 1 356 5 view .LVU207
 356:Core/Src/stm32l4xx_hal_msp.c ****     PeriphClkInit.I2c3ClockSelection = RCC_I2C3CLKSOURCE_HSI;
 793              		.loc 1 356 40 is_stmt 0 view .LVU208
 794 0090 4FF48073 		mov	r3, #256
 795 0094 0693     		str	r3, [sp, #24]
 357:Core/Src/stm32l4xx_hal_msp.c ****     if (HAL_RCCEx_PeriphCLKConfig(&PeriphClkInit) != HAL_OK)
 796              		.loc 1 357 5 is_stmt 1 view .LVU209
 357:Core/Src/stm32l4xx_hal_msp.c ****     if (HAL_RCCEx_PeriphCLKConfig(&PeriphClkInit) != HAL_OK)
 797              		.loc 1 357 38 is_stmt 0 view .LVU210
 798 0096 4FF40033 		mov	r3, #131072
 799 009a 1293     		str	r3, [sp, #72]
 358:Core/Src/stm32l4xx_hal_msp.c ****     {
 800              		.loc 1 358 5 is_stmt 1 view .LVU211
 358:Core/Src/stm32l4xx_hal_msp.c ****     {
 801              		.loc 1 358 9 is_stmt 0 view .LVU212
 802 009c 06A8     		add	r0, sp, #24
ARM GAS  C:\Users\Ali\AppData\Local\Temp\ccZI0QsI.s 			page 24


 803 009e FFF7FEFF 		bl	HAL_RCCEx_PeriphCLKConfig
 804              	.LVL48:
 358:Core/Src/stm32l4xx_hal_msp.c ****     {
 805              		.loc 1 358 8 discriminator 1 view .LVU213
 806 00a2 0028     		cmp	r0, #0
 807 00a4 39D1     		bne	.L54
 808              	.L49:
 364:Core/Src/stm32l4xx_hal_msp.c ****     
 809              		.loc 1 364 5 is_stmt 1 view .LVU214
 810              	.LBB12:
 364:Core/Src/stm32l4xx_hal_msp.c ****     
 811              		.loc 1 364 5 view .LVU215
 364:Core/Src/stm32l4xx_hal_msp.c ****     
 812              		.loc 1 364 5 view .LVU216
 813 00a6 204B     		ldr	r3, .L55+8
 814 00a8 9A6D     		ldr	r2, [r3, #88]
 815 00aa 42F40002 		orr	r2, r2, #8388608
 816 00ae 9A65     		str	r2, [r3, #88]
 364:Core/Src/stm32l4xx_hal_msp.c ****     
 817              		.loc 1 364 5 view .LVU217
 818 00b0 9A6D     		ldr	r2, [r3, #88]
 819 00b2 02F40002 		and	r2, r2, #8388608
 820 00b6 0392     		str	r2, [sp, #12]
 364:Core/Src/stm32l4xx_hal_msp.c ****     
 821              		.loc 1 364 5 view .LVU218
 822 00b8 039A     		ldr	r2, [sp, #12]
 823              	.LBE12:
 364:Core/Src/stm32l4xx_hal_msp.c ****     
 824              		.loc 1 364 5 view .LVU219
 366:Core/Src/stm32l4xx_hal_msp.c ****     __HAL_RCC_GPIOB_CLK_ENABLE();
 825              		.loc 1 366 5 view .LVU220
 826              	.LBB13:
 366:Core/Src/stm32l4xx_hal_msp.c ****     __HAL_RCC_GPIOB_CLK_ENABLE();
 827              		.loc 1 366 5 view .LVU221
 366:Core/Src/stm32l4xx_hal_msp.c ****     __HAL_RCC_GPIOB_CLK_ENABLE();
 828              		.loc 1 366 5 view .LVU222
 829 00ba DA6C     		ldr	r2, [r3, #76]
 830 00bc 42F00102 		orr	r2, r2, #1
 831 00c0 DA64     		str	r2, [r3, #76]
 366:Core/Src/stm32l4xx_hal_msp.c ****     __HAL_RCC_GPIOB_CLK_ENABLE();
 832              		.loc 1 366 5 view .LVU223
 833 00c2 DA6C     		ldr	r2, [r3, #76]
 834 00c4 02F00102 		and	r2, r2, #1
 835 00c8 0492     		str	r2, [sp, #16]
 366:Core/Src/stm32l4xx_hal_msp.c ****     __HAL_RCC_GPIOB_CLK_ENABLE();
 836              		.loc 1 366 5 view .LVU224
 837 00ca 049A     		ldr	r2, [sp, #16]
 838              	.LBE13:
 366:Core/Src/stm32l4xx_hal_msp.c ****     __HAL_RCC_GPIOB_CLK_ENABLE();
 839              		.loc 1 366 5 view .LVU225
 367:Core/Src/stm32l4xx_hal_msp.c ****     /**I2C3 GPIO Configuration
 840              		.loc 1 367 5 view .LVU226
 841              	.LBB14:
 367:Core/Src/stm32l4xx_hal_msp.c ****     /**I2C3 GPIO Configuration
 842              		.loc 1 367 5 view .LVU227
 367:Core/Src/stm32l4xx_hal_msp.c ****     /**I2C3 GPIO Configuration
 843              		.loc 1 367 5 view .LVU228
ARM GAS  C:\Users\Ali\AppData\Local\Temp\ccZI0QsI.s 			page 25


 844 00cc DA6C     		ldr	r2, [r3, #76]
 845 00ce 42F00202 		orr	r2, r2, #2
 846 00d2 DA64     		str	r2, [r3, #76]
 367:Core/Src/stm32l4xx_hal_msp.c ****     /**I2C3 GPIO Configuration
 847              		.loc 1 367 5 view .LVU229
 848 00d4 DB6C     		ldr	r3, [r3, #76]
 849 00d6 03F00203 		and	r3, r3, #2
 850 00da 0593     		str	r3, [sp, #20]
 367:Core/Src/stm32l4xx_hal_msp.c ****     /**I2C3 GPIO Configuration
 851              		.loc 1 367 5 view .LVU230
 852 00dc 059B     		ldr	r3, [sp, #20]
 853              	.LBE14:
 367:Core/Src/stm32l4xx_hal_msp.c ****     /**I2C3 GPIO Configuration
 854              		.loc 1 367 5 view .LVU231
 372:Core/Src/stm32l4xx_hal_msp.c ****     GPIO_InitStruct.Mode = GPIO_MODE_AF_OD;
 855              		.loc 1 372 5 view .LVU232
 372:Core/Src/stm32l4xx_hal_msp.c ****     GPIO_InitStruct.Mode = GPIO_MODE_AF_OD;
 856              		.loc 1 372 25 is_stmt 0 view .LVU233
 857 00de 8023     		movs	r3, #128
 858 00e0 1B93     		str	r3, [sp, #108]
 373:Core/Src/stm32l4xx_hal_msp.c ****     GPIO_InitStruct.Pull = GPIO_PULLUP;
 859              		.loc 1 373 5 is_stmt 1 view .LVU234
 373:Core/Src/stm32l4xx_hal_msp.c ****     GPIO_InitStruct.Pull = GPIO_PULLUP;
 860              		.loc 1 373 26 is_stmt 0 view .LVU235
 861 00e2 4FF01208 		mov	r8, #18
 862 00e6 CDF87080 		str	r8, [sp, #112]
 374:Core/Src/stm32l4xx_hal_msp.c ****     GPIO_InitStruct.Speed = GPIO_SPEED_FREQ_VERY_HIGH;
 863              		.loc 1 374 5 is_stmt 1 view .LVU236
 374:Core/Src/stm32l4xx_hal_msp.c ****     GPIO_InitStruct.Speed = GPIO_SPEED_FREQ_VERY_HIGH;
 864              		.loc 1 374 26 is_stmt 0 view .LVU237
 865 00ea 0127     		movs	r7, #1
 866 00ec 1D97     		str	r7, [sp, #116]
 375:Core/Src/stm32l4xx_hal_msp.c ****     GPIO_InitStruct.Alternate = GPIO_AF4_I2C3;
 867              		.loc 1 375 5 is_stmt 1 view .LVU238
 375:Core/Src/stm32l4xx_hal_msp.c ****     GPIO_InitStruct.Alternate = GPIO_AF4_I2C3;
 868              		.loc 1 375 27 is_stmt 0 view .LVU239
 869 00ee 0326     		movs	r6, #3
 870 00f0 1E96     		str	r6, [sp, #120]
 376:Core/Src/stm32l4xx_hal_msp.c ****     HAL_GPIO_Init(GPIOA, &GPIO_InitStruct);
 871              		.loc 1 376 5 is_stmt 1 view .LVU240
 376:Core/Src/stm32l4xx_hal_msp.c ****     HAL_GPIO_Init(GPIOA, &GPIO_InitStruct);
 872              		.loc 1 376 31 is_stmt 0 view .LVU241
 873 00f2 0425     		movs	r5, #4
 874 00f4 1F95     		str	r5, [sp, #124]
 377:Core/Src/stm32l4xx_hal_msp.c **** 
 875              		.loc 1 377 5 is_stmt 1 view .LVU242
 876 00f6 1BAC     		add	r4, sp, #108
 877              	.LVL49:
 377:Core/Src/stm32l4xx_hal_msp.c **** 
 878              		.loc 1 377 5 is_stmt 0 view .LVU243
 879 00f8 2146     		mov	r1, r4
 880 00fa 4FF09040 		mov	r0, #1207959552
 881 00fe FFF7FEFF 		bl	HAL_GPIO_Init
 882              	.LVL50:
 379:Core/Src/stm32l4xx_hal_msp.c ****     GPIO_InitStruct.Mode = GPIO_MODE_AF_OD;
 883              		.loc 1 379 5 is_stmt 1 view .LVU244
 379:Core/Src/stm32l4xx_hal_msp.c ****     GPIO_InitStruct.Mode = GPIO_MODE_AF_OD;
ARM GAS  C:\Users\Ali\AppData\Local\Temp\ccZI0QsI.s 			page 26


 884              		.loc 1 379 25 is_stmt 0 view .LVU245
 885 0102 1023     		movs	r3, #16
 886 0104 1B93     		str	r3, [sp, #108]
 380:Core/Src/stm32l4xx_hal_msp.c ****     GPIO_InitStruct.Pull = GPIO_PULLUP;
 887              		.loc 1 380 5 is_stmt 1 view .LVU246
 380:Core/Src/stm32l4xx_hal_msp.c ****     GPIO_InitStruct.Pull = GPIO_PULLUP;
 888              		.loc 1 380 26 is_stmt 0 view .LVU247
 889 0106 CDF87080 		str	r8, [sp, #112]
 381:Core/Src/stm32l4xx_hal_msp.c ****     GPIO_InitStruct.Speed = GPIO_SPEED_FREQ_VERY_HIGH;
 890              		.loc 1 381 5 is_stmt 1 view .LVU248
 381:Core/Src/stm32l4xx_hal_msp.c ****     GPIO_InitStruct.Speed = GPIO_SPEED_FREQ_VERY_HIGH;
 891              		.loc 1 381 26 is_stmt 0 view .LVU249
 892 010a 1D97     		str	r7, [sp, #116]
 382:Core/Src/stm32l4xx_hal_msp.c ****     GPIO_InitStruct.Alternate = GPIO_AF4_I2C3;
 893              		.loc 1 382 5 is_stmt 1 view .LVU250
 382:Core/Src/stm32l4xx_hal_msp.c ****     GPIO_InitStruct.Alternate = GPIO_AF4_I2C3;
 894              		.loc 1 382 27 is_stmt 0 view .LVU251
 895 010c 1E96     		str	r6, [sp, #120]
 383:Core/Src/stm32l4xx_hal_msp.c ****     HAL_GPIO_Init(GPIOB, &GPIO_InitStruct);
 896              		.loc 1 383 5 is_stmt 1 view .LVU252
 383:Core/Src/stm32l4xx_hal_msp.c ****     HAL_GPIO_Init(GPIOB, &GPIO_InitStruct);
 897              		.loc 1 383 31 is_stmt 0 view .LVU253
 898 010e 1F95     		str	r5, [sp, #124]
 384:Core/Src/stm32l4xx_hal_msp.c **** 
 899              		.loc 1 384 5 is_stmt 1 view .LVU254
 900 0110 2146     		mov	r1, r4
 901 0112 0648     		ldr	r0, .L55+12
 902 0114 FFF7FEFF 		bl	HAL_GPIO_Init
 903              	.LVL51:
 904              		.loc 1 391 1 is_stmt 0 view .LVU255
 905 0118 87E7     		b	.L45
 906              	.LVL52:
 907              	.L54:
 360:Core/Src/stm32l4xx_hal_msp.c ****     }
 908              		.loc 1 360 7 is_stmt 1 view .LVU256
 909 011a FFF7FEFF 		bl	Error_Handler
 910              	.LVL53:
 911 011e C2E7     		b	.L49
 912              	.L56:
 913              		.align	2
 914              	.L55:
 915 0120 00540040 		.word	1073763328
 916 0124 005C0040 		.word	1073765376
 917 0128 00100240 		.word	1073876992
 918 012c 00040048 		.word	1207960576
 919              		.cfi_endproc
 920              	.LFE299:
 922              		.section	.text.HAL_I2C_MspDeInit,"ax",%progbits
 923              		.align	1
 924              		.global	HAL_I2C_MspDeInit
 925              		.syntax unified
 926              		.thumb
 927              		.thumb_func
 929              	HAL_I2C_MspDeInit:
 930              	.LVL54:
 931              	.LFB300:
 392:Core/Src/stm32l4xx_hal_msp.c **** 
ARM GAS  C:\Users\Ali\AppData\Local\Temp\ccZI0QsI.s 			page 27


 393:Core/Src/stm32l4xx_hal_msp.c **** /**
 394:Core/Src/stm32l4xx_hal_msp.c ****   * @brief I2C MSP De-Initialization
 395:Core/Src/stm32l4xx_hal_msp.c ****   * This function freeze the hardware resources used in this example
 396:Core/Src/stm32l4xx_hal_msp.c ****   * @param hi2c: I2C handle pointer
 397:Core/Src/stm32l4xx_hal_msp.c ****   * @retval None
 398:Core/Src/stm32l4xx_hal_msp.c ****   */
 399:Core/Src/stm32l4xx_hal_msp.c **** void HAL_I2C_MspDeInit(I2C_HandleTypeDef* hi2c)
 400:Core/Src/stm32l4xx_hal_msp.c **** {
 932              		.loc 1 400 1 view -0
 933              		.cfi_startproc
 934              		@ args = 0, pretend = 0, frame = 0
 935              		@ frame_needed = 0, uses_anonymous_args = 0
 936              		.loc 1 400 1 is_stmt 0 view .LVU258
 937 0000 08B5     		push	{r3, lr}
 938              		.cfi_def_cfa_offset 8
 939              		.cfi_offset 3, -8
 940              		.cfi_offset 14, -4
 401:Core/Src/stm32l4xx_hal_msp.c ****   if(hi2c->Instance==I2C1)
 941              		.loc 1 401 3 is_stmt 1 view .LVU259
 942              		.loc 1 401 10 is_stmt 0 view .LVU260
 943 0002 0368     		ldr	r3, [r0]
 944              		.loc 1 401 5 view .LVU261
 945 0004 144A     		ldr	r2, .L63
 946 0006 9342     		cmp	r3, r2
 947 0008 03D0     		beq	.L61
 402:Core/Src/stm32l4xx_hal_msp.c ****   {
 403:Core/Src/stm32l4xx_hal_msp.c ****     /* USER CODE BEGIN I2C1_MspDeInit 0 */
 404:Core/Src/stm32l4xx_hal_msp.c **** 
 405:Core/Src/stm32l4xx_hal_msp.c ****     /* USER CODE END I2C1_MspDeInit 0 */
 406:Core/Src/stm32l4xx_hal_msp.c ****     /* Peripheral clock disable */
 407:Core/Src/stm32l4xx_hal_msp.c ****     __HAL_RCC_I2C1_CLK_DISABLE();
 408:Core/Src/stm32l4xx_hal_msp.c **** 
 409:Core/Src/stm32l4xx_hal_msp.c ****     /**I2C1 GPIO Configuration
 410:Core/Src/stm32l4xx_hal_msp.c ****     PA9     ------> I2C1_SCL
 411:Core/Src/stm32l4xx_hal_msp.c ****     PA10     ------> I2C1_SDA
 412:Core/Src/stm32l4xx_hal_msp.c ****     */
 413:Core/Src/stm32l4xx_hal_msp.c ****     HAL_GPIO_DeInit(GPIOA, GPIO_PIN_9);
 414:Core/Src/stm32l4xx_hal_msp.c **** 
 415:Core/Src/stm32l4xx_hal_msp.c ****     HAL_GPIO_DeInit(GPIOA, GPIO_PIN_10);
 416:Core/Src/stm32l4xx_hal_msp.c **** 
 417:Core/Src/stm32l4xx_hal_msp.c ****     /* USER CODE BEGIN I2C1_MspDeInit 1 */
 418:Core/Src/stm32l4xx_hal_msp.c **** 
 419:Core/Src/stm32l4xx_hal_msp.c ****     /* USER CODE END I2C1_MspDeInit 1 */
 420:Core/Src/stm32l4xx_hal_msp.c ****   }
 421:Core/Src/stm32l4xx_hal_msp.c ****   else if(hi2c->Instance==I2C3)
 948              		.loc 1 421 8 is_stmt 1 view .LVU262
 949              		.loc 1 421 10 is_stmt 0 view .LVU263
 950 000a 144A     		ldr	r2, .L63+4
 951 000c 9342     		cmp	r3, r2
 952 000e 13D0     		beq	.L62
 953              	.LVL55:
 954              	.L57:
 422:Core/Src/stm32l4xx_hal_msp.c ****   {
 423:Core/Src/stm32l4xx_hal_msp.c ****     /* USER CODE BEGIN I2C3_MspDeInit 0 */
 424:Core/Src/stm32l4xx_hal_msp.c **** 
 425:Core/Src/stm32l4xx_hal_msp.c ****     /* USER CODE END I2C3_MspDeInit 0 */
 426:Core/Src/stm32l4xx_hal_msp.c ****     /* Peripheral clock disable */
ARM GAS  C:\Users\Ali\AppData\Local\Temp\ccZI0QsI.s 			page 28


 427:Core/Src/stm32l4xx_hal_msp.c ****     __HAL_RCC_I2C3_CLK_DISABLE();
 428:Core/Src/stm32l4xx_hal_msp.c **** 
 429:Core/Src/stm32l4xx_hal_msp.c ****     /**I2C3 GPIO Configuration
 430:Core/Src/stm32l4xx_hal_msp.c ****     PA7     ------> I2C3_SCL
 431:Core/Src/stm32l4xx_hal_msp.c ****     PB4 (NJTRST)     ------> I2C3_SDA
 432:Core/Src/stm32l4xx_hal_msp.c ****     */
 433:Core/Src/stm32l4xx_hal_msp.c ****     HAL_GPIO_DeInit(GPIOA, GPIO_PIN_7);
 434:Core/Src/stm32l4xx_hal_msp.c **** 
 435:Core/Src/stm32l4xx_hal_msp.c ****     HAL_GPIO_DeInit(GPIOB, GPIO_PIN_4);
 436:Core/Src/stm32l4xx_hal_msp.c **** 
 437:Core/Src/stm32l4xx_hal_msp.c ****     /* USER CODE BEGIN I2C3_MspDeInit 1 */
 438:Core/Src/stm32l4xx_hal_msp.c **** 
 439:Core/Src/stm32l4xx_hal_msp.c ****     /* USER CODE END I2C3_MspDeInit 1 */
 440:Core/Src/stm32l4xx_hal_msp.c ****   }
 441:Core/Src/stm32l4xx_hal_msp.c **** 
 442:Core/Src/stm32l4xx_hal_msp.c **** }
 955              		.loc 1 442 1 view .LVU264
 956 0010 08BD     		pop	{r3, pc}
 957              	.LVL56:
 958              	.L61:
 407:Core/Src/stm32l4xx_hal_msp.c **** 
 959              		.loc 1 407 5 is_stmt 1 view .LVU265
 960 0012 02F5DE32 		add	r2, r2, #113664
 961 0016 936D     		ldr	r3, [r2, #88]
 962 0018 23F40013 		bic	r3, r3, #2097152
 963 001c 9365     		str	r3, [r2, #88]
 413:Core/Src/stm32l4xx_hal_msp.c **** 
 964              		.loc 1 413 5 view .LVU266
 965 001e 4FF40071 		mov	r1, #512
 966 0022 4FF09040 		mov	r0, #1207959552
 967              	.LVL57:
 413:Core/Src/stm32l4xx_hal_msp.c **** 
 968              		.loc 1 413 5 is_stmt 0 view .LVU267
 969 0026 FFF7FEFF 		bl	HAL_GPIO_DeInit
 970              	.LVL58:
 415:Core/Src/stm32l4xx_hal_msp.c **** 
 971              		.loc 1 415 5 is_stmt 1 view .LVU268
 972 002a 4FF48061 		mov	r1, #1024
 973 002e 4FF09040 		mov	r0, #1207959552
 974 0032 FFF7FEFF 		bl	HAL_GPIO_DeInit
 975              	.LVL59:
 976 0036 EBE7     		b	.L57
 977              	.LVL60:
 978              	.L62:
 427:Core/Src/stm32l4xx_hal_msp.c **** 
 979              		.loc 1 427 5 view .LVU269
 980 0038 02F5DA32 		add	r2, r2, #111616
 981 003c 936D     		ldr	r3, [r2, #88]
 982 003e 23F40003 		bic	r3, r3, #8388608
 983 0042 9365     		str	r3, [r2, #88]
 433:Core/Src/stm32l4xx_hal_msp.c **** 
 984              		.loc 1 433 5 view .LVU270
 985 0044 8021     		movs	r1, #128
 986 0046 4FF09040 		mov	r0, #1207959552
 987              	.LVL61:
 433:Core/Src/stm32l4xx_hal_msp.c **** 
 988              		.loc 1 433 5 is_stmt 0 view .LVU271
ARM GAS  C:\Users\Ali\AppData\Local\Temp\ccZI0QsI.s 			page 29


 989 004a FFF7FEFF 		bl	HAL_GPIO_DeInit
 990              	.LVL62:
 435:Core/Src/stm32l4xx_hal_msp.c **** 
 991              		.loc 1 435 5 is_stmt 1 view .LVU272
 992 004e 1021     		movs	r1, #16
 993 0050 0348     		ldr	r0, .L63+8
 994 0052 FFF7FEFF 		bl	HAL_GPIO_DeInit
 995              	.LVL63:
 996              		.loc 1 442 1 is_stmt 0 view .LVU273
 997 0056 DBE7     		b	.L57
 998              	.L64:
 999              		.align	2
 1000              	.L63:
 1001 0058 00540040 		.word	1073763328
 1002 005c 005C0040 		.word	1073765376
 1003 0060 00040048 		.word	1207960576
 1004              		.cfi_endproc
 1005              	.LFE300:
 1007              		.text
 1008              	.Letext0:
 1009              		.file 2 "Drivers/CMSIS/Device/ST/STM32L4xx/Include/stm32l432xx.h"
 1010              		.file 3 "C:/Users/Ali/AppData/Roaming/Code/User/globalStorage/bmd.stm32-for-vscode/@xpack-dev-tool
 1011              		.file 4 "C:/Users/Ali/AppData/Roaming/Code/User/globalStorage/bmd.stm32-for-vscode/@xpack-dev-tool
 1012              		.file 5 "Drivers/CMSIS/Device/ST/STM32L4xx/Include/stm32l4xx.h"
 1013              		.file 6 "Drivers/STM32L4xx_HAL_Driver/Inc/stm32l4xx_hal_def.h"
 1014              		.file 7 "Drivers/STM32L4xx_HAL_Driver/Inc/stm32l4xx_hal_rcc_ex.h"
 1015              		.file 8 "Drivers/STM32L4xx_HAL_Driver/Inc/stm32l4xx_hal_gpio.h"
 1016              		.file 9 "Drivers/STM32L4xx_HAL_Driver/Inc/stm32l4xx_hal_dma.h"
 1017              		.file 10 "Drivers/STM32L4xx_HAL_Driver/Inc/stm32l4xx_hal_adc.h"
 1018              		.file 11 "Drivers/STM32L4xx_HAL_Driver/Inc/stm32l4xx_hal_can.h"
 1019              		.file 12 "Drivers/STM32L4xx_HAL_Driver/Inc/stm32l4xx_hal_crc.h"
 1020              		.file 13 "Drivers/STM32L4xx_HAL_Driver/Inc/stm32l4xx_hal_i2c.h"
 1021              		.file 14 "Drivers/STM32L4xx_HAL_Driver/Inc/stm32l4xx_hal_cortex.h"
 1022              		.file 15 "Core/Inc/main.h"
 1023              		.file 16 "<built-in>"
ARM GAS  C:\Users\Ali\AppData\Local\Temp\ccZI0QsI.s 			page 30

